GAS LISTING /tmp/ccCSP3vf.s 			page 1


   1              		.file	"KSemaphore.cpp"
   2              		.option pic
   3              		.option norelax
   4              		.text
   5              	.Ltext0:
   6              		.align	2
   7              		.globl	_ZN10KSemaphore15createSemaphoreEm
   9              	_ZN10KSemaphore15createSemaphoreEm:
  10              	.LFB13:
  11              		.file 1 "src/KSemaphore.cpp"
   1:src/KSemaphore.cpp **** //
   2:src/KSemaphore.cpp **** // Created by os on 10/15/25.
   3:src/KSemaphore.cpp **** //
   4:src/KSemaphore.cpp **** 
   5:src/KSemaphore.cpp **** #include "../h/KSemaphore.hpp"
   6:src/KSemaphore.cpp **** #include "../h/KThread.hpp"
   7:src/KSemaphore.cpp **** #include "../h/Scheduler.hpp"
   8:src/KSemaphore.cpp **** 
   9:src/KSemaphore.cpp **** KSemaphore* KSemaphore::createSemaphore(uint64 init) {
  12              		.loc 1 9 54
  13              		.cfi_startproc
  14              	.LVL0:
  15 0000 130101FE 		addi	sp,sp,-32
  16              		.cfi_def_cfa_offset 32
  17 0004 233C1100 		sd	ra,24(sp)
  18 0008 23388100 		sd	s0,16(sp)
  19 000c 23349100 		sd	s1,8(sp)
  20              		.cfi_offset 1, -8
  21              		.cfi_offset 8, -16
  22              		.cfi_offset 9, -24
  23 0010 13040102 		addi	s0,sp,32
  24              		.cfi_def_cfa 8, 0
  25 0014 93040500 		mv	s1,a0
  10:src/KSemaphore.cpp ****     return new KSemaphore(init);
  26              		.loc 1 10 5
  27              	.LVL1:
  28              	.LBB16:
  29              	.LBB17:
  30              		.file 2 "src/../h/KSemaphore.hpp"
   1:src/../h/KSemaphore.hpp **** //
   2:src/../h/KSemaphore.hpp **** // Created by os on 10/15/25.
   3:src/../h/KSemaphore.hpp **** //
   4:src/../h/KSemaphore.hpp **** 
   5:src/../h/KSemaphore.hpp **** #ifndef PROJECT_BASE_SEMAPHORE_HPP
   6:src/../h/KSemaphore.hpp **** #define PROJECT_BASE_SEMAPHORE_HPP
   7:src/../h/KSemaphore.hpp **** 
   8:src/../h/KSemaphore.hpp **** #include "MemoryAllocator.hpp"
   9:src/../h/KSemaphore.hpp **** #include "../lib/hw.h"
  10:src/../h/KSemaphore.hpp **** 
  11:src/../h/KSemaphore.hpp **** class KThread;
  12:src/../h/KSemaphore.hpp **** 
  13:src/../h/KSemaphore.hpp **** class KSemaphore {
  14:src/../h/KSemaphore.hpp **** public:
  15:src/../h/KSemaphore.hpp ****     static KSemaphore* createSemaphore(uint64 init);
  16:src/../h/KSemaphore.hpp **** 
  17:src/../h/KSemaphore.hpp ****     void wait();
  18:src/../h/KSemaphore.hpp ****     void signal();
GAS LISTING /tmp/ccCSP3vf.s 			page 2


  19:src/../h/KSemaphore.hpp ****     void close();
  20:src/../h/KSemaphore.hpp **** 
  21:src/../h/KSemaphore.hpp ****     void* operator new(size_t size) {
  22:src/../h/KSemaphore.hpp ****         size_t blocks = size / MEM_BLOCK_SIZE;
  31              		.loc 2 22 9
  23:src/../h/KSemaphore.hpp ****         if (size % MEM_BLOCK_SIZE) blocks++;
  32              		.loc 2 23 9
  33              		.loc 2 23 36
  24:src/../h/KSemaphore.hpp **** 
  25:src/../h/KSemaphore.hpp ****         return MemoryAllocator::mem_alloc(blocks);
  34              		.loc 2 25 9
  35              		.loc 2 25 42 is_stmt 0
  36 0018 13051000 		li	a0,1
  37              	.LVL2:
  38 001c 97000000 		call	_ZN15MemoryAllocator9mem_allocEm@plt
  38      E7800000 
  39              	.LVL3:
  40              	.LBE17:
  41              	.LBE16:
  42              	.LBB18:
  43              	.LBB19:
  26:src/../h/KSemaphore.hpp ****     }
  27:src/../h/KSemaphore.hpp **** 
  28:src/../h/KSemaphore.hpp ****     void operator delete(void* ptr) {
  29:src/../h/KSemaphore.hpp ****         MemoryAllocator::mem_free(ptr);
  30:src/../h/KSemaphore.hpp ****     }
  31:src/../h/KSemaphore.hpp **** 
  32:src/../h/KSemaphore.hpp ****     void* operator new[](size_t size) {
  33:src/../h/KSemaphore.hpp ****         size_t blocks = size / MEM_BLOCK_SIZE;
  34:src/../h/KSemaphore.hpp ****         if (size % MEM_BLOCK_SIZE) blocks++;
  35:src/../h/KSemaphore.hpp **** 
  36:src/../h/KSemaphore.hpp ****         return MemoryAllocator::mem_alloc(blocks);
  37:src/../h/KSemaphore.hpp ****     }
  38:src/../h/KSemaphore.hpp **** 
  39:src/../h/KSemaphore.hpp ****     void operator delete[](void* ptr) {
  40:src/../h/KSemaphore.hpp ****         MemoryAllocator::mem_free(ptr);
  41:src/../h/KSemaphore.hpp ****     }
  42:src/../h/KSemaphore.hpp **** 
  43:src/../h/KSemaphore.hpp **** private:
  44:src/../h/KSemaphore.hpp ****     explicit KSemaphore(uint64 init) : val(init) {}
  44              		.loc 2 44 48
  45 0024 23209500 		sw	s1,0(a0)
  46 0028 23340500 		sd	zero,8(a0)
  47 002c 23380500 		sd	zero,16(a0)
  48              	.LVL4:
  49              	.LBE19:
  50              	.LBE18:
  11:src/KSemaphore.cpp **** }
  51              		.loc 1 11 1
  52 0030 83308101 		ld	ra,24(sp)
  53              		.cfi_restore 1
  54 0034 03340101 		ld	s0,16(sp)
  55              		.cfi_restore 8
  56              		.cfi_def_cfa 2, 32
  57 0038 83348100 		ld	s1,8(sp)
  58              		.cfi_restore 9
  59              	.LVL5:
GAS LISTING /tmp/ccCSP3vf.s 			page 3


  60 003c 13010102 		addi	sp,sp,32
  61              		.cfi_def_cfa_offset 0
  62 0040 67800000 		jr	ra
  63              		.cfi_endproc
  64              	.LFE13:
  66              		.align	2
  67              		.globl	_ZN10KSemaphore3getEv
  69              	_ZN10KSemaphore3getEv:
  70              	.LFB14:
  12:src/KSemaphore.cpp **** 
  13:src/KSemaphore.cpp **** KThread* KSemaphore::get() {
  71              		.loc 1 13 28 is_stmt 1
  72              		.cfi_startproc
  73              	.LVL6:
  74 0044 130101FF 		addi	sp,sp,-16
  75              		.cfi_def_cfa_offset 16
  76 0048 23348100 		sd	s0,8(sp)
  77              		.cfi_offset 8, -8
  78 004c 13040101 		addi	s0,sp,16
  79              		.cfi_def_cfa 8, 0
  80 0050 93070500 		mv	a5,a0
  14:src/KSemaphore.cpp ****     if (!head) return nullptr;
  81              		.loc 1 14 5
  82              		.loc 1 14 10 is_stmt 0
  83 0054 03358500 		ld	a0,8(a0)
  84              	.LVL7:
  85              		.loc 1 14 5
  86 0058 630A0500 		beqz	a0,.L3
  15:src/KSemaphore.cpp **** 
  16:src/KSemaphore.cpp ****     KThread* thread = head;
  87              		.loc 1 16 5 is_stmt 1
  88              	.LVL8:
  17:src/KSemaphore.cpp ****     head = head->semaphoreNext;
  89              		.loc 1 17 5
  90              		.loc 1 17 18 is_stmt 0
  91 005c 03370504 		ld	a4,64(a0)
  92              		.loc 1 17 10
  93 0060 23B4E700 		sd	a4,8(a5)
  18:src/KSemaphore.cpp **** 
  19:src/KSemaphore.cpp ****     if (!head) tail = nullptr;
  94              		.loc 1 19 5 is_stmt 1
  95 0064 630A0700 		beqz	a4,.L7
  96              	.L5:
  20:src/KSemaphore.cpp ****     thread->semaphoreNext = nullptr;
  97              		.loc 1 20 5
  98              		.loc 1 20 27 is_stmt 0
  99 0068 23300504 		sd	zero,64(a0)
  21:src/KSemaphore.cpp **** 
  22:src/KSemaphore.cpp ****     return thread;
 100              		.loc 1 22 5 is_stmt 1
 101              	.LVL9:
 102              	.L3:
  23:src/KSemaphore.cpp **** }
 103              		.loc 1 23 1 is_stmt 0
 104 006c 03348100 		ld	s0,8(sp)
 105              		.cfi_remember_state
 106              		.cfi_restore 8
GAS LISTING /tmp/ccCSP3vf.s 			page 4


 107              		.cfi_def_cfa 2, 16
 108 0070 13010101 		addi	sp,sp,16
 109              		.cfi_def_cfa_offset 0
 110 0074 67800000 		jr	ra
 111              	.LVL10:
 112              	.L7:
 113              		.cfi_restore_state
  19:src/KSemaphore.cpp ****     thread->semaphoreNext = nullptr;
 114              		.loc 1 19 16 is_stmt 1 discriminator 1
  19:src/KSemaphore.cpp ****     thread->semaphoreNext = nullptr;
 115              		.loc 1 19 21 is_stmt 0 discriminator 1
 116 0078 23B80700 		sd	zero,16(a5)
 117 007c 6FF0DFFE 		j	.L5
 118              		.cfi_endproc
 119              	.LFE14:
 121              		.align	2
 122              		.globl	_ZN10KSemaphore3putEP7KThread
 124              	_ZN10KSemaphore3putEP7KThread:
 125              	.LFB15:
  24:src/KSemaphore.cpp **** 
  25:src/KSemaphore.cpp **** 
  26:src/KSemaphore.cpp **** void KSemaphore::put(KThread *thread) {
 126              		.loc 1 26 39 is_stmt 1
 127              		.cfi_startproc
 128              	.LVL11:
 129 0080 130101FF 		addi	sp,sp,-16
 130              		.cfi_def_cfa_offset 16
 131 0084 23348100 		sd	s0,8(sp)
 132              		.cfi_offset 8, -8
 133 0088 13040101 		addi	s0,sp,16
 134              		.cfi_def_cfa 8, 0
  27:src/KSemaphore.cpp ****     if (!head) head = thread;
 135              		.loc 1 27 5
 136              		.loc 1 27 10 is_stmt 0
 137 008c 83378500 		ld	a5,8(a0)
 138              		.loc 1 27 5
 139 0090 63800702 		beqz	a5,.L12
  28:src/KSemaphore.cpp ****     else tail->semaphoreNext = thread;
 140              		.loc 1 28 10 is_stmt 1
 141 0094 83370501 		ld	a5,16(a0)
 142              		.loc 1 28 30 is_stmt 0
 143 0098 23B0B704 		sd	a1,64(a5)
 144              	.L10:
  29:src/KSemaphore.cpp ****     tail = thread;
 145              		.loc 1 29 5 is_stmt 1
 146              		.loc 1 29 10 is_stmt 0
 147 009c 2338B500 		sd	a1,16(a0)
  30:src/KSemaphore.cpp ****     thread->semaphoreNext = nullptr;
 148              		.loc 1 30 5 is_stmt 1
 149              		.loc 1 30 27 is_stmt 0
 150 00a0 23B00504 		sd	zero,64(a1)
  31:src/KSemaphore.cpp **** }
 151              		.loc 1 31 1
 152 00a4 03348100 		ld	s0,8(sp)
 153              		.cfi_remember_state
 154              		.cfi_restore 8
 155              		.cfi_def_cfa 2, 16
GAS LISTING /tmp/ccCSP3vf.s 			page 5


 156 00a8 13010101 		addi	sp,sp,16
 157              		.cfi_def_cfa_offset 0
 158 00ac 67800000 		jr	ra
 159              	.L12:
 160              		.cfi_restore_state
  27:src/KSemaphore.cpp ****     else tail->semaphoreNext = thread;
 161              		.loc 1 27 16 is_stmt 1 discriminator 1
  27:src/KSemaphore.cpp ****     else tail->semaphoreNext = thread;
 162              		.loc 1 27 21 is_stmt 0 discriminator 1
 163 00b0 2334B500 		sd	a1,8(a0)
 164 00b4 6FF09FFE 		j	.L10
 165              		.cfi_endproc
 166              	.LFE15:
 168              		.align	2
 169              		.globl	_ZN10KSemaphore4waitEv
 171              	_ZN10KSemaphore4waitEv:
 172              	.LFB16:
  32:src/KSemaphore.cpp **** 
  33:src/KSemaphore.cpp **** void KSemaphore::wait() {
 173              		.loc 1 33 25 is_stmt 1
 174              		.cfi_startproc
 175              	.LVL12:
  34:src/KSemaphore.cpp ****     val--;
 176              		.loc 1 34 5
 177 00b8 83270500 		lw	a5,0(a0)
 178              		.loc 1 34 8 is_stmt 0
 179 00bc 9B87F7FF 		addiw	a5,a5,-1
 180 00c0 2320F500 		sw	a5,0(a0)
  35:src/KSemaphore.cpp **** 
  36:src/KSemaphore.cpp ****     if (val < 0) {
 181              		.loc 1 36 5 is_stmt 1
 182 00c4 13970702 		slli	a4,a5,32
 183 00c8 63440700 		bltz	a4,.L19
 184 00cc 67800000 		ret
 185              	.L19:
  33:src/KSemaphore.cpp ****     val--;
 186              		.loc 1 33 25 is_stmt 0
 187 00d0 130101FF 		addi	sp,sp,-16
 188              		.cfi_def_cfa_offset 16
 189 00d4 23341100 		sd	ra,8(sp)
 190 00d8 23308100 		sd	s0,0(sp)
 191              		.cfi_offset 1, -8
 192              		.cfi_offset 8, -16
 193 00dc 13040101 		addi	s0,sp,16
 194              		.cfi_def_cfa 8, 0
  37:src/KSemaphore.cpp ****         KThread::running->setState(BLOCKED);
 195              		.loc 1 37 9 is_stmt 1
 196              		.loc 1 37 35 is_stmt 0
 197 00e0 97070000 		la	a5,_ZN7KThread7runningE
 197      83B70700 
 198 00e8 83B50700 		ld	a1,0(a5)
 199              	.LVL13:
 200              	.LBB20:
 201              	.LBB21:
 202              		.file 3 "src/../h/KThread.hpp"
   1:src/../h/KThread.hpp **** //
   2:src/../h/KThread.hpp **** // Created by os on 10/8/25.
GAS LISTING /tmp/ccCSP3vf.s 			page 6


   3:src/../h/KThread.hpp **** //
   4:src/../h/KThread.hpp **** 
   5:src/../h/KThread.hpp **** #ifndef PROJECT_BASE_THREAD_HPP
   6:src/../h/KThread.hpp **** #define PROJECT_BASE_THREAD_HPP
   7:src/../h/KThread.hpp **** 
   8:src/../h/KThread.hpp **** #include "MemoryAllocator.hpp"
   9:src/../h/KThread.hpp **** #include "../lib/hw.h"
  10:src/../h/KThread.hpp **** 
  11:src/../h/KThread.hpp **** enum ThreadState {
  12:src/../h/KThread.hpp ****     NEW,
  13:src/../h/KThread.hpp ****     READY,
  14:src/../h/KThread.hpp ****     RUNNING,
  15:src/../h/KThread.hpp ****     BLOCKED,
  16:src/../h/KThread.hpp ****     FINISHED
  17:src/../h/KThread.hpp **** };
  18:src/../h/KThread.hpp **** 
  19:src/../h/KThread.hpp **** class KThread {
  20:src/../h/KThread.hpp **** public:
  21:src/../h/KThread.hpp ****     static int staticId;
  22:src/../h/KThread.hpp ****     static KThread* running;
  23:src/../h/KThread.hpp **** 
  24:src/../h/KThread.hpp ****     friend class Scheduler;
  25:src/../h/KThread.hpp ****     friend class KSemaphore;
  26:src/../h/KThread.hpp ****     friend class Riscv;
  27:src/../h/KThread.hpp **** 
  28:src/../h/KThread.hpp ****     using Body = void(*)(void*);
  29:src/../h/KThread.hpp **** 
  30:src/../h/KThread.hpp ****     ~KThread();
  31:src/../h/KThread.hpp **** 
  32:src/../h/KThread.hpp ****     static KThread* createThread(Body, void*, void*);
  33:src/../h/KThread.hpp ****     static KThread* createThread(Body);
  34:src/../h/KThread.hpp **** 
  35:src/../h/KThread.hpp ****     void start();                       // prepare and put in the Scheduler
  36:src/../h/KThread.hpp ****     void exit();                        // mark as finished (could be called from wrapper)
  37:src/../h/KThread.hpp ****     static void wrapper();              // static function - entry which calls body(arg) and exit
  38:src/../h/KThread.hpp **** 
  39:src/../h/KThread.hpp ****     ThreadState getState() const { return state; }
  40:src/../h/KThread.hpp ****     void setState(ThreadState s) { state = s; }
 203              		.loc 3 40 36 is_stmt 1
 204              		.loc 3 40 42 is_stmt 0
 205 00ec 93073000 		li	a5,3
 206 00f0 23A8F502 		sw	a5,48(a1)
 207              	.LVL14:
 208              	.LBE21:
 209              	.LBE20:
  38:src/KSemaphore.cpp ****         put(KThread::running);
 210              		.loc 1 38 9 is_stmt 1
 211              		.loc 1 38 12 is_stmt 0
 212 00f4 97000000 		call	_ZN10KSemaphore3putEP7KThread
 212      E7800000 
 213              	.LVL15:
  39:src/KSemaphore.cpp ****         KThread::dispatch();
 214              		.loc 1 39 9 is_stmt 1
 215              		.loc 1 39 26 is_stmt 0
 216 00fc 97000000 		call	_ZN7KThread8dispatchEv@plt
 216      E7800000 
 217              	.LVL16:
GAS LISTING /tmp/ccCSP3vf.s 			page 7


  40:src/KSemaphore.cpp ****     }
  41:src/KSemaphore.cpp **** }
 218              		.loc 1 41 1
 219 0104 83308100 		ld	ra,8(sp)
 220              		.cfi_restore 1
 221 0108 03340100 		ld	s0,0(sp)
 222              		.cfi_restore 8
 223              		.cfi_def_cfa 2, 16
 224 010c 13010101 		addi	sp,sp,16
 225              		.cfi_def_cfa_offset 0
 226 0110 67800000 		jr	ra
 227              		.cfi_endproc
 228              	.LFE16:
 230              		.align	2
 231              		.globl	_ZN10KSemaphore6signalEv
 233              	_ZN10KSemaphore6signalEv:
 234              	.LFB17:
  42:src/KSemaphore.cpp **** 
  43:src/KSemaphore.cpp **** void KSemaphore::signal() {
 235              		.loc 1 43 27 is_stmt 1
 236              		.cfi_startproc
 237              	.LVL17:
  44:src/KSemaphore.cpp ****     val++;
 238              		.loc 1 44 5
 239 0114 83270500 		lw	a5,0(a0)
 240              		.loc 1 44 8 is_stmt 0
 241 0118 9B871700 		addiw	a5,a5,1
 242 011c 1B870700 		sext.w	a4,a5
 243 0120 2320F500 		sw	a5,0(a0)
  45:src/KSemaphore.cpp **** 
  46:src/KSemaphore.cpp ****     if (val <= 0) {
 244              		.loc 1 46 5 is_stmt 1
 245              	.LBB22:
 246 0124 6354E000 		blez	a4,.L26
 247 0128 67800000 		ret
 248              	.L26:
 249              	.LBE22:
  43:src/KSemaphore.cpp ****     val++;
 250              		.loc 1 43 27 is_stmt 0
 251 012c 130101FF 		addi	sp,sp,-16
 252              		.cfi_def_cfa_offset 16
 253 0130 23341100 		sd	ra,8(sp)
 254 0134 23308100 		sd	s0,0(sp)
 255              		.cfi_offset 1, -8
 256              		.cfi_offset 8, -16
 257 0138 13040101 		addi	s0,sp,16
 258              		.cfi_def_cfa 8, 0
 259              	.LBB26:
 260              	.LBB23:
  47:src/KSemaphore.cpp ****         KThread* thread = get();
 261              		.loc 1 47 9 is_stmt 1
 262              		.loc 1 47 30 is_stmt 0
 263 013c 97000000 		call	_ZN10KSemaphore3getEv
 263      E7800000 
 264              	.LVL18:
  48:src/KSemaphore.cpp **** 
  49:src/KSemaphore.cpp ****         if (thread) {
GAS LISTING /tmp/ccCSP3vf.s 			page 8


 265              		.loc 1 49 9 is_stmt 1
 266 0144 630A0500 		beqz	a0,.L20
  50:src/KSemaphore.cpp ****             thread->setState(READY);
 267              		.loc 1 50 13
 268              	.LVL19:
 269              	.LBB24:
 270              	.LBB25:
 271              		.loc 3 40 36
 272              		.loc 3 40 42 is_stmt 0
 273 0148 93071000 		li	a5,1
 274 014c 2328F502 		sw	a5,48(a0)
 275              	.LVL20:
 276              	.LBE25:
 277              	.LBE24:
  51:src/KSemaphore.cpp ****             Scheduler::put(thread);
 278              		.loc 1 51 13 is_stmt 1
 279              		.loc 1 51 27 is_stmt 0
 280 0150 97000000 		call	_ZN9Scheduler3putEP7KThread@plt
 280      E7800000 
 281              	.LVL21:
 282              	.L20:
 283              	.LBE23:
 284              	.LBE26:
  52:src/KSemaphore.cpp ****         }
  53:src/KSemaphore.cpp ****     }
  54:src/KSemaphore.cpp **** }
 285              		.loc 1 54 1
 286 0158 83308100 		ld	ra,8(sp)
 287              		.cfi_restore 1
 288 015c 03340100 		ld	s0,0(sp)
 289              		.cfi_restore 8
 290              		.cfi_def_cfa 2, 16
 291 0160 13010101 		addi	sp,sp,16
 292              		.cfi_def_cfa_offset 0
 293 0164 67800000 		jr	ra
 294              		.cfi_endproc
 295              	.LFE17:
 297              		.align	2
 298              		.globl	_ZN10KSemaphore5closeEv
 300              	_ZN10KSemaphore5closeEv:
 301              	.LFB18:
  55:src/KSemaphore.cpp **** 
  56:src/KSemaphore.cpp **** void KSemaphore::close() {
 302              		.loc 1 56 26 is_stmt 1
 303              		.cfi_startproc
 304              	.LVL22:
 305 0168 130101FE 		addi	sp,sp,-32
 306              		.cfi_def_cfa_offset 32
 307 016c 233C1100 		sd	ra,24(sp)
 308 0170 23388100 		sd	s0,16(sp)
 309 0174 23349100 		sd	s1,8(sp)
 310              		.cfi_offset 1, -8
 311              		.cfi_offset 8, -16
 312              		.cfi_offset 9, -24
 313 0178 13040102 		addi	s0,sp,32
 314              		.cfi_def_cfa 8, 0
 315 017c 93040500 		mv	s1,a0
GAS LISTING /tmp/ccCSP3vf.s 			page 9


 316              	.LVL23:
 317              	.L29:
  57:src/KSemaphore.cpp ****     while (head) {
 318              		.loc 1 57 5
 319              		.loc 1 57 12
 320 0180 83B78400 		ld	a5,8(s1)
 321 0184 63840702 		beqz	a5,.L27
 322              	.LBB27:
  58:src/KSemaphore.cpp ****         KThread* thread = get();
 323              		.loc 1 58 9
 324              		.loc 1 58 30 is_stmt 0
 325 0188 13850400 		mv	a0,s1
 326 018c 97000000 		call	_ZN10KSemaphore3getEv
 326      E7800000 
 327              	.LVL24:
  59:src/KSemaphore.cpp ****         thread->setState(READY);
 328              		.loc 1 59 9 is_stmt 1
 329              	.LBB28:
 330              	.LBB29:
 331              		.loc 3 40 36
 332              		.loc 3 40 42 is_stmt 0
 333 0194 13071000 		li	a4,1
 334 0198 2328E502 		sw	a4,48(a0)
 335              	.LVL25:
 336              	.LBE29:
 337              	.LBE28:
  60:src/KSemaphore.cpp ****         thread->semaphoreNext = nullptr;
 338              		.loc 1 60 9 is_stmt 1
 339              		.loc 1 60 31 is_stmt 0
 340 019c 23300504 		sd	zero,64(a0)
  61:src/KSemaphore.cpp ****         Scheduler::put(thread);
 341              		.loc 1 61 9 is_stmt 1
 342              		.loc 1 61 23 is_stmt 0
 343 01a0 97000000 		call	_ZN9Scheduler3putEP7KThread@plt
 343      E7800000 
 344              	.LVL26:
 345              	.LBE27:
  57:src/KSemaphore.cpp ****         KThread* thread = get();
 346              		.loc 1 57 5
 347 01a8 6FF09FFD 		j	.L29
 348              	.L27:
  62:src/KSemaphore.cpp ****     }
  63:src/KSemaphore.cpp **** }...
 349              		.loc 1 63 1
 350 01ac 83308101 		ld	ra,24(sp)
 351              		.cfi_restore 1
 352 01b0 03340101 		ld	s0,16(sp)
 353              		.cfi_restore 8
 354              		.cfi_def_cfa 2, 32
 355 01b4 83348100 		ld	s1,8(sp)
 356              		.cfi_restore 9
 357              	.LVL27:
 358 01b8 13010102 		addi	sp,sp,32
 359              		.cfi_def_cfa_offset 0
 360 01bc 67800000 		jr	ra
 361              		.cfi_endproc
 362              	.LFE18:
GAS LISTING /tmp/ccCSP3vf.s 			page 10


 364              	.Letext0:
 365              		.file 4 "src/../h/../lib/hw.h"
 366              		.file 5 "src/../h/MemoryAllocator.hpp"
 367              		.file 6 "src/../h/Scheduler.hpp"
GAS LISTING /tmp/ccCSP3vf.s 			page 11


DEFINED SYMBOLS
                            *ABS*:0000000000000000 KSemaphore.cpp
     /tmp/ccCSP3vf.s:9      .text:0000000000000000 _ZN10KSemaphore15createSemaphoreEm
     /tmp/ccCSP3vf.s:13     .text:0000000000000000 .L0 
     /tmp/ccCSP3vf.s:15     .text:0000000000000000 .L0 
     /tmp/ccCSP3vf.s:16     .text:0000000000000004 .L0 
     /tmp/ccCSP3vf.s:20     .text:0000000000000010 .L0 
     /tmp/ccCSP3vf.s:21     .text:0000000000000010 .L0 
     /tmp/ccCSP3vf.s:22     .text:0000000000000010 .L0 
     /tmp/ccCSP3vf.s:24     .text:0000000000000014 .L0 
     /tmp/ccCSP3vf.s:31     .text:0000000000000018 .L0 
     /tmp/ccCSP3vf.s:32     .text:0000000000000018 .L0 
     /tmp/ccCSP3vf.s:33     .text:0000000000000018 .L0 
     /tmp/ccCSP3vf.s:34     .text:0000000000000018 .L0 
     /tmp/ccCSP3vf.s:35     .text:0000000000000018 .L0 
     /tmp/ccCSP3vf.s:36     .text:0000000000000018 .L0 
     /tmp/ccCSP3vf.s:45     .text:0000000000000024 .L0 
     /tmp/ccCSP3vf.s:52     .text:0000000000000030 .L0 
     /tmp/ccCSP3vf.s:53     .text:0000000000000034 .L0 
     /tmp/ccCSP3vf.s:55     .text:0000000000000038 .L0 
     /tmp/ccCSP3vf.s:56     .text:0000000000000038 .L0 
     /tmp/ccCSP3vf.s:58     .text:000000000000003c .L0 
     /tmp/ccCSP3vf.s:61     .text:0000000000000040 .L0 
     /tmp/ccCSP3vf.s:63     .text:0000000000000044 .L0 
     /tmp/ccCSP3vf.s:69     .text:0000000000000044 _ZN10KSemaphore3getEv
     /tmp/ccCSP3vf.s:72     .text:0000000000000044 .L0 
     /tmp/ccCSP3vf.s:74     .text:0000000000000044 .L0 
     /tmp/ccCSP3vf.s:75     .text:0000000000000048 .L0 
     /tmp/ccCSP3vf.s:77     .text:000000000000004c .L0 
     /tmp/ccCSP3vf.s:79     .text:0000000000000050 .L0 
     /tmp/ccCSP3vf.s:82     .text:0000000000000054 .L0 
     /tmp/ccCSP3vf.s:83     .text:0000000000000054 .L0 
     /tmp/ccCSP3vf.s:86     .text:0000000000000058 .L0 
     /tmp/ccCSP3vf.s:89     .text:000000000000005c .L0 
     /tmp/ccCSP3vf.s:90     .text:000000000000005c .L0 
     /tmp/ccCSP3vf.s:91     .text:000000000000005c .L0 
     /tmp/ccCSP3vf.s:93     .text:0000000000000060 .L0 
     /tmp/ccCSP3vf.s:95     .text:0000000000000064 .L0 
     /tmp/ccCSP3vf.s:98     .text:0000000000000068 .L0 
     /tmp/ccCSP3vf.s:99     .text:0000000000000068 .L0 
     /tmp/ccCSP3vf.s:103    .text:000000000000006c .L0 
     /tmp/ccCSP3vf.s:104    .text:000000000000006c .L0 
     /tmp/ccCSP3vf.s:105    .text:0000000000000070 .L0 
     /tmp/ccCSP3vf.s:106    .text:0000000000000070 .L0 
     /tmp/ccCSP3vf.s:107    .text:0000000000000070 .L0 
     /tmp/ccCSP3vf.s:109    .text:0000000000000074 .L0 
     /tmp/ccCSP3vf.s:113    .text:0000000000000078 .L0 
     /tmp/ccCSP3vf.s:115    .text:0000000000000078 .L0 
     /tmp/ccCSP3vf.s:116    .text:0000000000000078 .L0 
     /tmp/ccCSP3vf.s:118    .text:0000000000000080 .L0 
     /tmp/ccCSP3vf.s:124    .text:0000000000000080 _ZN10KSemaphore3putEP7KThread
     /tmp/ccCSP3vf.s:127    .text:0000000000000080 .L0 
     /tmp/ccCSP3vf.s:129    .text:0000000000000080 .L0 
     /tmp/ccCSP3vf.s:130    .text:0000000000000084 .L0 
     /tmp/ccCSP3vf.s:132    .text:0000000000000088 .L0 
     /tmp/ccCSP3vf.s:134    .text:000000000000008c .L0 
     /tmp/ccCSP3vf.s:136    .text:000000000000008c .L0 
GAS LISTING /tmp/ccCSP3vf.s 			page 12


     /tmp/ccCSP3vf.s:137    .text:000000000000008c .L0 
     /tmp/ccCSP3vf.s:139    .text:0000000000000090 .L0 
     /tmp/ccCSP3vf.s:141    .text:0000000000000094 .L0 
     /tmp/ccCSP3vf.s:143    .text:0000000000000098 .L0 
     /tmp/ccCSP3vf.s:146    .text:000000000000009c .L0 
     /tmp/ccCSP3vf.s:147    .text:000000000000009c .L0 
     /tmp/ccCSP3vf.s:149    .text:00000000000000a0 .L0 
     /tmp/ccCSP3vf.s:150    .text:00000000000000a0 .L0 
     /tmp/ccCSP3vf.s:152    .text:00000000000000a4 .L0 
     /tmp/ccCSP3vf.s:153    .text:00000000000000a8 .L0 
     /tmp/ccCSP3vf.s:154    .text:00000000000000a8 .L0 
     /tmp/ccCSP3vf.s:155    .text:00000000000000a8 .L0 
     /tmp/ccCSP3vf.s:157    .text:00000000000000ac .L0 
     /tmp/ccCSP3vf.s:160    .text:00000000000000b0 .L0 
     /tmp/ccCSP3vf.s:162    .text:00000000000000b0 .L0 
     /tmp/ccCSP3vf.s:163    .text:00000000000000b0 .L0 
     /tmp/ccCSP3vf.s:165    .text:00000000000000b8 .L0 
     /tmp/ccCSP3vf.s:171    .text:00000000000000b8 _ZN10KSemaphore4waitEv
     /tmp/ccCSP3vf.s:174    .text:00000000000000b8 .L0 
     /tmp/ccCSP3vf.s:176    .text:00000000000000b8 .L0 
     /tmp/ccCSP3vf.s:177    .text:00000000000000b8 .L0 
     /tmp/ccCSP3vf.s:179    .text:00000000000000bc .L0 
     /tmp/ccCSP3vf.s:182    .text:00000000000000c4 .L0 
     /tmp/ccCSP3vf.s:187    .text:00000000000000d0 .L0 
     /tmp/ccCSP3vf.s:188    .text:00000000000000d4 .L0 
     /tmp/ccCSP3vf.s:191    .text:00000000000000dc .L0 
     /tmp/ccCSP3vf.s:192    .text:00000000000000dc .L0 
     /tmp/ccCSP3vf.s:194    .text:00000000000000e0 .L0 
     /tmp/ccCSP3vf.s:196    .text:00000000000000e0 .L0 
     /tmp/ccCSP3vf.s:197    .text:00000000000000e0 .L0 
     /tmp/ccCSP3vf.s:204    .text:00000000000000ec .L0 
     /tmp/ccCSP3vf.s:205    .text:00000000000000ec .L0 
     /tmp/ccCSP3vf.s:211    .text:00000000000000f4 .L0 
     /tmp/ccCSP3vf.s:212    .text:00000000000000f4 .L0 
     /tmp/ccCSP3vf.s:215    .text:00000000000000fc .L0 
     /tmp/ccCSP3vf.s:216    .text:00000000000000fc .L0 
     /tmp/ccCSP3vf.s:219    .text:0000000000000104 .L0 
     /tmp/ccCSP3vf.s:220    .text:0000000000000108 .L0 
     /tmp/ccCSP3vf.s:222    .text:000000000000010c .L0 
     /tmp/ccCSP3vf.s:223    .text:000000000000010c .L0 
     /tmp/ccCSP3vf.s:225    .text:0000000000000110 .L0 
     /tmp/ccCSP3vf.s:227    .text:0000000000000114 .L0 
     /tmp/ccCSP3vf.s:233    .text:0000000000000114 _ZN10KSemaphore6signalEv
     /tmp/ccCSP3vf.s:236    .text:0000000000000114 .L0 
     /tmp/ccCSP3vf.s:238    .text:0000000000000114 .L0 
     /tmp/ccCSP3vf.s:239    .text:0000000000000114 .L0 
     /tmp/ccCSP3vf.s:241    .text:0000000000000118 .L0 
     /tmp/ccCSP3vf.s:246    .text:0000000000000124 .L0 
     /tmp/ccCSP3vf.s:251    .text:000000000000012c .L0 
     /tmp/ccCSP3vf.s:252    .text:0000000000000130 .L0 
     /tmp/ccCSP3vf.s:255    .text:0000000000000138 .L0 
     /tmp/ccCSP3vf.s:256    .text:0000000000000138 .L0 
     /tmp/ccCSP3vf.s:258    .text:000000000000013c .L0 
     /tmp/ccCSP3vf.s:262    .text:000000000000013c .L0 
     /tmp/ccCSP3vf.s:263    .text:000000000000013c .L0 
     /tmp/ccCSP3vf.s:266    .text:0000000000000144 .L0 
     /tmp/ccCSP3vf.s:271    .text:0000000000000148 .L0 
GAS LISTING /tmp/ccCSP3vf.s 			page 13


     /tmp/ccCSP3vf.s:272    .text:0000000000000148 .L0 
     /tmp/ccCSP3vf.s:273    .text:0000000000000148 .L0 
     /tmp/ccCSP3vf.s:279    .text:0000000000000150 .L0 
     /tmp/ccCSP3vf.s:280    .text:0000000000000150 .L0 
     /tmp/ccCSP3vf.s:286    .text:0000000000000158 .L0 
     /tmp/ccCSP3vf.s:287    .text:000000000000015c .L0 
     /tmp/ccCSP3vf.s:289    .text:0000000000000160 .L0 
     /tmp/ccCSP3vf.s:290    .text:0000000000000160 .L0 
     /tmp/ccCSP3vf.s:292    .text:0000000000000164 .L0 
     /tmp/ccCSP3vf.s:294    .text:0000000000000168 .L0 
     /tmp/ccCSP3vf.s:300    .text:0000000000000168 _ZN10KSemaphore5closeEv
     /tmp/ccCSP3vf.s:303    .text:0000000000000168 .L0 
     /tmp/ccCSP3vf.s:305    .text:0000000000000168 .L0 
     /tmp/ccCSP3vf.s:306    .text:000000000000016c .L0 
     /tmp/ccCSP3vf.s:310    .text:0000000000000178 .L0 
     /tmp/ccCSP3vf.s:311    .text:0000000000000178 .L0 
     /tmp/ccCSP3vf.s:312    .text:0000000000000178 .L0 
     /tmp/ccCSP3vf.s:314    .text:000000000000017c .L0 
     /tmp/ccCSP3vf.s:319    .text:0000000000000180 .L0 
     /tmp/ccCSP3vf.s:320    .text:0000000000000180 .L0 
     /tmp/ccCSP3vf.s:324    .text:0000000000000188 .L0 
     /tmp/ccCSP3vf.s:325    .text:0000000000000188 .L0 
     /tmp/ccCSP3vf.s:331    .text:0000000000000194 .L0 
     /tmp/ccCSP3vf.s:332    .text:0000000000000194 .L0 
     /tmp/ccCSP3vf.s:333    .text:0000000000000194 .L0 
     /tmp/ccCSP3vf.s:339    .text:000000000000019c .L0 
     /tmp/ccCSP3vf.s:340    .text:000000000000019c .L0 
     /tmp/ccCSP3vf.s:342    .text:00000000000001a0 .L0 
     /tmp/ccCSP3vf.s:343    .text:00000000000001a0 .L0 
     /tmp/ccCSP3vf.s:347    .text:00000000000001a8 .L0 
     /tmp/ccCSP3vf.s:350    .text:00000000000001ac .L0 
     /tmp/ccCSP3vf.s:351    .text:00000000000001b0 .L0 
     /tmp/ccCSP3vf.s:353    .text:00000000000001b4 .L0 
     /tmp/ccCSP3vf.s:354    .text:00000000000001b4 .L0 
     /tmp/ccCSP3vf.s:356    .text:00000000000001b8 .L0 
     /tmp/ccCSP3vf.s:359    .text:00000000000001bc .L0 
     /tmp/ccCSP3vf.s:361    .text:00000000000001c0 .L0 
     /tmp/ccCSP3vf.s:368    .text:00000000000001c0 .L0 
     /tmp/ccCSP3vf.s:197    .text:00000000000000e0 .L0 
     /tmp/ccCSP3vf.s:102    .text:000000000000006c .L3
     /tmp/ccCSP3vf.s:112    .text:0000000000000078 .L7
     /tmp/ccCSP3vf.s:96     .text:0000000000000068 .L5
     /tmp/ccCSP3vf.s:159    .text:00000000000000b0 .L12
     /tmp/ccCSP3vf.s:144    .text:000000000000009c .L10
     /tmp/ccCSP3vf.s:185    .text:00000000000000d0 .L19
     /tmp/ccCSP3vf.s:248    .text:000000000000012c .L26
     /tmp/ccCSP3vf.s:282    .text:0000000000000158 .L20
     /tmp/ccCSP3vf.s:348    .text:00000000000001ac .L27
     /tmp/ccCSP3vf.s:317    .text:0000000000000180 .L29
     /tmp/ccCSP3vf.s:1499   .debug_abbrev:0000000000000000 .Ldebug_abbrev0
     /tmp/ccCSP3vf.s:2841   .debug_str:00000000000005d3 .LASF103
     /tmp/ccCSP3vf.s:2753   .debug_str:000000000000034c .LASF104
     /tmp/ccCSP3vf.s:2701   .debug_str:0000000000000178 .LASF105
     /tmp/ccCSP3vf.s:5      .text:0000000000000000 .Ltext0
     /tmp/ccCSP3vf.s:364    .text:00000000000001c0 .Letext0
     /tmp/ccCSP3vf.s:2647   .debug_line:0000000000000000 .Ldebug_line0
     /tmp/ccCSP3vf.s:2767   .debug_str:00000000000003a7 .LASF0
GAS LISTING /tmp/ccCSP3vf.s 			page 14


     /tmp/ccCSP3vf.s:2783   .debug_str:0000000000000404 .LASF1
     /tmp/ccCSP3vf.s:2751   .debug_str:000000000000033e .LASF2
     /tmp/ccCSP3vf.s:2727   .debug_str:00000000000002a3 .LASF4
     /tmp/ccCSP3vf.s:2825   .debug_str:000000000000054a .LASF3
     /tmp/ccCSP3vf.s:2661   .debug_str:000000000000005d .LASF5
     /tmp/ccCSP3vf.s:2787   .debug_str:0000000000000437 .LASF6
     /tmp/ccCSP3vf.s:2765   .debug_str:0000000000000394 .LASF7
     /tmp/ccCSP3vf.s:2853   .debug_str:0000000000000718 .LASF8
     /tmp/ccCSP3vf.s:2711   .debug_str:0000000000000202 .LASF9
     /tmp/ccCSP3vf.s:2803   .debug_str:0000000000000495 .LASF10
     /tmp/ccCSP3vf.s:2845   .debug_str:00000000000006c3 .LASF11
     /tmp/ccCSP3vf.s:2663   .debug_str:0000000000000064 .LASF12
     /tmp/ccCSP3vf.s:2653   .debug_str:0000000000000029 .LASF13
     /tmp/ccCSP3vf.s:2673   .debug_str:00000000000000c4 .LASF14
     /tmp/ccCSP3vf.s:2819   .debug_str:0000000000000512 .LASF15
     /tmp/ccCSP3vf.s:2681   .debug_str:0000000000000110 .LASF16
     /tmp/ccCSP3vf.s:2665   .debug_str:0000000000000074 .LASF19
     /tmp/ccCSP3vf.s:2877   .debug_str:0000000000000804 .LASF17
     /tmp/ccCSP3vf.s:2835   .debug_str:00000000000005aa .LASF18
     /tmp/ccCSP3vf.s:2749   .debug_str:000000000000032e .LASF28
     /tmp/ccCSP3vf.s:2683   .debug_str:0000000000000126 .LASF62
     /tmp/ccCSP3vf.s:2785   .debug_str:0000000000000417 .LASF64
     /tmp/ccCSP3vf.s:2827   .debug_str:000000000000055c .LASF20
     /tmp/ccCSP3vf.s:2833   .debug_str:0000000000000589 .LASF22
     /tmp/ccCSP3vf.s:2805   .debug_str:00000000000004a4 .LASF21
     /tmp/ccCSP3vf.s:2709   .debug_str:00000000000001e1 .LASF23
     /tmp/ccCSP3vf.s:2865   .debug_str:0000000000000795 .LASF24
     /tmp/ccCSP3vf.s:2677   .debug_str:00000000000000dd .LASF26
     /tmp/ccCSP3vf.s:2861   .debug_str:000000000000076c .LASF25
     /tmp/ccCSP3vf.s:2725   .debug_str:0000000000000270 .LASF27
     /tmp/ccCSP3vf.s:2675   .debug_str:00000000000000d0 .LASF98
     /tmp/ccCSP3vf.s:2695   .debug_str:0000000000000164 .LASF86
     /tmp/ccCSP3vf.s:2847   .debug_str:00000000000006d2 .LASF88
     /tmp/ccCSP3vf.s:2689   .debug_str:0000000000000148 .LASF29
     /tmp/ccCSP3vf.s:2869   .debug_str:00000000000007b0 .LASF30
     /tmp/ccCSP3vf.s:2879   .debug_str:0000000000000809 .LASF31
     /tmp/ccCSP3vf.s:2697   .debug_str:000000000000016e .LASF32
     /tmp/ccCSP3vf.s:2715   .debug_str:0000000000000215 .LASF33
     /tmp/ccCSP3vf.s:2793   .debug_str:0000000000000468 .LASF34
     /tmp/ccCSP3vf.s:2789   .debug_str:000000000000044a .LASF35
     /tmp/ccCSP3vf.s:2649   .debug_str:0000000000000000 .LASF36
     /tmp/ccCSP3vf.s:2875   .debug_str:00000000000007ec .LASF37
     /tmp/ccCSP3vf.s:2669   .debug_str:00000000000000a1 .LASF38
     /tmp/ccCSP3vf.s:2811   .debug_str:00000000000004e0 .LASF39
     /tmp/ccCSP3vf.s:2829   .debug_str:0000000000000566 .LASF42
     /tmp/ccCSP3vf.s:2741   .debug_str:00000000000002e8 .LASF44
     /tmp/ccCSP3vf.s:2707   .debug_str:00000000000001d1 .LASF40
     /tmp/ccCSP3vf.s:2687   .debug_str:0000000000000134 .LASF41
     /tmp/ccCSP3vf.s:2731   .debug_str:00000000000002b2 .LASF43
     /tmp/ccCSP3vf.s:2777   .debug_str:00000000000003e0 .LASF45
     /tmp/ccCSP3vf.s:2703   .debug_str:0000000000000196 .LASF46
     /tmp/ccCSP3vf.s:2685   .debug_str:000000000000012f .LASF47
     /tmp/ccCSP3vf.s:2757   .debug_str:000000000000036b .LASF48
     /tmp/ccCSP3vf.s:2655   .debug_str:0000000000000039 .LASF106
     /tmp/ccCSP3vf.s:2747   .debug_str:0000000000000310 .LASF107
     /tmp/ccCSP3vf.s:2691   .debug_str:0000000000000153 .LASF49
     /tmp/ccCSP3vf.s:2657   .debug_str:000000000000004f .LASF50
GAS LISTING /tmp/ccCSP3vf.s 			page 15


     /tmp/ccCSP3vf.s:2693   .debug_str:000000000000015b .LASF51
     /tmp/ccCSP3vf.s:2867   .debug_str:00000000000007a8 .LASF52
     /tmp/ccCSP3vf.s:2817   .debug_str:0000000000000509 .LASF53
     /tmp/ccCSP3vf.s:2815   .debug_str:00000000000004f9 .LASF54
     /tmp/ccCSP3vf.s:2739   .debug_str:00000000000002db .LASF55
     /tmp/ccCSP3vf.s:2705   .debug_str:00000000000001aa .LASF56
     /tmp/ccCSP3vf.s:2813   .debug_str:00000000000004f4 .LASF108
     /tmp/ccCSP3vf.s:2667   .debug_str:0000000000000080 .LASF57
     /tmp/ccCSP3vf.s:2781   .debug_str:00000000000003fe .LASF58
     /tmp/ccCSP3vf.s:2839   .debug_str:00000000000005bf .LASF59
     /tmp/ccCSP3vf.s:2745   .debug_str:000000000000030b .LASF60
     /tmp/ccCSP3vf.s:2831   .debug_str:0000000000000576 .LASF61
     /tmp/ccCSP3vf.s:2881   .debug_str:000000000000082c .LASF63
     /tmp/ccCSP3vf.s:2671   .debug_str:00000000000000ae .LASF65
     /tmp/ccCSP3vf.s:2737   .debug_str:00000000000002d2 .LASF109
     /tmp/ccCSP3vf.s:2857   .debug_str:000000000000073f .LASF110
     /tmp/ccCSP3vf.s:2759   .debug_str:0000000000000370 .LASF66
     /tmp/ccCSP3vf.s:2651   .debug_str:0000000000000006 .LASF67
     /tmp/ccCSP3vf.s:2821   .debug_str:0000000000000528 .LASF68
     /tmp/ccCSP3vf.s:2719   .debug_str:000000000000023c .LASF69
     /tmp/ccCSP3vf.s:2769   .debug_str:00000000000003b4 .LASF70
     /tmp/ccCSP3vf.s:2855   .debug_str:0000000000000728 .LASF71
     /tmp/ccCSP3vf.s:2837   .debug_str:00000000000005af .LASF72
     /tmp/ccCSP3vf.s:2851   .debug_str:0000000000000707 .LASF73
     /tmp/ccCSP3vf.s:2717   .debug_str:000000000000022c .LASF74
     /tmp/ccCSP3vf.s:2871   .debug_str:00000000000007c0 .LASF75
     /tmp/ccCSP3vf.s:2873   .debug_str:00000000000007d1 .LASF76
     /tmp/ccCSP3vf.s:2859   .debug_str:0000000000000757 .LASF77
     /tmp/ccCSP3vf.s:2733   .debug_str:00000000000002c5 .LASF78
     /tmp/ccCSP3vf.s:2773   .debug_str:00000000000003c3 .LASF79
     /tmp/ccCSP3vf.s:2771   .debug_str:00000000000003bd .LASF80
     /tmp/ccCSP3vf.s:2735   .debug_str:00000000000002ca .LASF81
     /tmp/ccCSP3vf.s:2659   .debug_str:0000000000000057 .LASF82
     /tmp/ccCSP3vf.s:2743   .debug_str:00000000000002fd .LASF83
     /tmp/ccCSP3vf.s:2795   .debug_str:000000000000046f .LASF84
     /tmp/ccCSP3vf.s:2863   .debug_str:0000000000000787 .LASF85
     /tmp/ccCSP3vf.s:2843   .debug_str:0000000000000697 .LASF111
     /tmp/ccCSP3vf.s:2755   .debug_str:000000000000035f .LASF87
     /tmp/ccCSP3vf.s:2809   .debug_str:00000000000004b2 .LASF89
     /tmp/ccCSP3vf.s:2721   .debug_str:0000000000000250 .LASF112
     /tmp/ccCSP3vf.s:2801   .debug_str:000000000000048f .LASF90
     /tmp/ccCSP3vf.s:2797   .debug_str:000000000000047d .LASF91
     /tmp/ccCSP3vf.s:2729   .debug_str:00000000000002aa .LASF92
     /tmp/ccCSP3vf.s:2779   .debug_str:00000000000003f5 .LASF93
     /tmp/ccCSP3vf.s:2791   .debug_str:0000000000000463 .LASF94
     /tmp/ccCSP3vf.s:2799   .debug_str:0000000000000485 .LASF95
     /tmp/ccCSP3vf.s:2723   .debug_str:000000000000025c .LASF113
     /tmp/ccCSP3vf.s:2823   .debug_str:000000000000052e .LASF114
     /tmp/ccCSP3vf.s:2679   .debug_str:0000000000000108 .LASF96
     /tmp/ccCSP3vf.s:2775   .debug_str:00000000000003c8 .LASF97
     /tmp/ccCSP3vf.s:2699   .debug_str:0000000000000173 .LASF99
     /tmp/ccCSP3vf.s:301    .text:0000000000000168 .LFB18
     /tmp/ccCSP3vf.s:362    .text:00000000000001c0 .LFE18
     /tmp/ccCSP3vf.s:2807   .debug_str:00000000000004ad .LASF101
     /tmp/ccCSP3vf.s:2459   .debug_loc:0000000000000000 .LLST14
     /tmp/ccCSP3vf.s:322    .text:0000000000000188 .LBB27
     /tmp/ccCSP3vf.s:345    .text:00000000000001a8 .LBE27
GAS LISTING /tmp/ccCSP3vf.s 			page 16


     /tmp/ccCSP3vf.s:2763   .debug_str:000000000000038d .LASF100
     /tmp/ccCSP3vf.s:2477   .debug_loc:000000000000004c .LLST15
     /tmp/ccCSP3vf.s:329    .text:0000000000000194 .LBB28
     /tmp/ccCSP3vf.s:337    .text:000000000000019c .LBE28
     /tmp/ccCSP3vf.s:2484   .debug_loc:000000000000006f .LLST16
     /tmp/ccCSP3vf.s:2492   .debug_loc:0000000000000093 .LLST17
     /tmp/ccCSP3vf.s:327    .text:0000000000000194 .LVL24
     /tmp/ccCSP3vf.s:344    .text:00000000000001a8 .LVL26
     /tmp/ccCSP3vf.s:234    .text:0000000000000114 .LFB17
     /tmp/ccCSP3vf.s:295    .text:0000000000000168 .LFE17
     /tmp/ccCSP3vf.s:2499   .debug_loc:00000000000000b6 .LLST10
     /tmp/ccCSP3vf.s:260    .text:000000000000013c .LBB23
     /tmp/ccCSP3vf.s:283    .text:0000000000000158 .LBE23
     /tmp/ccCSP3vf.s:2513   .debug_loc:00000000000000ef .LLST11
     /tmp/ccCSP3vf.s:269    .text:0000000000000148 .LBB24
     /tmp/ccCSP3vf.s:277    .text:0000000000000150 .LBE24
     /tmp/ccCSP3vf.s:2520   .debug_loc:0000000000000112 .LLST12
     /tmp/ccCSP3vf.s:2528   .debug_loc:0000000000000136 .LLST13
     /tmp/ccCSP3vf.s:264    .text:0000000000000144 .LVL18
     /tmp/ccCSP3vf.s:281    .text:0000000000000158 .LVL21
     /tmp/ccCSP3vf.s:172    .text:00000000000000b8 .LFB16
     /tmp/ccCSP3vf.s:228    .text:0000000000000114 .LFE16
     /tmp/ccCSP3vf.s:2535   .debug_loc:0000000000000159 .LLST7
     /tmp/ccCSP3vf.s:200    .text:00000000000000ec .LBB20
     /tmp/ccCSP3vf.s:209    .text:00000000000000f4 .LBE20
     /tmp/ccCSP3vf.s:2549   .debug_loc:0000000000000192 .LLST8
     /tmp/ccCSP3vf.s:2557   .debug_loc:00000000000001b6 .LLST9
     /tmp/ccCSP3vf.s:213    .text:00000000000000fc .LVL15
     /tmp/ccCSP3vf.s:217    .text:0000000000000104 .LVL16
     /tmp/ccCSP3vf.s:125    .text:0000000000000080 .LFB15
     /tmp/ccCSP3vf.s:166    .text:00000000000000b8 .LFE15
     /tmp/ccCSP3vf.s:70     .text:0000000000000044 .LFB14
     /tmp/ccCSP3vf.s:119    .text:0000000000000080 .LFE14
     /tmp/ccCSP3vf.s:2564   .debug_loc:00000000000001d9 .LLST5
     /tmp/ccCSP3vf.s:2575   .debug_loc:000000000000020f .LLST6
     /tmp/ccCSP3vf.s:10     .text:0000000000000000 .LFB13
     /tmp/ccCSP3vf.s:64     .text:0000000000000044 .LFE13
     /tmp/ccCSP3vf.s:2713   .debug_str:0000000000000210 .LASF102
     /tmp/ccCSP3vf.s:2586   .debug_loc:0000000000000245 .LLST0
     /tmp/ccCSP3vf.s:28     .text:0000000000000018 .LBB16
     /tmp/ccCSP3vf.s:41     .text:0000000000000024 .LBE16
     /tmp/ccCSP3vf.s:2604   .debug_loc:0000000000000291 .LLST1
     /tmp/ccCSP3vf.s:2612   .debug_loc:00000000000002b5 .LLST2
     /tmp/ccCSP3vf.s:39     .text:0000000000000024 .LVL3
     /tmp/ccCSP3vf.s:42     .text:0000000000000024 .LBB18
     /tmp/ccCSP3vf.s:50     .text:0000000000000030 .LBE18
     /tmp/ccCSP3vf.s:2620   .debug_loc:00000000000002d9 .LLST3
     /tmp/ccCSP3vf.s:2627   .debug_loc:00000000000002fc .LLST4
     /tmp/ccCSP3vf.s:2761   .debug_str:0000000000000379 .LASF115
     /tmp/ccCSP3vf.s:2849   .debug_str:0000000000000700 .LASF116
     /tmp/ccCSP3vf.s:304    .text:0000000000000168 .LVL22
     /tmp/ccCSP3vf.s:316    .text:0000000000000180 .LVL23
     /tmp/ccCSP3vf.s:357    .text:00000000000001b8 .LVL27
     /tmp/ccCSP3vf.s:335    .text:000000000000019c .LVL25
     /tmp/ccCSP3vf.s:237    .text:0000000000000114 .LVL17
     /tmp/ccCSP3vf.s:268    .text:0000000000000148 .LVL19
     /tmp/ccCSP3vf.s:275    .text:0000000000000150 .LVL20
GAS LISTING /tmp/ccCSP3vf.s 			page 17


     /tmp/ccCSP3vf.s:175    .text:00000000000000b8 .LVL12
     /tmp/ccCSP3vf.s:199    .text:00000000000000ec .LVL13
     /tmp/ccCSP3vf.s:207    .text:00000000000000f4 .LVL14
     /tmp/ccCSP3vf.s:73     .text:0000000000000044 .LVL6
     /tmp/ccCSP3vf.s:84     .text:0000000000000058 .LVL7
     /tmp/ccCSP3vf.s:88     .text:000000000000005c .LVL8
     /tmp/ccCSP3vf.s:101    .text:000000000000006c .LVL9
     /tmp/ccCSP3vf.s:111    .text:0000000000000078 .LVL10
     /tmp/ccCSP3vf.s:14     .text:0000000000000000 .LVL0
     /tmp/ccCSP3vf.s:37     .text:000000000000001c .LVL2
     /tmp/ccCSP3vf.s:59     .text:000000000000003c .LVL5
     /tmp/ccCSP3vf.s:27     .text:0000000000000018 .LVL1
     /tmp/ccCSP3vf.s:48     .text:0000000000000030 .LVL4
     /tmp/ccCSP3vf.s:369    .debug_info:0000000000000000 .Ldebug_info0

UNDEFINED SYMBOLS
_ZN15MemoryAllocator9mem_allocEm
_ZN7KThread7runningE
_ZN7KThread8dispatchEv
_ZN9Scheduler3putEP7KThread
