GAS LISTING /tmp/ccyKCoXx.s 			page 1


   1              		.file	"KThread.cpp"
   2              		.option pic
   3              		.option norelax
   4              		.text
   5              	.Ltext0:
   6              		.align	2
   7              		.globl	_ZN7KThreadC2EPFvPvES0_S0_
   9              	_ZN7KThreadC2EPFvPvES0_S0_:
  10              	.LFB23:
  11              		.file 1 "src/KThread.cpp"
   1:src/KThread.cpp **** //
   2:src/KThread.cpp **** // Created by os on 10/8/25.
   3:src/KThread.cpp **** //
   4:src/KThread.cpp **** 
   5:src/KThread.cpp **** #include "../h/KThread.hpp"
   6:src/KThread.cpp **** #include "../h/Scheduler.hpp"
   7:src/KThread.cpp **** #include "../h/Riscv.hpp"
   8:src/KThread.cpp **** #include "../lib/hw.h"
   9:src/KThread.cpp **** 
  10:src/KThread.cpp **** KThread* KThread::running = nullptr;
  11:src/KThread.cpp **** 
  12:src/KThread.cpp **** int KThread::staticId = 0;
  13:src/KThread.cpp **** 
  14:src/KThread.cpp **** KThread::KThread(Body body, void* args, void* stack)
  12              		.loc 1 14 1
  13              		.cfi_startproc
  14              	.LVL0:
  15 0000 130101FF 		addi	sp,sp,-16
  16              		.cfi_def_cfa_offset 16
  17 0004 23348100 		sd	s0,8(sp)
  18              		.cfi_offset 8, -8
  19 0008 13040101 		addi	s0,sp,16
  20              		.cfi_def_cfa 8, 0
  21              	.LBB8:
  15:src/KThread.cpp ****     : body(body), id(staticId++), args(args), stack(body != nullptr ? (char*)stack : nullptr),
  16:src/KThread.cpp ****     context({body != nullptr ? (uint64)&wrapper : 0, stack != nullptr ? (uint64)&this->stack[DEFAUL
  17:src/KThread.cpp ****     state(NEW) {
  22              		.loc 1 17 14 is_stmt 0
  23 000c 2330B500 		sd	a1,0(a0)
  15:src/KThread.cpp ****     : body(body), id(staticId++), args(args), stack(body != nullptr ? (char*)stack : nullptr),
  24              		.loc 1 15 30
  25 0010 17070000 		lla	a4,.LANCHOR0
  25      13070700 
  26 0018 83270700 		lw	a5,0(a4)
  27 001c 1B881700 		addiw	a6,a5,1
  28 0020 23200701 		sw	a6,0(a4)
  29              		.loc 1 17 14
  30 0024 2324F500 		sw	a5,8(a0)
  31 0028 2338C500 		sd	a2,16(a0)
  15:src/KThread.cpp ****     : body(body), id(staticId++), args(args), stack(body != nullptr ? (char*)stack : nullptr),
  32              		.loc 1 15 69
  33 002c 638E0502 		beqz	a1,.L5
  34 0030 93870600 		mv	a5,a3
  35              	.L2:
  36              		.loc 1 17 14
  37 0034 233CF500 		sd	a5,24(a0)
  16:src/KThread.cpp ****     state(NEW) {
GAS LISTING /tmp/ccyKCoXx.s 			page 2


  38              		.loc 1 16 30
  39 0038 638C0502 		beqz	a1,.L6
  16:src/KThread.cpp ****     state(NEW) {
  40              		.loc 1 16 30 discriminator 1
  41 003c 17070000 		lla	a4,_ZN7KThread7wrapperEv
  41      13070700 
  42              	.L3:
  43              		.loc 1 17 14 discriminator 4
  44 0044 2330E502 		sd	a4,32(a0)
  16:src/KThread.cpp ****     state(NEW) {
  45              		.loc 1 16 71 discriminator 4
  46 0048 63880602 		beqz	a3,.L7
  16:src/KThread.cpp ****     state(NEW) {
  47              		.loc 1 16 81 discriminator 5
  48 004c 37170000 		li	a4,4096
  49 0050 B387E700 		add	a5,a5,a4
  50              	.L4:
  51              		.loc 1 17 14
  52 0054 2334F502 		sd	a5,40(a0)
  53 0058 23280502 		sw	zero,48(a0)
  18:src/KThread.cpp ****     if (body != nullptr) {
  54              		.loc 1 18 5 is_stmt 1
  55              	.LBE8:
  19:src/KThread.cpp ****         //Scheduler::put(this);
  20:src/KThread.cpp ****     }
  21:src/KThread.cpp **** }
  56              		.loc 1 21 1 is_stmt 0
  57 005c 03348100 		ld	s0,8(sp)
  58              		.cfi_remember_state
  59              		.cfi_restore 8
  60              		.cfi_def_cfa 2, 16
  61 0060 13010101 		addi	sp,sp,16
  62              		.cfi_def_cfa_offset 0
  63 0064 67800000 		jr	ra
  64              	.L5:
  65              		.cfi_restore_state
  66              	.LBB9:
  15:src/KThread.cpp ****     context({body != nullptr ? (uint64)&wrapper : 0, stack != nullptr ? (uint64)&this->stack[DEFAUL
  67              		.loc 1 15 69
  68 0068 93070000 		li	a5,0
  69 006c 6FF09FFC 		j	.L2
  70              	.L6:
  16:src/KThread.cpp ****     state(NEW) {
  71              		.loc 1 16 30
  72 0070 13070000 		li	a4,0
  73 0074 6FF01FFD 		j	.L3
  74              	.L7:
  16:src/KThread.cpp ****     state(NEW) {
  75              		.loc 1 16 71
  76 0078 93070000 		li	a5,0
  77 007c 6FF09FFD 		j	.L4
  78              	.LBE9:
  79              		.cfi_endproc
  80              	.LFE23:
  82              		.globl	_ZN7KThreadC1EPFvPvES0_S0_
  83              		.set	_ZN7KThreadC1EPFvPvES0_S0_,_ZN7KThreadC2EPFvPvES0_S0_
  84              		.align	2
GAS LISTING /tmp/ccyKCoXx.s 			page 3


  85              		.globl	_ZN7KThreadC2EPFvPvE
  87              	_ZN7KThreadC2EPFvPvE:
  88              	.LFB26:
  22:src/KThread.cpp **** 
  23:src/KThread.cpp **** KThread::KThread(Body body)
  89              		.loc 1 23 1 is_stmt 1
  90              		.cfi_startproc
  91              	.LVL1:
  92 0080 130101FE 		addi	sp,sp,-32
  93              		.cfi_def_cfa_offset 32
  94 0084 233C1100 		sd	ra,24(sp)
  95 0088 23388100 		sd	s0,16(sp)
  96 008c 23349100 		sd	s1,8(sp)
  97 0090 23302101 		sd	s2,0(sp)
  98              		.cfi_offset 1, -8
  99              		.cfi_offset 8, -16
 100              		.cfi_offset 9, -24
 101              		.cfi_offset 18, -32
 102 0094 13040102 		addi	s0,sp,32
 103              		.cfi_def_cfa 8, 0
 104 0098 93040500 		mv	s1,a0
 105 009c 13890500 		mv	s2,a1
 106              	.LBB10:
  24:src/KThread.cpp ****     : body(body), id(staticId++), args(nullptr), stack(body != nullptr ? new char[DEFAULT_STACK_SIZ
  25:src/KThread.cpp ****     context({body != nullptr ? (uint64)&wrapper : 0, stack != nullptr ? (uint64) &stack[DEFAULT_STA
  26:src/KThread.cpp ****     state(NEW) {
 107              		.loc 1 26 14 is_stmt 0
 108 00a0 2330B500 		sd	a1,0(a0)
  24:src/KThread.cpp ****     : body(body), id(staticId++), args(nullptr), stack(body != nullptr ? new char[DEFAULT_STACK_SIZ
 109              		.loc 1 24 30
 110 00a4 17070000 		lla	a4,.LANCHOR0
 110      13070700 
 111 00ac 83270700 		lw	a5,0(a4)
 112 00b0 9B861700 		addiw	a3,a5,1
 113 00b4 2320D700 		sw	a3,0(a4)
 114              		.loc 1 26 14
 115 00b8 2324F500 		sw	a5,8(a0)
 116 00bc 23380500 		sd	zero,16(a0)
  24:src/KThread.cpp ****     : body(body), id(staticId++), args(nullptr), stack(body != nullptr ? new char[DEFAULT_STACK_SIZ
 117              		.loc 1 24 72
 118 00c0 63880504 		beqz	a1,.L13
  24:src/KThread.cpp ****     : body(body), id(staticId++), args(nullptr), stack(body != nullptr ? new char[DEFAULT_STACK_SIZ
 119              		.loc 1 24 101 discriminator 1
 120 00c4 37150000 		li	a0,4096
 121              	.LVL2:
 122 00c8 97000000 		call	_Znam@plt
 122      E7800000 
 123              	.LVL3:
 124              	.L10:
 125              		.loc 1 26 14
 126 00d0 23BCA400 		sd	a0,24(s1)
  25:src/KThread.cpp ****     state(NEW) {
 127              		.loc 1 25 30
 128 00d4 63020904 		beqz	s2,.L14
  25:src/KThread.cpp ****     state(NEW) {
 129              		.loc 1 25 30 discriminator 1
 130 00d8 97070000 		lla	a5,_ZN7KThread7wrapperEv
GAS LISTING /tmp/ccyKCoXx.s 			page 4


 130      93870700 
 131              	.L11:
 132              		.loc 1 26 14 discriminator 4
 133 00e0 23B0F402 		sd	a5,32(s1)
  25:src/KThread.cpp ****     state(NEW) {
 134              		.loc 1 25 71 discriminator 4
 135 00e4 630E0502 		beqz	a0,.L15
  25:src/KThread.cpp ****     state(NEW) {
 136              		.loc 1 25 82 discriminator 5
 137 00e8 B7170000 		li	a5,4096
 138 00ec 3305F500 		add	a0,a0,a5
 139              	.L12:
 140              		.loc 1 26 14
 141 00f0 23B4A402 		sd	a0,40(s1)
 142 00f4 23A80402 		sw	zero,48(s1)
  27:src/KThread.cpp ****     if (body != nullptr) {
 143              		.loc 1 27 5 is_stmt 1
 144              	.LBE10:
  28:src/KThread.cpp ****         //Scheduler::put(this);
  29:src/KThread.cpp ****     }
  30:src/KThread.cpp **** }
 145              		.loc 1 30 1 is_stmt 0
 146 00f8 83308101 		ld	ra,24(sp)
 147              		.cfi_remember_state
 148              		.cfi_restore 1
 149 00fc 03340101 		ld	s0,16(sp)
 150              		.cfi_restore 8
 151              		.cfi_def_cfa 2, 32
 152 0100 83348100 		ld	s1,8(sp)
 153              		.cfi_restore 9
 154              	.LVL4:
 155 0104 03390100 		ld	s2,0(sp)
 156              		.cfi_restore 18
 157              	.LVL5:
 158 0108 13010102 		addi	sp,sp,32
 159              		.cfi_def_cfa_offset 0
 160 010c 67800000 		jr	ra
 161              	.LVL6:
 162              	.L13:
 163              		.cfi_restore_state
 164              	.LBB11:
  24:src/KThread.cpp ****     context({body != nullptr ? (uint64)&wrapper : 0, stack != nullptr ? (uint64) &stack[DEFAULT_STA
 165              		.loc 1 24 72
 166 0110 13050000 		li	a0,0
 167 0114 6FF0DFFB 		j	.L10
 168              	.LVL7:
 169              	.L14:
  25:src/KThread.cpp ****     state(NEW) {
 170              		.loc 1 25 30
 171 0118 93070000 		li	a5,0
 172 011c 6FF05FFC 		j	.L11
 173              	.L15:
  25:src/KThread.cpp ****     state(NEW) {
 174              		.loc 1 25 71
 175 0120 13050000 		li	a0,0
 176 0124 6FF0DFFC 		j	.L12
 177              	.LBE11:
GAS LISTING /tmp/ccyKCoXx.s 			page 5


 178              		.cfi_endproc
 179              	.LFE26:
 181              		.globl	_ZN7KThreadC1EPFvPvE
 182              		.set	_ZN7KThreadC1EPFvPvE,_ZN7KThreadC2EPFvPvE
 183              		.align	2
 184              		.globl	_ZN7KThreadD2Ev
 186              	_ZN7KThreadD2Ev:
 187              	.LFB29:
  31:src/KThread.cpp **** 
  32:src/KThread.cpp **** KThread::~KThread() {
 188              		.loc 1 32 1 is_stmt 1
 189              		.cfi_startproc
 190              		.cfi_personality 0x9b,DW.ref.__gxx_personality_v0
 191              		.cfi_lsda 0x1b,.LLSDA29
 192              	.LVL8:
 193 0128 130101FF 		addi	sp,sp,-16
 194              		.cfi_def_cfa_offset 16
 195 012c 23341100 		sd	ra,8(sp)
 196 0130 23308100 		sd	s0,0(sp)
 197              		.cfi_offset 1, -8
 198              		.cfi_offset 8, -16
 199 0134 13040101 		addi	s0,sp,16
 200              		.cfi_def_cfa 8, 0
 201              	.LBB12:
  33:src/KThread.cpp ****     MemoryAllocator::mem_free(stack);
 202              		.loc 1 33 5
 203              		.loc 1 33 30 is_stmt 0
 204 0138 03358501 		ld	a0,24(a0)
 205              	.LVL9:
 206 013c 97000000 		call	_ZN15MemoryAllocator8mem_freeEPv@plt
 206      E7800000 
 207              	.LVL10:
  34:src/KThread.cpp ****     stack = nullptr;
 208              		.loc 1 34 5 is_stmt 1
 209              	.LBE12:
  35:src/KThread.cpp **** }
 210              		.loc 1 35 1 is_stmt 0
 211 0144 83308100 		ld	ra,8(sp)
 212              		.cfi_restore 1
 213 0148 03340100 		ld	s0,0(sp)
 214              		.cfi_restore 8
 215              		.cfi_def_cfa 2, 16
 216 014c 13010101 		addi	sp,sp,16
 217              		.cfi_def_cfa_offset 0
 218 0150 67800000 		jr	ra
 219              		.cfi_endproc
 220              	.LFE29:
 221              		.globl	__gxx_personality_v0
 222              		.section	.gcc_except_table,"a",@progbits
 223              	.LLSDA29:
 224 0000 FF       		.byte	0xff
 225 0001 FF       		.byte	0xff
 226 0002 03       		.byte	0x3
 227 0003 00       		.byte	0
 228              		.text
 230              		.globl	_ZN7KThreadD1Ev
 231              		.set	_ZN7KThreadD1Ev,_ZN7KThreadD2Ev
GAS LISTING /tmp/ccyKCoXx.s 			page 6


 232              		.align	2
 233              		.globl	_ZN7KThread12createThreadEPFvPvES0_S0_
 235              	_ZN7KThread12createThreadEPFvPvES0_S0_:
 236              	.LFB31:
  36:src/KThread.cpp **** 
  37:src/KThread.cpp **** KThread* KThread::createThread(Body body, void* args, void* stack) {
 237              		.loc 1 37 68 is_stmt 1
 238              		.cfi_startproc
 239              	.LVL11:
 240 0154 130101FD 		addi	sp,sp,-48
 241              		.cfi_def_cfa_offset 48
 242 0158 23341102 		sd	ra,40(sp)
 243 015c 23308102 		sd	s0,32(sp)
 244 0160 233C9100 		sd	s1,24(sp)
 245 0164 23382101 		sd	s2,16(sp)
 246 0168 23343101 		sd	s3,8(sp)
 247 016c 23304101 		sd	s4,0(sp)
 248              		.cfi_offset 1, -8
 249              		.cfi_offset 8, -16
 250              		.cfi_offset 9, -24
 251              		.cfi_offset 18, -32
 252              		.cfi_offset 19, -40
 253              		.cfi_offset 20, -48
 254 0170 13040103 		addi	s0,sp,48
 255              		.cfi_def_cfa 8, 0
 256 0174 13090500 		mv	s2,a0
 257 0178 93890500 		mv	s3,a1
 258 017c 130A0600 		mv	s4,a2
  38:src/KThread.cpp ****     return new KThread(body, args, stack);
 259              		.loc 1 38 5
 260              	.LVL12:
 261              	.LBB13:
 262              	.LBB14:
 263              		.file 2 "src/../h/KThread.hpp"
   1:src/../h/KThread.hpp **** //
   2:src/../h/KThread.hpp **** // Created by os on 10/8/25.
   3:src/../h/KThread.hpp **** //
   4:src/../h/KThread.hpp **** 
   5:src/../h/KThread.hpp **** #ifndef PROJECT_BASE_THREAD_HPP
   6:src/../h/KThread.hpp **** #define PROJECT_BASE_THREAD_HPP
   7:src/../h/KThread.hpp **** 
   8:src/../h/KThread.hpp **** #include "MemoryAllocator.hpp"
   9:src/../h/KThread.hpp **** #include "../lib/hw.h"
  10:src/../h/KThread.hpp **** 
  11:src/../h/KThread.hpp **** enum ThreadState {
  12:src/../h/KThread.hpp ****     NEW,
  13:src/../h/KThread.hpp ****     READY,
  14:src/../h/KThread.hpp ****     RUNNING,
  15:src/../h/KThread.hpp ****     BLOCKED,
  16:src/../h/KThread.hpp ****     FINISHED
  17:src/../h/KThread.hpp **** };
  18:src/../h/KThread.hpp **** 
  19:src/../h/KThread.hpp **** class KThread {
  20:src/../h/KThread.hpp **** public:
  21:src/../h/KThread.hpp ****     static int staticId;
  22:src/../h/KThread.hpp ****     static KThread* running;
  23:src/../h/KThread.hpp **** 
GAS LISTING /tmp/ccyKCoXx.s 			page 7


  24:src/../h/KThread.hpp ****     friend class Scheduler;
  25:src/../h/KThread.hpp ****     friend class KSemaphore;
  26:src/../h/KThread.hpp ****     friend class Riscv;
  27:src/../h/KThread.hpp **** 
  28:src/../h/KThread.hpp ****     using Body = void(*)(void*);
  29:src/../h/KThread.hpp **** 
  30:src/../h/KThread.hpp ****     ~KThread();
  31:src/../h/KThread.hpp **** 
  32:src/../h/KThread.hpp ****     static KThread* createThread(Body, void*, void*);
  33:src/../h/KThread.hpp ****     static KThread* createThread(Body);
  34:src/../h/KThread.hpp **** 
  35:src/../h/KThread.hpp ****     void start();                       // prepare and put in the Scheduler
  36:src/../h/KThread.hpp ****     void exit();                        // mark as finished (could be called from wrapper)
  37:src/../h/KThread.hpp ****     static void wrapper();              // static function - entry which calls body(arg) and exit
  38:src/../h/KThread.hpp **** 
  39:src/../h/KThread.hpp ****     ThreadState getState() const { return state; }
  40:src/../h/KThread.hpp ****     void setState(ThreadState s) { state = s; }
  41:src/../h/KThread.hpp **** 
  42:src/../h/KThread.hpp ****     static void yield();
  43:src/../h/KThread.hpp ****     static void dispatch();
  44:src/../h/KThread.hpp **** 
  45:src/../h/KThread.hpp ****     void* operator new(size_t size) {
  46:src/../h/KThread.hpp ****         size_t blocks = size / MEM_BLOCK_SIZE;
 264              		.loc 2 46 9
  47:src/../h/KThread.hpp ****         if (size % MEM_BLOCK_SIZE) blocks++;
 265              		.loc 2 47 9
 266              		.loc 2 47 36
  48:src/../h/KThread.hpp **** 
  49:src/../h/KThread.hpp ****         return MemoryAllocator::mem_alloc(blocks);
 267              		.loc 2 49 9
 268              		.loc 2 49 42 is_stmt 0
 269 0180 13052000 		li	a0,2
 270              	.LVL13:
 271 0184 97000000 		call	_ZN15MemoryAllocator9mem_allocEm@plt
 271      E7800000 
 272              	.LVL14:
 273 018c 93040500 		mv	s1,a0
 274              	.LVL15:
 275              	.LBE14:
 276              	.LBE13:
 277              		.loc 1 38 41
 278 0190 93060A00 		mv	a3,s4
 279 0194 13860900 		mv	a2,s3
 280 0198 93050900 		mv	a1,s2
 281 019c 97000000 		call	_ZN7KThreadC1EPFvPvES0_S0_
 281      E7800000 
 282              	.LVL16:
  39:src/KThread.cpp **** }
 283              		.loc 1 39 1
 284 01a4 13850400 		mv	a0,s1
 285 01a8 83308102 		ld	ra,40(sp)
 286              		.cfi_restore 1
 287 01ac 03340102 		ld	s0,32(sp)
 288              		.cfi_restore 8
 289              		.cfi_def_cfa 2, 48
 290 01b0 83348101 		ld	s1,24(sp)
 291              		.cfi_restore 9
GAS LISTING /tmp/ccyKCoXx.s 			page 8


 292 01b4 03390101 		ld	s2,16(sp)
 293              		.cfi_restore 18
 294              	.LVL17:
 295 01b8 83398100 		ld	s3,8(sp)
 296              		.cfi_restore 19
 297              	.LVL18:
 298 01bc 033A0100 		ld	s4,0(sp)
 299              		.cfi_restore 20
 300              	.LVL19:
 301 01c0 13010103 		addi	sp,sp,48
 302              		.cfi_def_cfa_offset 0
 303 01c4 67800000 		jr	ra
 304              		.cfi_endproc
 305              	.LFE31:
 307              		.align	2
 308              		.globl	_ZN7KThread12createThreadEPFvPvE
 310              	_ZN7KThread12createThreadEPFvPvE:
 311              	.LFB32:
  40:src/KThread.cpp **** 
  41:src/KThread.cpp **** KThread* KThread::createThread(Body body) {
 312              		.loc 1 41 43 is_stmt 1
 313              		.cfi_startproc
 314              		.cfi_personality 0x9b,DW.ref.__gxx_personality_v0
 315              		.cfi_lsda 0x1b,.LLSDA32
 316              	.LVL20:
 317 01c8 130101FE 		addi	sp,sp,-32
 318              		.cfi_def_cfa_offset 32
 319 01cc 233C1100 		sd	ra,24(sp)
 320 01d0 23388100 		sd	s0,16(sp)
 321 01d4 23349100 		sd	s1,8(sp)
 322 01d8 23302101 		sd	s2,0(sp)
 323              		.cfi_offset 1, -8
 324              		.cfi_offset 8, -16
 325              		.cfi_offset 9, -24
 326              		.cfi_offset 18, -32
 327 01dc 13040102 		addi	s0,sp,32
 328              		.cfi_def_cfa 8, 0
 329 01e0 13090500 		mv	s2,a0
  42:src/KThread.cpp ****     return new KThread(body);
 330              		.loc 1 42 5
 331              	.LVL21:
 332              	.LBB15:
 333              	.LBB16:
  46:src/../h/KThread.hpp ****         if (size % MEM_BLOCK_SIZE) blocks++;
 334              		.loc 2 46 9
  47:src/../h/KThread.hpp **** 
 335              		.loc 2 47 9
  47:src/../h/KThread.hpp **** 
 336              		.loc 2 47 36
 337              		.loc 2 49 9
 338              		.loc 2 49 42 is_stmt 0
 339 01e4 13052000 		li	a0,2
 340              	.LVL22:
 341              	.LEHB0:
 342 01e8 97000000 		call	_ZN15MemoryAllocator9mem_allocEm@plt
 342      E7800000 
 343              	.LVL23:
GAS LISTING /tmp/ccyKCoXx.s 			page 9


 344              	.LEHE0:
 345 01f0 93040500 		mv	s1,a0
 346              	.LVL24:
 347              	.LBE16:
 348              	.LBE15:
 349              		.loc 1 42 28
 350 01f4 93050900 		mv	a1,s2
 351              	.LEHB1:
 352 01f8 97000000 		call	_ZN7KThreadC1EPFvPvE
 352      E7800000 
 353              	.LVL25:
 354              	.LEHE1:
 355 0200 6F000002 		j	.L26
 356              	.L23:
 357 0204 13090500 		mv	s2,a0
 358              	.LVL26:
 359              	.LBB17:
 360              	.LBB18:
  50:src/../h/KThread.hpp ****     }
  51:src/../h/KThread.hpp **** 
  52:src/../h/KThread.hpp ****     void operator delete(void* ptr) {
  53:src/../h/KThread.hpp ****         MemoryAllocator::mem_free(ptr);
 361              		.loc 2 53 9 is_stmt 1
 362              		.loc 2 53 34 is_stmt 0
 363 0208 13850400 		mv	a0,s1
 364 020c 97000000 		call	_ZN15MemoryAllocator8mem_freeEPv@plt
 364      E7800000 
 365              	.LVL27:
 366 0214 13050900 		mv	a0,s2
 367              	.LEHB2:
 368 0218 97000000 		call	_Unwind_Resume@plt
 368      E7800000 
 369              	.LVL28:
 370              	.LEHE2:
 371              	.L26:
 372              	.LBE18:
 373              	.LBE17:
  43:src/KThread.cpp **** }
 374              		.loc 1 43 1
 375 0220 13850400 		mv	a0,s1
 376 0224 83308101 		ld	ra,24(sp)
 377              		.cfi_restore 1
 378 0228 03340101 		ld	s0,16(sp)
 379              		.cfi_restore 8
 380              		.cfi_def_cfa 2, 32
 381 022c 83348100 		ld	s1,8(sp)
 382              		.cfi_restore 9
 383 0230 03390100 		ld	s2,0(sp)
 384              		.cfi_restore 18
 385              	.LVL29:
 386 0234 13010102 		addi	sp,sp,32
 387              		.cfi_def_cfa_offset 0
 388 0238 67800000 		jr	ra
 389              		.cfi_endproc
 390              	.LFE32:
 391              		.section	.gcc_except_table
 392              	.LLSDA32:
GAS LISTING /tmp/ccyKCoXx.s 			page 10


 393 0004 FF       		.byte	0xff
 394 0005 FF       		.byte	0xff
 395 0006 03       		.byte	0x3
 396 0007 27       		.byte	0x27
 397 0008 00000000 		.4byte	.LEHB0-.LFB32
 398 000c 00000000 		.4byte	.LEHE0-.LEHB0
 399 0010 00000000 		.4byte	0
 400 0014 00       		.byte	0
 401 0015 00000000 		.4byte	.LEHB1-.LFB32
 402 0019 00000000 		.4byte	.LEHE1-.LEHB1
 403 001d 00000000 		.4byte	.L23-.LFB32
 404 0021 00       		.byte	0
 405 0022 00000000 		.4byte	.LEHB2-.LFB32
 406 0026 00000000 		.4byte	.LEHE2-.LEHB2
 407 002a 00000000 		.4byte	0
 408 002e 00       		.byte	0
 409              		.text
 411              		.align	2
 412              		.globl	_ZN7KThread5startEv
 414              	_ZN7KThread5startEv:
 415              	.LFB33:
  44:src/KThread.cpp **** 
  45:src/KThread.cpp **** void KThread::start() {
 416              		.loc 1 45 23 is_stmt 1
 417              		.cfi_startproc
 418              	.LVL30:
  46:src/KThread.cpp ****     if (state != NEW) return;
 419              		.loc 1 46 5
 420              		.loc 1 46 9 is_stmt 0
 421 023c 83270503 		lw	a5,48(a0)
 422              		.loc 1 46 5
 423 0240 63840700 		beqz	a5,.L33
 424 0244 67800000 		ret
 425              	.L33:
  45:src/KThread.cpp ****     if (state != NEW) return;
 426              		.loc 1 45 23
 427 0248 130101FF 		addi	sp,sp,-16
 428              		.cfi_def_cfa_offset 16
 429 024c 23341100 		sd	ra,8(sp)
 430 0250 23308100 		sd	s0,0(sp)
 431              		.cfi_offset 1, -8
 432              		.cfi_offset 8, -16
 433 0254 13040101 		addi	s0,sp,16
 434              		.cfi_def_cfa 8, 0
  47:src/KThread.cpp **** 
  48:src/KThread.cpp ****     state = READY;
 435              		.loc 1 48 5 is_stmt 1
 436              		.loc 1 48 11 is_stmt 0
 437 0258 93071000 		li	a5,1
 438 025c 2328F502 		sw	a5,48(a0)
  49:src/KThread.cpp ****     Scheduler::put(this);
 439              		.loc 1 49 5 is_stmt 1
 440              		.loc 1 49 19 is_stmt 0
 441 0260 97000000 		call	_ZN9Scheduler3putEP7KThread@plt
 441      E7800000 
 442              	.LVL31:
  50:src/KThread.cpp **** }
GAS LISTING /tmp/ccyKCoXx.s 			page 11


 443              		.loc 1 50 1
 444 0268 83308100 		ld	ra,8(sp)
 445              		.cfi_restore 1
 446 026c 03340100 		ld	s0,0(sp)
 447              		.cfi_restore 8
 448              		.cfi_def_cfa 2, 16
 449 0270 13010101 		addi	sp,sp,16
 450              		.cfi_def_cfa_offset 0
 451 0274 67800000 		jr	ra
 452              		.cfi_endproc
 453              	.LFE33:
 455              		.align	2
 456              		.globl	_ZN7KThread4exitEv
 458              	_ZN7KThread4exitEv:
 459              	.LFB34:
  51:src/KThread.cpp **** 
  52:src/KThread.cpp **** void KThread::exit() {
 460              		.loc 1 52 22 is_stmt 1
 461              		.cfi_startproc
 462              	.LVL32:
 463 0278 130101FF 		addi	sp,sp,-16
 464              		.cfi_def_cfa_offset 16
 465 027c 23348100 		sd	s0,8(sp)
 466              		.cfi_offset 8, -8
 467 0280 13040101 		addi	s0,sp,16
 468              		.cfi_def_cfa 8, 0
  53:src/KThread.cpp ****     state = FINISHED;
 469              		.loc 1 53 5
 470              		.loc 1 53 11 is_stmt 0
 471 0284 93074000 		li	a5,4
 472 0288 2328F502 		sw	a5,48(a0)
  54:src/KThread.cpp **** }
 473              		.loc 1 54 1
 474 028c 03348100 		ld	s0,8(sp)
 475              		.cfi_restore 8
 476              		.cfi_def_cfa 2, 16
 477 0290 13010101 		addi	sp,sp,16
 478              		.cfi_def_cfa_offset 0
 479 0294 67800000 		jr	ra
 480              		.cfi_endproc
 481              	.LFE34:
 483              		.align	2
 484              		.globl	_ZN7KThread8dispatchEv
 486              	_ZN7KThread8dispatchEv:
 487              	.LFB36:
  55:src/KThread.cpp **** 
  56:src/KThread.cpp **** void KThread::wrapper() {
  57:src/KThread.cpp ****     Riscv::popSppSpie();
  58:src/KThread.cpp ****     running->body(running->args);
  59:src/KThread.cpp ****     running->exit();
  60:src/KThread.cpp ****     yield();
  61:src/KThread.cpp **** }
  62:src/KThread.cpp **** 
  63:src/KThread.cpp **** void KThread::dispatch() {
 488              		.loc 1 63 26 is_stmt 1
 489              		.cfi_startproc
 490 0298 130101FE 		addi	sp,sp,-32
GAS LISTING /tmp/ccyKCoXx.s 			page 12


 491              		.cfi_def_cfa_offset 32
 492 029c 233C1100 		sd	ra,24(sp)
 493 02a0 23388100 		sd	s0,16(sp)
 494 02a4 23349100 		sd	s1,8(sp)
 495              		.cfi_offset 1, -8
 496              		.cfi_offset 8, -16
 497              		.cfi_offset 9, -24
 498 02a8 13040102 		addi	s0,sp,32
 499              		.cfi_def_cfa 8, 0
  64:src/KThread.cpp ****     KThread* old = running;
 500              		.loc 1 64 5
 501              		.loc 1 64 14 is_stmt 0
 502 02ac 97040000 		ld	s1,.LANCHOR0+8
 502      83B40400 
 503              	.LVL33:
  65:src/KThread.cpp **** 
  66:src/KThread.cpp ****     if (old && old->state != FINISHED) {
 504              		.loc 1 66 5 is_stmt 1
 505 02b4 63880400 		beqz	s1,.L37
 506              		.loc 1 66 21 is_stmt 0 discriminator 1
 507 02b8 03A70403 		lw	a4,48(s1)
 508              		.loc 1 66 13 discriminator 1
 509 02bc 93074000 		li	a5,4
 510 02c0 631EF704 		bne	a4,a5,.L41
 511              	.L37:
  67:src/KThread.cpp ****         old->state = READY;
  68:src/KThread.cpp ****         Scheduler::put(old);
  69:src/KThread.cpp ****     }
  70:src/KThread.cpp **** 
  71:src/KThread.cpp ****     running = Scheduler::get();
 512              		.loc 1 71 5 is_stmt 1
 513              		.loc 1 71 29 is_stmt 0
 514 02c4 97000000 		call	_ZN9Scheduler3getEv@plt
 514      E7800000 
 515              	.LVL34:
 516              		.loc 1 71 13
 517 02cc 97070000 		sd	a0,.LANCHOR0+8,a5
 517      23B0A700 
  72:src/KThread.cpp ****     if (!running) return;
 518              		.loc 1 72 5 is_stmt 1
 519 02d4 630A0502 		beqz	a0,.L36
  73:src/KThread.cpp **** 
  74:src/KThread.cpp ****     running->state = RUNNING;
 520              		.loc 1 74 5
 521              		.loc 1 74 20 is_stmt 0
 522 02d8 93072000 		li	a5,2
 523 02dc 2328F502 		sw	a5,48(a0)
  75:src/KThread.cpp **** 
  76:src/KThread.cpp ****     if (old && old->state == FINISHED) {
 524              		.loc 1 76 5 is_stmt 1
 525 02e0 63880400 		beqz	s1,.L39
 526              		.loc 1 76 21 is_stmt 0 discriminator 1
 527 02e4 03A70403 		lw	a4,48(s1)
 528              		.loc 1 76 13 discriminator 1
 529 02e8 93074000 		li	a5,4
 530 02ec 6304F704 		beq	a4,a5,.L42
 531              	.L39:
GAS LISTING /tmp/ccyKCoXx.s 			page 13


  77:src/KThread.cpp ****         MemoryAllocator::mem_free(old->stack);
  78:src/KThread.cpp ****         old->stack = nullptr;
  79:src/KThread.cpp ****     }
  80:src/KThread.cpp **** 
  81:src/KThread.cpp ****     contextSwitch(&old->context, &running->context);
 532              		.loc 1 81 5 is_stmt 1
 533              		.loc 1 81 18 is_stmt 0
 534 02f0 97050000 		ld	a1,.LANCHOR0+8
 534      83B50500 
 535 02f8 93850502 		addi	a1,a1,32
 536 02fc 13850402 		addi	a0,s1,32
 537 0300 97000000 		call	_ZN7KThread13contextSwitchEPNS_7ContextES1_@plt
 537      E7800000 
 538              	.LVL35:
 539              	.L36:
  82:src/KThread.cpp **** }
 540              		.loc 1 82 1
 541 0308 83308101 		ld	ra,24(sp)
 542              		.cfi_remember_state
 543              		.cfi_restore 1
 544 030c 03340101 		ld	s0,16(sp)
 545              		.cfi_restore 8
 546              		.cfi_def_cfa 2, 32
 547 0310 83348100 		ld	s1,8(sp)
 548              		.cfi_restore 9
 549              	.LVL36:
 550 0314 13010102 		addi	sp,sp,32
 551              		.cfi_def_cfa_offset 0
 552 0318 67800000 		jr	ra
 553              	.LVL37:
 554              	.L41:
 555              		.cfi_restore_state
  67:src/KThread.cpp ****         Scheduler::put(old);
 556              		.loc 1 67 9 is_stmt 1
  67:src/KThread.cpp ****         Scheduler::put(old);
 557              		.loc 1 67 20 is_stmt 0
 558 031c 93071000 		li	a5,1
 559 0320 23A8F402 		sw	a5,48(s1)
  68:src/KThread.cpp ****     }
 560              		.loc 1 68 9 is_stmt 1
  68:src/KThread.cpp ****     }
 561              		.loc 1 68 23 is_stmt 0
 562 0324 13850400 		mv	a0,s1
 563 0328 97000000 		call	_ZN9Scheduler3putEP7KThread@plt
 563      E7800000 
 564              	.LVL38:
 565 0330 6FF05FF9 		j	.L37
 566              	.L42:
  77:src/KThread.cpp ****         old->stack = nullptr;
 567              		.loc 1 77 9 is_stmt 1
  77:src/KThread.cpp ****         old->stack = nullptr;
 568              		.loc 1 77 34 is_stmt 0
 569 0334 03B58401 		ld	a0,24(s1)
 570 0338 97000000 		call	_ZN15MemoryAllocator8mem_freeEPv@plt
 570      E7800000 
 571              	.LVL39:
  78:src/KThread.cpp ****     }
GAS LISTING /tmp/ccyKCoXx.s 			page 14


 572              		.loc 1 78 9 is_stmt 1
  78:src/KThread.cpp ****     }
 573              		.loc 1 78 20 is_stmt 0
 574 0340 23BC0400 		sd	zero,24(s1)
 575 0344 6FF0DFFA 		j	.L39
 576              		.cfi_endproc
 577              	.LFE36:
 579              		.align	2
 580              		.globl	_ZN7KThread5yieldEv
 582              	_ZN7KThread5yieldEv:
 583              	.LFB37:
  83:src/KThread.cpp **** 
  84:src/KThread.cpp **** void KThread::yield() {
 584              		.loc 1 84 23 is_stmt 1
 585              		.cfi_startproc
 586 0348 130101FF 		addi	sp,sp,-16
 587              		.cfi_def_cfa_offset 16
 588 034c 23348100 		sd	s0,8(sp)
 589              		.cfi_offset 8, -8
 590 0350 13040101 		addi	s0,sp,16
 591              		.cfi_def_cfa 8, 0
  85:src/KThread.cpp ****     asm volatile ("li a0, 0x13");
 592              		.loc 1 85 5
 593              		.loc 1 85 33 is_stmt 0
 594              	#APP
 595              	# 85 "src/KThread.cpp" 1
  86              	    asm volatile ("ecall");
 596              		li a0, 0x13
 597              	# 0 "" 2
 598              		.loc 1 86 5 is_stmt 1
 599              		.loc 1 86 27 is_stmt 0
 600              	# 86 "src/KThread.cpp" 1
  87              	}...
 601              		ecall
 602              	# 0 "" 2
 603              		.loc 1 87 1
 604              	#NO_APP
 605 035c 03348100 		ld	s0,8(sp)
 606              		.cfi_restore 8
 607              		.cfi_def_cfa 2, 16
 608 0360 13010101 		addi	sp,sp,16
 609              		.cfi_def_cfa_offset 0
 610 0364 67800000 		jr	ra
 611              		.cfi_endproc
 612              	.LFE37:
 614              		.align	2
 615              		.globl	_ZN7KThread7wrapperEv
 617              	_ZN7KThread7wrapperEv:
 618              	.LFB35:
  56:src/KThread.cpp **** void KThread::wrapper() {
 619              		.loc 1 56 25 is_stmt 1
 620              		.cfi_startproc
 621 0368 130101FE 		addi	sp,sp,-32
 622              		.cfi_def_cfa_offset 32
 623 036c 233C1100 		sd	ra,24(sp)
 624 0370 23388100 		sd	s0,16(sp)
 625 0374 23349100 		sd	s1,8(sp)
GAS LISTING /tmp/ccyKCoXx.s 			page 15


 626              		.cfi_offset 1, -8
 627              		.cfi_offset 8, -16
 628              		.cfi_offset 9, -24
 629 0378 13040102 		addi	s0,sp,32
 630              		.cfi_def_cfa 8, 0
  57:src/KThread.cpp ****     Riscv::popSppSpie();
 631              		.loc 1 57 5
  57:src/KThread.cpp ****     Riscv::popSppSpie();
 632              		.loc 1 57 22 is_stmt 0
 633 037c 97000000 		call	_ZN5Riscv10popSppSpieEv@plt
 633      E7800000 
 634              	.LVL40:
  58:src/KThread.cpp ****     running->body(running->args);
 635              		.loc 1 58 5 is_stmt 1
  58:src/KThread.cpp ****     running->body(running->args);
 636              		.loc 1 58 14 is_stmt 0
 637 0384 97040000 		lla	s1,.LANCHOR0
 637      93840400 
 638 038c 83B78400 		ld	a5,8(s1)
 639 0390 03B70700 		ld	a4,0(a5)
  58:src/KThread.cpp ****     running->body(running->args);
 640              		.loc 1 58 18
 641 0394 03B50701 		ld	a0,16(a5)
 642 0398 E7000700 		jalr	a4
 643              	.LVL41:
  59:src/KThread.cpp ****     running->exit();
 644              		.loc 1 59 5 is_stmt 1
  59:src/KThread.cpp ****     running->exit();
 645              		.loc 1 59 18 is_stmt 0
 646 039c 03B58400 		ld	a0,8(s1)
 647 03a0 97000000 		call	_ZN7KThread4exitEv
 647      E7800000 
 648              	.LVL42:
  60:src/KThread.cpp ****     yield();
 649              		.loc 1 60 5 is_stmt 1
  60:src/KThread.cpp ****     yield();
 650              		.loc 1 60 10 is_stmt 0
 651 03a8 97000000 		call	_ZN7KThread5yieldEv
 651      E7800000 
 652              	.LVL43:
  61:src/KThread.cpp **** }
 653              		.loc 1 61 1
 654 03b0 83308101 		ld	ra,24(sp)
 655              		.cfi_restore 1
 656 03b4 03340101 		ld	s0,16(sp)
 657              		.cfi_restore 8
 658              		.cfi_def_cfa 2, 32
 659 03b8 83348100 		ld	s1,8(sp)
 660              		.cfi_restore 9
 661 03bc 13010102 		addi	sp,sp,32
 662              		.cfi_def_cfa_offset 0
 663 03c0 67800000 		jr	ra
 664              		.cfi_endproc
 665              	.LFE35:
 667              		.globl	_ZN7KThread8staticIdE
 668              		.globl	_ZN7KThread7runningE
 669              		.bss
GAS LISTING /tmp/ccyKCoXx.s 			page 16


 670              		.align	3
 671              		.set	.LANCHOR0,. + 0
 674              	_ZN7KThread8staticIdE:
 675 0000 00000000 		.zero	4
 676 0004 00000000 		.zero	4
 679              	_ZN7KThread7runningE:
 680 0008 00000000 		.zero	8
 680      00000000 
 681              		.text
 682              	.Letext0:
 683              		.file 3 "src/../h/../lib/hw.h"
 684              		.file 4 "src/../h/MemoryAllocator.hpp"
 685              		.file 5 "src/../h/Scheduler.hpp"
 686              		.file 6 "src/../h/Riscv.hpp"
 3555              		.align	3
 3558              	DW.ref.__gxx_personality_v0:
 3559 0000 00000000 		.dword	__gxx_personality_v0
 3559      00000000 
 3560              		.ident	"GCC: (Ubuntu 9.4.0-1ubuntu1~20.04) 9.4.0"
 3561              		.section	.note.GNU-stack,"",@progbits
GAS LISTING /tmp/ccyKCoXx.s 			page 17


DEFINED SYMBOLS
                            *ABS*:0000000000000000 KThread.cpp
     /tmp/ccyKCoXx.s:9      .text:0000000000000000 _ZN7KThreadC2EPFvPvES0_S0_
     /tmp/ccyKCoXx.s:13     .text:0000000000000000 .L0 
     /tmp/ccyKCoXx.s:15     .text:0000000000000000 .L0 
     /tmp/ccyKCoXx.s:16     .text:0000000000000004 .L0 
     /tmp/ccyKCoXx.s:18     .text:0000000000000008 .L0 
     /tmp/ccyKCoXx.s:20     .text:000000000000000c .L0 
     /tmp/ccyKCoXx.s:23     .text:000000000000000c .L0 
     /tmp/ccyKCoXx.s:25     .text:0000000000000010 .L0 
     /tmp/ccyKCoXx.s:30     .text:0000000000000024 .L0 
     /tmp/ccyKCoXx.s:33     .text:000000000000002c .L0 
     /tmp/ccyKCoXx.s:37     .text:0000000000000034 .L0 
     /tmp/ccyKCoXx.s:39     .text:0000000000000038 .L0 
     /tmp/ccyKCoXx.s:617    .text:0000000000000368 _ZN7KThread7wrapperEv
     /tmp/ccyKCoXx.s:41     .text:000000000000003c .L0 
     /tmp/ccyKCoXx.s:44     .text:0000000000000044 .L0 
     /tmp/ccyKCoXx.s:46     .text:0000000000000048 .L0 
     /tmp/ccyKCoXx.s:48     .text:000000000000004c .L0 
     /tmp/ccyKCoXx.s:52     .text:0000000000000054 .L0 
     /tmp/ccyKCoXx.s:56     .text:000000000000005c .L0 
     /tmp/ccyKCoXx.s:57     .text:000000000000005c .L0 
     /tmp/ccyKCoXx.s:58     .text:0000000000000060 .L0 
     /tmp/ccyKCoXx.s:59     .text:0000000000000060 .L0 
     /tmp/ccyKCoXx.s:60     .text:0000000000000060 .L0 
     /tmp/ccyKCoXx.s:62     .text:0000000000000064 .L0 
     /tmp/ccyKCoXx.s:65     .text:0000000000000068 .L0 
     /tmp/ccyKCoXx.s:68     .text:0000000000000068 .L0 
     /tmp/ccyKCoXx.s:72     .text:0000000000000070 .L0 
     /tmp/ccyKCoXx.s:76     .text:0000000000000078 .L0 
     /tmp/ccyKCoXx.s:79     .text:0000000000000080 .L0 
     /tmp/ccyKCoXx.s:9      .text:0000000000000000 _ZN7KThreadC1EPFvPvES0_S0_
     /tmp/ccyKCoXx.s:87     .text:0000000000000080 _ZN7KThreadC2EPFvPvE
     /tmp/ccyKCoXx.s:90     .text:0000000000000080 .L0 
     /tmp/ccyKCoXx.s:92     .text:0000000000000080 .L0 
     /tmp/ccyKCoXx.s:93     .text:0000000000000084 .L0 
     /tmp/ccyKCoXx.s:98     .text:0000000000000094 .L0 
     /tmp/ccyKCoXx.s:99     .text:0000000000000094 .L0 
     /tmp/ccyKCoXx.s:100    .text:0000000000000094 .L0 
     /tmp/ccyKCoXx.s:101    .text:0000000000000094 .L0 
     /tmp/ccyKCoXx.s:103    .text:0000000000000098 .L0 
     /tmp/ccyKCoXx.s:108    .text:00000000000000a0 .L0 
     /tmp/ccyKCoXx.s:110    .text:00000000000000a4 .L0 
     /tmp/ccyKCoXx.s:115    .text:00000000000000b8 .L0 
     /tmp/ccyKCoXx.s:118    .text:00000000000000c0 .L0 
     /tmp/ccyKCoXx.s:120    .text:00000000000000c4 .L0 
     /tmp/ccyKCoXx.s:126    .text:00000000000000d0 .L0 
     /tmp/ccyKCoXx.s:128    .text:00000000000000d4 .L0 
     /tmp/ccyKCoXx.s:130    .text:00000000000000d8 .L0 
     /tmp/ccyKCoXx.s:133    .text:00000000000000e0 .L0 
     /tmp/ccyKCoXx.s:135    .text:00000000000000e4 .L0 
     /tmp/ccyKCoXx.s:137    .text:00000000000000e8 .L0 
     /tmp/ccyKCoXx.s:141    .text:00000000000000f0 .L0 
     /tmp/ccyKCoXx.s:145    .text:00000000000000f8 .L0 
     /tmp/ccyKCoXx.s:146    .text:00000000000000f8 .L0 
     /tmp/ccyKCoXx.s:147    .text:00000000000000fc .L0 
     /tmp/ccyKCoXx.s:148    .text:00000000000000fc .L0 
GAS LISTING /tmp/ccyKCoXx.s 			page 18


     /tmp/ccyKCoXx.s:150    .text:0000000000000100 .L0 
     /tmp/ccyKCoXx.s:151    .text:0000000000000100 .L0 
     /tmp/ccyKCoXx.s:153    .text:0000000000000104 .L0 
     /tmp/ccyKCoXx.s:156    .text:0000000000000108 .L0 
     /tmp/ccyKCoXx.s:159    .text:000000000000010c .L0 
     /tmp/ccyKCoXx.s:163    .text:0000000000000110 .L0 
     /tmp/ccyKCoXx.s:166    .text:0000000000000110 .L0 
     /tmp/ccyKCoXx.s:171    .text:0000000000000118 .L0 
     /tmp/ccyKCoXx.s:175    .text:0000000000000120 .L0 
     /tmp/ccyKCoXx.s:178    .text:0000000000000128 .L0 
     /tmp/ccyKCoXx.s:87     .text:0000000000000080 _ZN7KThreadC1EPFvPvE
     /tmp/ccyKCoXx.s:186    .text:0000000000000128 _ZN7KThreadD2Ev
     /tmp/ccyKCoXx.s:189    .text:0000000000000128 .L0 
     /tmp/ccyKCoXx.s:3558   .data.rel.local.DW.ref.__gxx_personality_v0:0000000000000000 DW.ref.__gxx_personality_v0
     /tmp/ccyKCoXx.s:193    .text:0000000000000128 .L0 
     /tmp/ccyKCoXx.s:194    .text:000000000000012c .L0 
     /tmp/ccyKCoXx.s:197    .text:0000000000000134 .L0 
     /tmp/ccyKCoXx.s:198    .text:0000000000000134 .L0 
     /tmp/ccyKCoXx.s:200    .text:0000000000000138 .L0 
     /tmp/ccyKCoXx.s:203    .text:0000000000000138 .L0 
     /tmp/ccyKCoXx.s:204    .text:0000000000000138 .L0 
     /tmp/ccyKCoXx.s:210    .text:0000000000000144 .L0 
     /tmp/ccyKCoXx.s:211    .text:0000000000000144 .L0 
     /tmp/ccyKCoXx.s:212    .text:0000000000000148 .L0 
     /tmp/ccyKCoXx.s:214    .text:000000000000014c .L0 
     /tmp/ccyKCoXx.s:215    .text:000000000000014c .L0 
     /tmp/ccyKCoXx.s:217    .text:0000000000000150 .L0 
     /tmp/ccyKCoXx.s:219    .text:0000000000000154 .L0 
     /tmp/ccyKCoXx.s:186    .text:0000000000000128 _ZN7KThreadD1Ev
     /tmp/ccyKCoXx.s:235    .text:0000000000000154 _ZN7KThread12createThreadEPFvPvES0_S0_
     /tmp/ccyKCoXx.s:238    .text:0000000000000154 .L0 
     /tmp/ccyKCoXx.s:240    .text:0000000000000154 .L0 
     /tmp/ccyKCoXx.s:241    .text:0000000000000158 .L0 
     /tmp/ccyKCoXx.s:248    .text:0000000000000170 .L0 
     /tmp/ccyKCoXx.s:249    .text:0000000000000170 .L0 
     /tmp/ccyKCoXx.s:250    .text:0000000000000170 .L0 
     /tmp/ccyKCoXx.s:251    .text:0000000000000170 .L0 
     /tmp/ccyKCoXx.s:252    .text:0000000000000170 .L0 
     /tmp/ccyKCoXx.s:253    .text:0000000000000170 .L0 
     /tmp/ccyKCoXx.s:255    .text:0000000000000174 .L0 
     /tmp/ccyKCoXx.s:264    .text:0000000000000180 .L0 
     /tmp/ccyKCoXx.s:265    .text:0000000000000180 .L0 
     /tmp/ccyKCoXx.s:266    .text:0000000000000180 .L0 
     /tmp/ccyKCoXx.s:267    .text:0000000000000180 .L0 
     /tmp/ccyKCoXx.s:268    .text:0000000000000180 .L0 
     /tmp/ccyKCoXx.s:269    .text:0000000000000180 .L0 
     /tmp/ccyKCoXx.s:278    .text:0000000000000190 .L0 
     /tmp/ccyKCoXx.s:284    .text:00000000000001a4 .L0 
     /tmp/ccyKCoXx.s:286    .text:00000000000001ac .L0 
     /tmp/ccyKCoXx.s:288    .text:00000000000001b0 .L0 
     /tmp/ccyKCoXx.s:289    .text:00000000000001b0 .L0 
     /tmp/ccyKCoXx.s:291    .text:00000000000001b4 .L0 
     /tmp/ccyKCoXx.s:293    .text:00000000000001b8 .L0 
     /tmp/ccyKCoXx.s:296    .text:00000000000001bc .L0 
     /tmp/ccyKCoXx.s:299    .text:00000000000001c0 .L0 
     /tmp/ccyKCoXx.s:302    .text:00000000000001c4 .L0 
     /tmp/ccyKCoXx.s:304    .text:00000000000001c8 .L0 
GAS LISTING /tmp/ccyKCoXx.s 			page 19


     /tmp/ccyKCoXx.s:310    .text:00000000000001c8 _ZN7KThread12createThreadEPFvPvE
     /tmp/ccyKCoXx.s:313    .text:00000000000001c8 .L0 
     /tmp/ccyKCoXx.s:317    .text:00000000000001c8 .L0 
     /tmp/ccyKCoXx.s:318    .text:00000000000001cc .L0 
     /tmp/ccyKCoXx.s:323    .text:00000000000001dc .L0 
     /tmp/ccyKCoXx.s:324    .text:00000000000001dc .L0 
     /tmp/ccyKCoXx.s:325    .text:00000000000001dc .L0 
     /tmp/ccyKCoXx.s:326    .text:00000000000001dc .L0 
     /tmp/ccyKCoXx.s:328    .text:00000000000001e0 .L0 
     /tmp/ccyKCoXx.s:334    .text:00000000000001e4 .L0 
     /tmp/ccyKCoXx.s:335    .text:00000000000001e4 .L0 
     /tmp/ccyKCoXx.s:336    .text:00000000000001e4 .L0 
     /tmp/ccyKCoXx.s:337    .text:00000000000001e4 .L0 
     /tmp/ccyKCoXx.s:338    .text:00000000000001e4 .L0 
     /tmp/ccyKCoXx.s:339    .text:00000000000001e4 .L0 
     /tmp/ccyKCoXx.s:350    .text:00000000000001f4 .L0 
     /tmp/ccyKCoXx.s:362    .text:0000000000000208 .L0 
     /tmp/ccyKCoXx.s:363    .text:0000000000000208 .L0 
     /tmp/ccyKCoXx.s:375    .text:0000000000000220 .L0 
     /tmp/ccyKCoXx.s:377    .text:0000000000000228 .L0 
     /tmp/ccyKCoXx.s:379    .text:000000000000022c .L0 
     /tmp/ccyKCoXx.s:380    .text:000000000000022c .L0 
     /tmp/ccyKCoXx.s:382    .text:0000000000000230 .L0 
     /tmp/ccyKCoXx.s:384    .text:0000000000000234 .L0 
     /tmp/ccyKCoXx.s:387    .text:0000000000000238 .L0 
     /tmp/ccyKCoXx.s:389    .text:000000000000023c .L0 
     /tmp/ccyKCoXx.s:414    .text:000000000000023c _ZN7KThread5startEv
     /tmp/ccyKCoXx.s:417    .text:000000000000023c .L0 
     /tmp/ccyKCoXx.s:419    .text:000000000000023c .L0 
     /tmp/ccyKCoXx.s:420    .text:000000000000023c .L0 
     /tmp/ccyKCoXx.s:421    .text:000000000000023c .L0 
     /tmp/ccyKCoXx.s:423    .text:0000000000000240 .L0 
     /tmp/ccyKCoXx.s:427    .text:0000000000000248 .L0 
     /tmp/ccyKCoXx.s:428    .text:000000000000024c .L0 
     /tmp/ccyKCoXx.s:431    .text:0000000000000254 .L0 
     /tmp/ccyKCoXx.s:432    .text:0000000000000254 .L0 
     /tmp/ccyKCoXx.s:434    .text:0000000000000258 .L0 
     /tmp/ccyKCoXx.s:436    .text:0000000000000258 .L0 
     /tmp/ccyKCoXx.s:437    .text:0000000000000258 .L0 
     /tmp/ccyKCoXx.s:440    .text:0000000000000260 .L0 
     /tmp/ccyKCoXx.s:441    .text:0000000000000260 .L0 
     /tmp/ccyKCoXx.s:444    .text:0000000000000268 .L0 
     /tmp/ccyKCoXx.s:445    .text:000000000000026c .L0 
     /tmp/ccyKCoXx.s:447    .text:0000000000000270 .L0 
     /tmp/ccyKCoXx.s:448    .text:0000000000000270 .L0 
     /tmp/ccyKCoXx.s:450    .text:0000000000000274 .L0 
     /tmp/ccyKCoXx.s:452    .text:0000000000000278 .L0 
     /tmp/ccyKCoXx.s:458    .text:0000000000000278 _ZN7KThread4exitEv
     /tmp/ccyKCoXx.s:461    .text:0000000000000278 .L0 
     /tmp/ccyKCoXx.s:463    .text:0000000000000278 .L0 
     /tmp/ccyKCoXx.s:464    .text:000000000000027c .L0 
     /tmp/ccyKCoXx.s:466    .text:0000000000000280 .L0 
     /tmp/ccyKCoXx.s:468    .text:0000000000000284 .L0 
     /tmp/ccyKCoXx.s:470    .text:0000000000000284 .L0 
     /tmp/ccyKCoXx.s:471    .text:0000000000000284 .L0 
     /tmp/ccyKCoXx.s:474    .text:000000000000028c .L0 
     /tmp/ccyKCoXx.s:475    .text:0000000000000290 .L0 
GAS LISTING /tmp/ccyKCoXx.s 			page 20


     /tmp/ccyKCoXx.s:476    .text:0000000000000290 .L0 
     /tmp/ccyKCoXx.s:478    .text:0000000000000294 .L0 
     /tmp/ccyKCoXx.s:480    .text:0000000000000298 .L0 
     /tmp/ccyKCoXx.s:486    .text:0000000000000298 _ZN7KThread8dispatchEv
     /tmp/ccyKCoXx.s:489    .text:0000000000000298 .L0 
     /tmp/ccyKCoXx.s:490    .text:0000000000000298 .L0 
     /tmp/ccyKCoXx.s:491    .text:000000000000029c .L0 
     /tmp/ccyKCoXx.s:495    .text:00000000000002a8 .L0 
     /tmp/ccyKCoXx.s:496    .text:00000000000002a8 .L0 
     /tmp/ccyKCoXx.s:497    .text:00000000000002a8 .L0 
     /tmp/ccyKCoXx.s:499    .text:00000000000002ac .L0 
     /tmp/ccyKCoXx.s:501    .text:00000000000002ac .L0 
     /tmp/ccyKCoXx.s:502    .text:00000000000002ac .L0 
     /tmp/ccyKCoXx.s:505    .text:00000000000002b4 .L0 
     /tmp/ccyKCoXx.s:507    .text:00000000000002b8 .L0 
     /tmp/ccyKCoXx.s:509    .text:00000000000002bc .L0 
     /tmp/ccyKCoXx.s:513    .text:00000000000002c4 .L0 
     /tmp/ccyKCoXx.s:514    .text:00000000000002c4 .L0 
     /tmp/ccyKCoXx.s:517    .text:00000000000002cc .L0 
     /tmp/ccyKCoXx.s:519    .text:00000000000002d4 .L0 
     /tmp/ccyKCoXx.s:521    .text:00000000000002d8 .L0 
     /tmp/ccyKCoXx.s:522    .text:00000000000002d8 .L0 
     /tmp/ccyKCoXx.s:525    .text:00000000000002e0 .L0 
     /tmp/ccyKCoXx.s:527    .text:00000000000002e4 .L0 
     /tmp/ccyKCoXx.s:529    .text:00000000000002e8 .L0 
     /tmp/ccyKCoXx.s:533    .text:00000000000002f0 .L0 
     /tmp/ccyKCoXx.s:534    .text:00000000000002f0 .L0 
     /tmp/ccyKCoXx.s:541    .text:0000000000000308 .L0 
     /tmp/ccyKCoXx.s:542    .text:000000000000030c .L0 
     /tmp/ccyKCoXx.s:543    .text:000000000000030c .L0 
     /tmp/ccyKCoXx.s:545    .text:0000000000000310 .L0 
     /tmp/ccyKCoXx.s:546    .text:0000000000000310 .L0 
     /tmp/ccyKCoXx.s:548    .text:0000000000000314 .L0 
     /tmp/ccyKCoXx.s:551    .text:0000000000000318 .L0 
     /tmp/ccyKCoXx.s:555    .text:000000000000031c .L0 
     /tmp/ccyKCoXx.s:557    .text:000000000000031c .L0 
     /tmp/ccyKCoXx.s:558    .text:000000000000031c .L0 
     /tmp/ccyKCoXx.s:561    .text:0000000000000324 .L0 
     /tmp/ccyKCoXx.s:562    .text:0000000000000324 .L0 
     /tmp/ccyKCoXx.s:568    .text:0000000000000334 .L0 
     /tmp/ccyKCoXx.s:569    .text:0000000000000334 .L0 
     /tmp/ccyKCoXx.s:573    .text:0000000000000340 .L0 
     /tmp/ccyKCoXx.s:574    .text:0000000000000340 .L0 
     /tmp/ccyKCoXx.s:576    .text:0000000000000348 .L0 
     /tmp/ccyKCoXx.s:582    .text:0000000000000348 _ZN7KThread5yieldEv
     /tmp/ccyKCoXx.s:585    .text:0000000000000348 .L0 
     /tmp/ccyKCoXx.s:586    .text:0000000000000348 .L0 
     /tmp/ccyKCoXx.s:587    .text:000000000000034c .L0 
     /tmp/ccyKCoXx.s:589    .text:0000000000000350 .L0 
     /tmp/ccyKCoXx.s:591    .text:0000000000000354 .L0 
     /tmp/ccyKCoXx.s:593    .text:0000000000000354 .L0 
     src/KThread.cpp:85     .text:0000000000000354 .L0 
     /tmp/ccyKCoXx.s:599    .text:0000000000000358 .L0 
     src/KThread.cpp:86     .text:0000000000000358 .L0 
     /tmp/ccyKCoXx.s:605    .text:000000000000035c .L0 
     /tmp/ccyKCoXx.s:606    .text:0000000000000360 .L0 
     /tmp/ccyKCoXx.s:607    .text:0000000000000360 .L0 
GAS LISTING /tmp/ccyKCoXx.s 			page 21


     /tmp/ccyKCoXx.s:609    .text:0000000000000364 .L0 
     /tmp/ccyKCoXx.s:611    .text:0000000000000368 .L0 
     /tmp/ccyKCoXx.s:620    .text:0000000000000368 .L0 
     /tmp/ccyKCoXx.s:621    .text:0000000000000368 .L0 
     /tmp/ccyKCoXx.s:622    .text:000000000000036c .L0 
     /tmp/ccyKCoXx.s:626    .text:0000000000000378 .L0 
     /tmp/ccyKCoXx.s:627    .text:0000000000000378 .L0 
     /tmp/ccyKCoXx.s:628    .text:0000000000000378 .L0 
     /tmp/ccyKCoXx.s:630    .text:000000000000037c .L0 
     /tmp/ccyKCoXx.s:632    .text:000000000000037c .L0 
     /tmp/ccyKCoXx.s:633    .text:000000000000037c .L0 
     /tmp/ccyKCoXx.s:636    .text:0000000000000384 .L0 
     /tmp/ccyKCoXx.s:637    .text:0000000000000384 .L0 
     /tmp/ccyKCoXx.s:641    .text:0000000000000394 .L0 
     /tmp/ccyKCoXx.s:645    .text:000000000000039c .L0 
     /tmp/ccyKCoXx.s:646    .text:000000000000039c .L0 
     /tmp/ccyKCoXx.s:650    .text:00000000000003a8 .L0 
     /tmp/ccyKCoXx.s:651    .text:00000000000003a8 .L0 
     /tmp/ccyKCoXx.s:654    .text:00000000000003b0 .L0 
     /tmp/ccyKCoXx.s:655    .text:00000000000003b4 .L0 
     /tmp/ccyKCoXx.s:657    .text:00000000000003b8 .L0 
     /tmp/ccyKCoXx.s:658    .text:00000000000003b8 .L0 
     /tmp/ccyKCoXx.s:660    .text:00000000000003bc .L0 
     /tmp/ccyKCoXx.s:662    .text:00000000000003c0 .L0 
     /tmp/ccyKCoXx.s:664    .text:00000000000003c4 .L0 
     /tmp/ccyKCoXx.s:674    .bss:0000000000000000 _ZN7KThread8staticIdE
     /tmp/ccyKCoXx.s:679    .bss:0000000000000008 _ZN7KThread7runningE
     /tmp/ccyKCoXx.s:671    .bss:0000000000000000 .LANCHOR0
     /tmp/ccyKCoXx.s:687    .text:00000000000003c4 .L0 
     /tmp/ccyKCoXx.s:25     .text:0000000000000010 .L0 
     /tmp/ccyKCoXx.s:41     .text:000000000000003c .L0 
     /tmp/ccyKCoXx.s:110    .text:00000000000000a4 .L0 
     /tmp/ccyKCoXx.s:130    .text:00000000000000d8 .L0 
     /tmp/ccyKCoXx.s:502    .text:00000000000002ac .L0 
     /tmp/ccyKCoXx.s:517    .text:00000000000002cc .L0 
     /tmp/ccyKCoXx.s:534    .text:00000000000002f0 .L0 
     /tmp/ccyKCoXx.s:637    .text:0000000000000384 .L0 
     /tmp/ccyKCoXx.s:64     .text:0000000000000068 .L5
     /tmp/ccyKCoXx.s:70     .text:0000000000000070 .L6
     /tmp/ccyKCoXx.s:74     .text:0000000000000078 .L7
     /tmp/ccyKCoXx.s:35     .text:0000000000000034 .L2
     /tmp/ccyKCoXx.s:42     .text:0000000000000044 .L3
     /tmp/ccyKCoXx.s:50     .text:0000000000000054 .L4
     /tmp/ccyKCoXx.s:162    .text:0000000000000110 .L13
     /tmp/ccyKCoXx.s:169    .text:0000000000000118 .L14
     /tmp/ccyKCoXx.s:173    .text:0000000000000120 .L15
     /tmp/ccyKCoXx.s:124    .text:00000000000000d0 .L10
     /tmp/ccyKCoXx.s:131    .text:00000000000000e0 .L11
     /tmp/ccyKCoXx.s:139    .text:00000000000000f0 .L12
     /tmp/ccyKCoXx.s:371    .text:0000000000000220 .L26
     /tmp/ccyKCoXx.s:425    .text:0000000000000248 .L33
     /tmp/ccyKCoXx.s:511    .text:00000000000002c4 .L37
     /tmp/ccyKCoXx.s:554    .text:000000000000031c .L41
     /tmp/ccyKCoXx.s:539    .text:0000000000000308 .L36
     /tmp/ccyKCoXx.s:531    .text:00000000000002f0 .L39
     /tmp/ccyKCoXx.s:566    .text:0000000000000334 .L42
     /tmp/ccyKCoXx.s:341    .text:00000000000001e8 .LEHB0
GAS LISTING /tmp/ccyKCoXx.s 			page 22


     /tmp/ccyKCoXx.s:311    .text:00000000000001c8 .LFB32
     /tmp/ccyKCoXx.s:344    .text:00000000000001f0 .LEHE0
     /tmp/ccyKCoXx.s:351    .text:00000000000001f8 .LEHB1
     /tmp/ccyKCoXx.s:354    .text:0000000000000200 .LEHE1
     /tmp/ccyKCoXx.s:356    .text:0000000000000204 .L23
     /tmp/ccyKCoXx.s:367    .text:0000000000000218 .LEHB2
     /tmp/ccyKCoXx.s:370    .text:0000000000000220 .LEHE2
     /tmp/ccyKCoXx.s:2021   .debug_abbrev:0000000000000000 .Ldebug_abbrev0
     /tmp/ccyKCoXx.s:3498   .debug_str:0000000000000730 .LASF137
     /tmp/ccyKCoXx.s:3392   .debug_str:000000000000044c .LASF138
     /tmp/ccyKCoXx.s:3334   .debug_str:0000000000000242 .LASF139
     /tmp/ccyKCoXx.s:5      .text:0000000000000000 .Ltext0
     /tmp/ccyKCoXx.s:682    .text:00000000000003c4 .Letext0
     /tmp/ccyKCoXx.s:3256   .debug_line:0000000000000000 .Ldebug_line0
     /tmp/ccyKCoXx.s:3416   .debug_str:00000000000004e8 .LASF0
     /tmp/ccyKCoXx.s:3434   .debug_str:000000000000053c .LASF1
     /tmp/ccyKCoXx.s:3394   .debug_str:000000000000045c .LASF2
     /tmp/ccyKCoXx.s:3364   .debug_str:0000000000000398 .LASF4
     /tmp/ccyKCoXx.s:3478   .debug_str:0000000000000699 .LASF3
     /tmp/ccyKCoXx.s:3276   .debug_str:0000000000000078 .LASF5
     /tmp/ccyKCoXx.s:3438   .debug_str:000000000000056f .LASF6
     /tmp/ccyKCoXx.s:3414   .debug_str:00000000000004d5 .LASF7
     /tmp/ccyKCoXx.s:3518   .debug_str:00000000000008b1 .LASF8
     /tmp/ccyKCoXx.s:3346   .debug_str:00000000000002d8 .LASF9
     /tmp/ccyKCoXx.s:3450   .debug_str:00000000000005ba .LASF10
     /tmp/ccyKCoXx.s:3502   .debug_str:0000000000000820 .LASF11
     /tmp/ccyKCoXx.s:3280   .debug_str:000000000000008e .LASF12
     /tmp/ccyKCoXx.s:3260   .debug_str:0000000000000023 .LASF13
     /tmp/ccyKCoXx.s:3294   .debug_str:000000000000010c .LASF14
     /tmp/ccyKCoXx.s:3468   .debug_str:0000000000000641 .LASF15
     /tmp/ccyKCoXx.s:3308   .debug_str:000000000000018a .LASF16
     /tmp/ccyKCoXx.s:3282   .debug_str:000000000000009e .LASF19
     /tmp/ccyKCoXx.s:3544   .debug_str:00000000000009a2 .LASF17
     /tmp/ccyKCoXx.s:3492   .debug_str:0000000000000703 .LASF18
     /tmp/ccyKCoXx.s:3390   .debug_str:000000000000043c .LASF32
     /tmp/ccyKCoXx.s:3312   .debug_str:00000000000001b4 .LASF46
     /tmp/ccyKCoXx.s:3436   .debug_str:000000000000054f .LASF48
     /tmp/ccyKCoXx.s:3480   .debug_str:00000000000006ab .LASF20
     /tmp/ccyKCoXx.s:3490   .debug_str:00000000000006e2 .LASF22
     /tmp/ccyKCoXx.s:3454   .debug_str:00000000000005d3 .LASF21
     /tmp/ccyKCoXx.s:3344   .debug_str:00000000000002b7 .LASF23
     /tmp/ccyKCoXx.s:3528   .debug_str:0000000000000916 .LASF24
     /tmp/ccyKCoXx.s:3298   .debug_str:0000000000000125 .LASF26
     /tmp/ccyKCoXx.s:3524   .debug_str:00000000000008ed .LASF25
     /tmp/ccyKCoXx.s:3362   .debug_str:0000000000000365 .LASF27
     /tmp/ccyKCoXx.s:3296   .debug_str:0000000000000118 .LASF81
     /tmp/ccyKCoXx.s:3326   .debug_str:000000000000020a .LASF73
     /tmp/ccyKCoXx.s:3506   .debug_str:000000000000084a .LASF75
     /tmp/ccyKCoXx.s:3358   .debug_str:0000000000000345 .LASF140
     /tmp/ccyKCoXx.s:3448   .debug_str:00000000000005b4 .LASF28
     /tmp/ccyKCoXx.s:3444   .debug_str:00000000000005a2 .LASF29
     /tmp/ccyKCoXx.s:3366   .debug_str:000000000000039f .LASF30
     /tmp/ccyKCoXx.s:3484   .debug_str:00000000000006c0 .LASF31
     /tmp/ccyKCoXx.s:3318   .debug_str:00000000000001e0 .LASF33
     /tmp/ccyKCoXx.s:3264   .debug_str:000000000000003c .LASF34
     /tmp/ccyKCoXx.s:3324   .debug_str:0000000000000201 .LASF35
     /tmp/ccyKCoXx.s:3532   .debug_str:000000000000093e .LASF36
GAS LISTING /tmp/ccyKCoXx.s 			page 23


     /tmp/ccyKCoXx.s:3466   .debug_str:0000000000000638 .LASF37
     /tmp/ccyKCoXx.s:3464   .debug_str:0000000000000628 .LASF38
     /tmp/ccyKCoXx.s:3378   .debug_str:00000000000003db .LASF39
     /tmp/ccyKCoXx.s:3338   .debug_str:0000000000000273 .LASF40
     /tmp/ccyKCoXx.s:3460   .debug_str:000000000000061d .LASF141
     /tmp/ccyKCoXx.s:3284   .debug_str:00000000000000aa .LASF41
     /tmp/ccyKCoXx.s:3432   .debug_str:0000000000000536 .LASF42
     /tmp/ccyKCoXx.s:3546   .debug_str:00000000000009a7 .LASF43
     /tmp/ccyKCoXx.s:3386   .debug_str:0000000000000421 .LASF44
     /tmp/ccyKCoXx.s:3488   .debug_str:00000000000006cf .LASF45
     /tmp/ccyKCoXx.s:3548   .debug_str:00000000000009bb .LASF47
     /tmp/ccyKCoXx.s:3290   .debug_str:00000000000000ec .LASF49
     /tmp/ccyKCoXx.s:3376   .debug_str:00000000000003d2 .LASF142
     /tmp/ccyKCoXx.s:3496   .debug_str:0000000000000718 .LASF143
     /tmp/ccyKCoXx.s:3404   .debug_str:000000000000049b .LASF50
     /tmp/ccyKCoXx.s:3258   .debug_str:0000000000000000 .LASF51
     /tmp/ccyKCoXx.s:3470   .debug_str:0000000000000657 .LASF52
     /tmp/ccyKCoXx.s:3356   .debug_str:0000000000000331 .LASF53
     /tmp/ccyKCoXx.s:3420   .debug_str:00000000000004fc .LASF54
     /tmp/ccyKCoXx.s:3520   .debug_str:00000000000008c1 .LASF55
     /tmp/ccyKCoXx.s:3288   .debug_str:00000000000000df .LASF56
     /tmp/ccyKCoXx.s:3494   .debug_str:0000000000000708 .LASF57
     /tmp/ccyKCoXx.s:3320   .debug_str:00000000000001e8 .LASF60
     /tmp/ccyKCoXx.s:3514   .debug_str:0000000000000899 .LASF62
     /tmp/ccyKCoXx.s:3342   .debug_str:00000000000002a7 .LASF58
     /tmp/ccyKCoXx.s:3354   .debug_str:0000000000000321 .LASF59
     /tmp/ccyKCoXx.s:3368   .debug_str:00000000000003a7 .LASF61
     /tmp/ccyKCoXx.s:3538   .debug_str:0000000000000966 .LASF63
     /tmp/ccyKCoXx.s:3442   .debug_str:0000000000000587 .LASF64
     /tmp/ccyKCoXx.s:3522   .debug_str:00000000000008d8 .LASF65
     /tmp/ccyKCoXx.s:3370   .debug_str:00000000000003ba .LASF66
     /tmp/ccyKCoXx.s:3426   .debug_str:0000000000000513 .LASF67
     /tmp/ccyKCoXx.s:3424   .debug_str:000000000000050d .LASF68
     /tmp/ccyKCoXx.s:3374   .debug_str:00000000000003ca .LASF69
     /tmp/ccyKCoXx.s:3270   .debug_str:0000000000000054 .LASF70
     /tmp/ccyKCoXx.s:3534   .debug_str:0000000000000946 .LASF71
     /tmp/ccyKCoXx.s:3400   .debug_str:0000000000000486 .LASF72
     /tmp/ccyKCoXx.s:3526   .debug_str:0000000000000908 .LASF123
     /tmp/ccyKCoXx.s:3500   .debug_str:00000000000007f4 .LASF125
     /tmp/ccyKCoXx.s:3396   .debug_str:000000000000046a .LASF74
     /tmp/ccyKCoXx.s:3458   .debug_str:00000000000005ef .LASF76
     /tmp/ccyKCoXx.s:3440   .debug_str:0000000000000582 .LASF77
     /tmp/ccyKCoXx.s:3446   .debug_str:00000000000005aa .LASF78
     /tmp/ccyKCoXx.s:3360   .debug_str:0000000000000351 .LASF144
     /tmp/ccyKCoXx.s:3472   .debug_str:000000000000065d .LASF145
     /tmp/ccyKCoXx.s:3302   .debug_str:0000000000000165 .LASF79
     /tmp/ccyKCoXx.s:3428   .debug_str:0000000000000518 .LASF80
     /tmp/ccyKCoXx.s:3314   .debug_str:00000000000001bd .LASF82
     /tmp/ccyKCoXx.s:3410   .debug_str:00000000000004c5 .LASF83
     /tmp/ccyKCoXx.s:3332   .debug_str:000000000000023d .LASF84
     /tmp/ccyKCoXx.s:3340   .debug_str:000000000000029a .LASF85
     /tmp/ccyKCoXx.s:3430   .debug_str:0000000000000530 .LASF86
     /tmp/ccyKCoXx.s:3350   .debug_str:00000000000002fc .LASF87
     /tmp/ccyKCoXx.s:3316   .debug_str:00000000000001c2 .LASF88
     /tmp/ccyKCoXx.s:3408   .debug_str:00000000000004b9 .LASF89
     /tmp/ccyKCoXx.s:3382   .debug_str:00000000000003f0 .LASF90
     /tmp/ccyKCoXx.s:3482   .debug_str:00000000000006b5 .LASF91
GAS LISTING /tmp/ccyKCoXx.s 			page 24


     /tmp/ccyKCoXx.s:3540   .debug_str:0000000000000977 .LASF92
     /tmp/ccyKCoXx.s:3262   .debug_str:0000000000000033 .LASF93
     /tmp/ccyKCoXx.s:3328   .debug_str:0000000000000214 .LASF94
     /tmp/ccyKCoXx.s:3322   .debug_str:00000000000001f8 .LASF95
     /tmp/ccyKCoXx.s:3300   .debug_str:0000000000000150 .LASF96
     /tmp/ccyKCoXx.s:3402   .debug_str:0000000000000494 .LASF97
     /tmp/ccyKCoXx.s:3456   .debug_str:00000000000005dc .LASF98
     /tmp/ccyKCoXx.s:3508   .debug_str:0000000000000878 .LASF99
     /tmp/ccyKCoXx.s:3512   .debug_str:0000000000000886 .LASF100
     /tmp/ccyKCoXx.s:3422   .debug_str:0000000000000505 .LASF101
     /tmp/ccyKCoXx.s:3310   .debug_str:00000000000001a0 .LASF102
     /tmp/ccyKCoXx.s:3474   .debug_str:0000000000000679 .LASF103
     /tmp/ccyKCoXx.s:3352   .debug_str:000000000000030d .LASF104
     /tmp/ccyKCoXx.s:3274   .debug_str:0000000000000070 .LASF105
     /tmp/ccyKCoXx.s:3286   .debug_str:00000000000000cb .LASF106
     /tmp/ccyKCoXx.s:3380   .debug_str:00000000000003e8 .LASF107
     /tmp/ccyKCoXx.s:3330   .debug_str:0000000000000229 .LASF108
     /tmp/ccyKCoXx.s:3418   .debug_str:00000000000004f5 .LASF109
     /tmp/ccyKCoXx.s:3542   .debug_str:000000000000098f .LASF110
     /tmp/ccyKCoXx.s:3516   .debug_str:00000000000008aa .LASF111
     /tmp/ccyKCoXx.s:3336   .debug_str:0000000000000260 .LASF112
     /tmp/ccyKCoXx.s:3462   .debug_str:0000000000000622 .LASF113
     /tmp/ccyKCoXx.s:3536   .debug_str:0000000000000954 .LASF114
     /tmp/ccyKCoXx.s:3268   .debug_str:000000000000004e .LASF115
     /tmp/ccyKCoXx.s:3550   .debug_str:00000000000009c3 .LASF116
     /tmp/ccyKCoXx.s:3412   .debug_str:00000000000004ca .LASF117
     /tmp/ccyKCoXx.s:3476   .debug_str:0000000000000681 .LASF118
     /tmp/ccyKCoXx.s:3372   .debug_str:00000000000003bf .LASF119
     /tmp/ccyKCoXx.s:3384   .debug_str:0000000000000409 .LASF120
     /tmp/ccyKCoXx.s:3292   .debug_str:0000000000000102 .LASF121
     /tmp/ccyKCoXx.s:3388   .debug_str:0000000000000426 .LASF122
     /tmp/ccyKCoXx.s:3266   .debug_str:0000000000000044 .LASF124
     /tmp/ccyKCoXx.s:3348   .debug_str:00000000000002e6 .LASF126
     /tmp/ccyKCoXx.s:3406   .debug_str:00000000000004a4 .LASF127
     /tmp/ccyKCoXx.s:3272   .debug_str:000000000000005a .LASF128
     /tmp/ccyKCoXx.s:583    .text:0000000000000348 .LFB37
     /tmp/ccyKCoXx.s:612    .text:0000000000000368 .LFE37
     /tmp/ccyKCoXx.s:487    .text:0000000000000298 .LFB36
     /tmp/ccyKCoXx.s:577    .text:0000000000000348 .LFE36
     /tmp/ccyKCoXx.s:3032   .debug_loc:0000000000000000 .LLST13
     /tmp/ccyKCoXx.s:515    .text:00000000000002cc .LVL34
     /tmp/ccyKCoXx.s:538    .text:0000000000000308 .LVL35
     /tmp/ccyKCoXx.s:564    .text:0000000000000330 .LVL38
     /tmp/ccyKCoXx.s:571    .text:0000000000000340 .LVL39
     /tmp/ccyKCoXx.s:618    .text:0000000000000368 .LFB35
     /tmp/ccyKCoXx.s:665    .text:00000000000003c4 .LFE35
     /tmp/ccyKCoXx.s:634    .text:0000000000000384 .LVL40
     /tmp/ccyKCoXx.s:648    .text:00000000000003a8 .LVL42
     /tmp/ccyKCoXx.s:652    .text:00000000000003b0 .LVL43
     /tmp/ccyKCoXx.s:459    .text:0000000000000278 .LFB34
     /tmp/ccyKCoXx.s:481    .text:0000000000000298 .LFE34
     /tmp/ccyKCoXx.s:3306   .debug_str:0000000000000185 .LASF129
     /tmp/ccyKCoXx.s:415    .text:000000000000023c .LFB33
     /tmp/ccyKCoXx.s:453    .text:0000000000000278 .LFE33
     /tmp/ccyKCoXx.s:3043   .debug_loc:0000000000000036 .LLST12
     /tmp/ccyKCoXx.s:442    .text:0000000000000268 .LVL31
     /tmp/ccyKCoXx.s:390    .text:000000000000023c .LFE32
GAS LISTING /tmp/ccyKCoXx.s 			page 25


     /tmp/ccyKCoXx.s:3057   .debug_loc:000000000000006f .LLST8
     /tmp/ccyKCoXx.s:332    .text:00000000000001e4 .LBB15
     /tmp/ccyKCoXx.s:348    .text:00000000000001f4 .LBE15
     /tmp/ccyKCoXx.s:3086   .debug_loc:00000000000000e4 .LLST9
     /tmp/ccyKCoXx.s:3095   .debug_loc:0000000000000109 .LLST10
     /tmp/ccyKCoXx.s:343    .text:00000000000001f0 .LVL23
     /tmp/ccyKCoXx.s:359    .text:0000000000000208 .LBB17
     /tmp/ccyKCoXx.s:373    .text:0000000000000220 .LBE17
     /tmp/ccyKCoXx.s:3103   .debug_loc:000000000000012d .LLST11
     /tmp/ccyKCoXx.s:365    .text:0000000000000214 .LVL27
     /tmp/ccyKCoXx.s:353    .text:0000000000000200 .LVL25
     /tmp/ccyKCoXx.s:369    .text:0000000000000220 .LVL28
     /tmp/ccyKCoXx.s:236    .text:0000000000000154 .LFB31
     /tmp/ccyKCoXx.s:305    .text:00000000000001c8 .LFE31
     /tmp/ccyKCoXx.s:3110   .debug_loc:0000000000000150 .LLST3
     /tmp/ccyKCoXx.s:3128   .debug_loc:000000000000019c .LLST4
     /tmp/ccyKCoXx.s:3146   .debug_loc:00000000000001e8 .LLST5
     /tmp/ccyKCoXx.s:261    .text:0000000000000180 .LBB13
     /tmp/ccyKCoXx.s:276    .text:0000000000000190 .LBE13
     /tmp/ccyKCoXx.s:3164   .debug_loc:0000000000000234 .LLST6
     /tmp/ccyKCoXx.s:3173   .debug_loc:0000000000000259 .LLST7
     /tmp/ccyKCoXx.s:272    .text:000000000000018c .LVL14
     /tmp/ccyKCoXx.s:282    .text:00000000000001a4 .LVL16
     /tmp/ccyKCoXx.s:3452   .debug_str:00000000000005c9 .LASF130
     /tmp/ccyKCoXx.s:3398   .debug_str:0000000000000476 .LASF131
     /tmp/ccyKCoXx.s:187    .text:0000000000000128 .LFB29
     /tmp/ccyKCoXx.s:220    .text:0000000000000154 .LFE29
     /tmp/ccyKCoXx.s:3181   .debug_loc:000000000000027d .LLST2
     /tmp/ccyKCoXx.s:207    .text:0000000000000144 .LVL10
     /tmp/ccyKCoXx.s:3530   .debug_str:0000000000000929 .LASF132
     /tmp/ccyKCoXx.s:88     .text:0000000000000080 .LFB26
     /tmp/ccyKCoXx.s:179    .text:0000000000000128 .LFE26
     /tmp/ccyKCoXx.s:3195   .debug_loc:00000000000002b6 .LLST0
     /tmp/ccyKCoXx.s:3217   .debug_loc:0000000000000315 .LLST1
     /tmp/ccyKCoXx.s:123    .text:00000000000000d0 .LVL3
     /tmp/ccyKCoXx.s:3504   .debug_str:000000000000082f .LASF133
     /tmp/ccyKCoXx.s:10     .text:0000000000000000 .LFB23
     /tmp/ccyKCoXx.s:80     .text:0000000000000080 .LFE23
     /tmp/ccyKCoXx.s:3510   .debug_str:000000000000087f .LASF146
     /tmp/ccyKCoXx.s:3278   .debug_str:000000000000007f .LASF134
     /tmp/ccyKCoXx.s:3304   .debug_str:000000000000016d .LASF136
     /tmp/ccyKCoXx.s:3486   .debug_str:00000000000006c9 .LASF135
     /tmp/ccyKCoXx.s:503    .text:00000000000002b4 .LVL33
     /tmp/ccyKCoXx.s:549    .text:0000000000000314 .LVL36
     /tmp/ccyKCoXx.s:553    .text:000000000000031c .LVL37
     /tmp/ccyKCoXx.s:418    .text:000000000000023c .LVL30
     /tmp/ccyKCoXx.s:316    .text:00000000000001c8 .LVL20
     /tmp/ccyKCoXx.s:340    .text:00000000000001e8 .LVL22
     /tmp/ccyKCoXx.s:358    .text:0000000000000208 .LVL26
     /tmp/ccyKCoXx.s:385    .text:0000000000000234 .LVL29
     /tmp/ccyKCoXx.s:331    .text:00000000000001e4 .LVL21
     /tmp/ccyKCoXx.s:346    .text:00000000000001f4 .LVL24
     /tmp/ccyKCoXx.s:239    .text:0000000000000154 .LVL11
     /tmp/ccyKCoXx.s:270    .text:0000000000000184 .LVL13
     /tmp/ccyKCoXx.s:294    .text:00000000000001b8 .LVL17
     /tmp/ccyKCoXx.s:297    .text:00000000000001bc .LVL18
     /tmp/ccyKCoXx.s:300    .text:00000000000001c0 .LVL19
GAS LISTING /tmp/ccyKCoXx.s 			page 26


     /tmp/ccyKCoXx.s:260    .text:0000000000000180 .LVL12
     /tmp/ccyKCoXx.s:274    .text:0000000000000190 .LVL15
     /tmp/ccyKCoXx.s:192    .text:0000000000000128 .LVL8
     /tmp/ccyKCoXx.s:205    .text:000000000000013c .LVL9
     /tmp/ccyKCoXx.s:91     .text:0000000000000080 .LVL1
     /tmp/ccyKCoXx.s:121    .text:00000000000000c8 .LVL2
     /tmp/ccyKCoXx.s:154    .text:0000000000000104 .LVL4
     /tmp/ccyKCoXx.s:161    .text:0000000000000110 .LVL6
     /tmp/ccyKCoXx.s:157    .text:0000000000000108 .LVL5
     /tmp/ccyKCoXx.s:168    .text:0000000000000118 .LVL7
     /tmp/ccyKCoXx.s:688    .debug_info:0000000000000000 .Ldebug_info0
     /tmp/ccyKCoXx.s:223    .gcc_except_table:0000000000000000 .LLSDA29
     /tmp/ccyKCoXx.s:392    .gcc_except_table:0000000000000004 .LLSDA32

UNDEFINED SYMBOLS
_Znam
_ZN15MemoryAllocator8mem_freeEPv
__gxx_personality_v0
_ZN15MemoryAllocator9mem_allocEm
_Unwind_Resume
_ZN9Scheduler3putEP7KThread
_ZN9Scheduler3getEv
_ZN7KThread13contextSwitchEPNS_7ContextES1_
_ZN5Riscv10popSppSpieEv
