GAS LISTING /tmp/ccgL6QKH.s 			page 1


   1              		.file	"KThread.cpp"
   2              		.option pic
   3              		.option norelax
   4              		.text
   5              	.Ltext0:
   6              		.align	2
   7              		.globl	_ZN7KThreadC2EPFvPvES0_S0_
   9              	_ZN7KThreadC2EPFvPvES0_S0_:
  10              	.LFB7:
  11              		.file 1 "src/KThread.cpp"
   1:src/KThread.cpp **** //
   2:src/KThread.cpp **** // Created by os on 10/8/25.
   3:src/KThread.cpp **** //
   4:src/KThread.cpp **** 
   5:src/KThread.cpp **** #include "../h/KThread.hpp"
   6:src/KThread.cpp **** #include "../h/Scheduler.hpp"
   7:src/KThread.cpp **** #include "../lib/hw.h"
   8:src/KThread.cpp **** 
   9:src/KThread.cpp **** KThread* KThread::running = nullptr;
  10:src/KThread.cpp **** 
  11:src/KThread.cpp **** int KThread::staticId = 0;
  12:src/KThread.cpp **** 
  13:src/KThread.cpp **** KThread::KThread(Body body, void* args, void* stack)
  12              		.loc 1 13 1
  13              		.cfi_startproc
  14              	.LVL0:
  15 0000 130101FF 		addi	sp,sp,-16
  16              		.cfi_def_cfa_offset 16
  17 0004 23348100 		sd	s0,8(sp)
  18              		.cfi_offset 8, -8
  19 0008 13040101 		addi	s0,sp,16
  20              		.cfi_def_cfa 8, 0
  21              	.LBB8:
  14:src/KThread.cpp ****     : body(body), id(staticId++), args(args), stack(body != nullptr ? (char*)stack : nullptr),
  15:src/KThread.cpp ****     context({body != nullptr ? (uint64)&wrapper : 0, stack != nullptr ? (uint64)&this->stack[DEFAUL
  16:src/KThread.cpp ****     state(NEW) {
  22              		.loc 1 16 14 is_stmt 0
  23 000c 2330B500 		sd	a1,0(a0)
  14:src/KThread.cpp ****     : body(body), id(staticId++), args(args), stack(body != nullptr ? (char*)stack : nullptr),
  24              		.loc 1 14 30
  25 0010 17070000 		lla	a4,.LANCHOR0
  25      13070700 
  26 0018 83270700 		lw	a5,0(a4)
  27 001c 1B881700 		addiw	a6,a5,1
  28 0020 23200701 		sw	a6,0(a4)
  29              		.loc 1 16 14
  30 0024 2324F500 		sw	a5,8(a0)
  31 0028 2338C500 		sd	a2,16(a0)
  14:src/KThread.cpp ****     : body(body), id(staticId++), args(args), stack(body != nullptr ? (char*)stack : nullptr),
  32              		.loc 1 14 69
  33 002c 638E0502 		beqz	a1,.L5
  34 0030 93870600 		mv	a5,a3
  35              	.L2:
  36              		.loc 1 16 14
  37 0034 233CF500 		sd	a5,24(a0)
  15:src/KThread.cpp ****     state(NEW) {
  38              		.loc 1 15 30
GAS LISTING /tmp/ccgL6QKH.s 			page 2


  39 0038 638C0502 		beqz	a1,.L6
  15:src/KThread.cpp ****     state(NEW) {
  40              		.loc 1 15 30 discriminator 1
  41 003c 17070000 		lla	a4,_ZN7KThread7wrapperEv
  41      13070700 
  42              	.L3:
  43              		.loc 1 16 14 discriminator 4
  44 0044 2330E502 		sd	a4,32(a0)
  15:src/KThread.cpp ****     state(NEW) {
  45              		.loc 1 15 71 discriminator 4
  46 0048 63880602 		beqz	a3,.L7
  15:src/KThread.cpp ****     state(NEW) {
  47              		.loc 1 15 81 discriminator 5
  48 004c 37170000 		li	a4,4096
  49 0050 B387E700 		add	a5,a5,a4
  50              	.L4:
  51              		.loc 1 16 14
  52 0054 2334F502 		sd	a5,40(a0)
  53 0058 23280502 		sw	zero,48(a0)
  17:src/KThread.cpp ****     if (body != nullptr) {
  54              		.loc 1 17 5 is_stmt 1
  55              	.LBE8:
  18:src/KThread.cpp ****         //Scheduler::put(this);
  19:src/KThread.cpp ****     }
  20:src/KThread.cpp **** }
  56              		.loc 1 20 1 is_stmt 0
  57 005c 03348100 		ld	s0,8(sp)
  58              		.cfi_remember_state
  59              		.cfi_restore 8
  60              		.cfi_def_cfa 2, 16
  61 0060 13010101 		addi	sp,sp,16
  62              		.cfi_def_cfa_offset 0
  63 0064 67800000 		jr	ra
  64              	.L5:
  65              		.cfi_restore_state
  66              	.LBB9:
  14:src/KThread.cpp ****     context({body != nullptr ? (uint64)&wrapper : 0, stack != nullptr ? (uint64)&this->stack[DEFAUL
  67              		.loc 1 14 69
  68 0068 93070000 		li	a5,0
  69 006c 6FF09FFC 		j	.L2
  70              	.L6:
  15:src/KThread.cpp ****     state(NEW) {
  71              		.loc 1 15 30
  72 0070 13070000 		li	a4,0
  73 0074 6FF01FFD 		j	.L3
  74              	.L7:
  15:src/KThread.cpp ****     state(NEW) {
  75              		.loc 1 15 71
  76 0078 93070000 		li	a5,0
  77 007c 6FF09FFD 		j	.L4
  78              	.LBE9:
  79              		.cfi_endproc
  80              	.LFE7:
  82              		.globl	_ZN7KThreadC1EPFvPvES0_S0_
  83              		.set	_ZN7KThreadC1EPFvPvES0_S0_,_ZN7KThreadC2EPFvPvES0_S0_
  84              		.align	2
  85              		.globl	_ZN7KThreadC2EPFvPvE
GAS LISTING /tmp/ccgL6QKH.s 			page 3


  87              	_ZN7KThreadC2EPFvPvE:
  88              	.LFB10:
  21:src/KThread.cpp **** 
  22:src/KThread.cpp **** KThread::KThread(Body body)
  89              		.loc 1 22 1 is_stmt 1
  90              		.cfi_startproc
  91              	.LVL1:
  92 0080 130101FE 		addi	sp,sp,-32
  93              		.cfi_def_cfa_offset 32
  94 0084 233C1100 		sd	ra,24(sp)
  95 0088 23388100 		sd	s0,16(sp)
  96 008c 23349100 		sd	s1,8(sp)
  97 0090 23302101 		sd	s2,0(sp)
  98              		.cfi_offset 1, -8
  99              		.cfi_offset 8, -16
 100              		.cfi_offset 9, -24
 101              		.cfi_offset 18, -32
 102 0094 13040102 		addi	s0,sp,32
 103              		.cfi_def_cfa 8, 0
 104 0098 93040500 		mv	s1,a0
 105 009c 13890500 		mv	s2,a1
 106              	.LBB10:
  23:src/KThread.cpp ****     : body(body), id(staticId++), args(nullptr), stack(body != nullptr ? new char[DEFAULT_STACK_SIZ
  24:src/KThread.cpp ****     context({body != nullptr ? (uint64)&wrapper : 0, stack != nullptr ? (uint64) &stack[DEFAULT_STA
  25:src/KThread.cpp ****     state(NEW) {
 107              		.loc 1 25 14 is_stmt 0
 108 00a0 2330B500 		sd	a1,0(a0)
  23:src/KThread.cpp ****     : body(body), id(staticId++), args(nullptr), stack(body != nullptr ? new char[DEFAULT_STACK_SIZ
 109              		.loc 1 23 30
 110 00a4 17070000 		lla	a4,.LANCHOR0
 110      13070700 
 111 00ac 83270700 		lw	a5,0(a4)
 112 00b0 9B861700 		addiw	a3,a5,1
 113 00b4 2320D700 		sw	a3,0(a4)
 114              		.loc 1 25 14
 115 00b8 2324F500 		sw	a5,8(a0)
 116 00bc 23380500 		sd	zero,16(a0)
  23:src/KThread.cpp ****     : body(body), id(staticId++), args(nullptr), stack(body != nullptr ? new char[DEFAULT_STACK_SIZ
 117              		.loc 1 23 72
 118 00c0 63880504 		beqz	a1,.L13
  23:src/KThread.cpp ****     : body(body), id(staticId++), args(nullptr), stack(body != nullptr ? new char[DEFAULT_STACK_SIZ
 119              		.loc 1 23 101 discriminator 1
 120 00c4 37150000 		li	a0,4096
 121              	.LVL2:
 122 00c8 97000000 		call	_Znam@plt
 122      E7800000 
 123              	.LVL3:
 124              	.L10:
 125              		.loc 1 25 14
 126 00d0 23BCA400 		sd	a0,24(s1)
  24:src/KThread.cpp ****     state(NEW) {
 127              		.loc 1 24 30
 128 00d4 63020904 		beqz	s2,.L14
  24:src/KThread.cpp ****     state(NEW) {
 129              		.loc 1 24 30 discriminator 1
 130 00d8 97070000 		lla	a5,_ZN7KThread7wrapperEv
 130      93870700 
GAS LISTING /tmp/ccgL6QKH.s 			page 4


 131              	.L11:
 132              		.loc 1 25 14 discriminator 4
 133 00e0 23B0F402 		sd	a5,32(s1)
  24:src/KThread.cpp ****     state(NEW) {
 134              		.loc 1 24 71 discriminator 4
 135 00e4 630E0502 		beqz	a0,.L15
  24:src/KThread.cpp ****     state(NEW) {
 136              		.loc 1 24 82 discriminator 5
 137 00e8 B7170000 		li	a5,4096
 138 00ec 3305F500 		add	a0,a0,a5
 139              	.L12:
 140              		.loc 1 25 14
 141 00f0 23B4A402 		sd	a0,40(s1)
 142 00f4 23A80402 		sw	zero,48(s1)
  26:src/KThread.cpp ****     if (body != nullptr) {
 143              		.loc 1 26 5 is_stmt 1
 144              	.LBE10:
  27:src/KThread.cpp ****         //Scheduler::put(this);
  28:src/KThread.cpp ****     }
  29:src/KThread.cpp **** }
 145              		.loc 1 29 1 is_stmt 0
 146 00f8 83308101 		ld	ra,24(sp)
 147              		.cfi_remember_state
 148              		.cfi_restore 1
 149 00fc 03340101 		ld	s0,16(sp)
 150              		.cfi_restore 8
 151              		.cfi_def_cfa 2, 32
 152 0100 83348100 		ld	s1,8(sp)
 153              		.cfi_restore 9
 154              	.LVL4:
 155 0104 03390100 		ld	s2,0(sp)
 156              		.cfi_restore 18
 157              	.LVL5:
 158 0108 13010102 		addi	sp,sp,32
 159              		.cfi_def_cfa_offset 0
 160 010c 67800000 		jr	ra
 161              	.LVL6:
 162              	.L13:
 163              		.cfi_restore_state
 164              	.LBB11:
  23:src/KThread.cpp ****     context({body != nullptr ? (uint64)&wrapper : 0, stack != nullptr ? (uint64) &stack[DEFAULT_STA
 165              		.loc 1 23 72
 166 0110 13050000 		li	a0,0
 167 0114 6FF0DFFB 		j	.L10
 168              	.LVL7:
 169              	.L14:
  24:src/KThread.cpp ****     state(NEW) {
 170              		.loc 1 24 30
 171 0118 93070000 		li	a5,0
 172 011c 6FF05FFC 		j	.L11
 173              	.L15:
  24:src/KThread.cpp ****     state(NEW) {
 174              		.loc 1 24 71
 175 0120 13050000 		li	a0,0
 176 0124 6FF0DFFC 		j	.L12
 177              	.LBE11:
 178              		.cfi_endproc
GAS LISTING /tmp/ccgL6QKH.s 			page 5


 179              	.LFE10:
 181              		.globl	_ZN7KThreadC1EPFvPvE
 182              		.set	_ZN7KThreadC1EPFvPvE,_ZN7KThreadC2EPFvPvE
 183              		.align	2
 184              		.globl	_ZN7KThreadD2Ev
 186              	_ZN7KThreadD2Ev:
 187              	.LFB13:
  30:src/KThread.cpp **** 
  31:src/KThread.cpp **** KThread::~KThread() {
 188              		.loc 1 31 1 is_stmt 1
 189              		.cfi_startproc
 190              		.cfi_personality 0x9b,DW.ref.__gxx_personality_v0
 191              		.cfi_lsda 0x1b,.LLSDA13
 192              	.LVL8:
 193              	.LBB12:
  32:src/KThread.cpp ****     if (stack) {
 194              		.loc 1 32 5
 195              		.loc 1 32 9 is_stmt 0
 196 0128 03358501 		ld	a0,24(a0)
 197              	.LVL9:
 198              		.loc 1 32 5
 199 012c 63060502 		beqz	a0,.L20
 200              	.LBE12:
  31:src/KThread.cpp ****     if (stack) {
 201              		.loc 1 31 1
 202 0130 130101FF 		addi	sp,sp,-16
 203              		.cfi_def_cfa_offset 16
 204 0134 23341100 		sd	ra,8(sp)
 205 0138 23308100 		sd	s0,0(sp)
 206              		.cfi_offset 1, -8
 207              		.cfi_offset 8, -16
 208 013c 13040101 		addi	s0,sp,16
 209              		.cfi_def_cfa 8, 0
 210              	.LBB13:
  33:src/KThread.cpp ****         MemoryAllocator::mem_free(stack);
 211              		.loc 1 33 9 is_stmt 1
 212              		.loc 1 33 34 is_stmt 0
 213 0140 97000000 		call	_ZN15MemoryAllocator8mem_freeEPv@plt
 213      E7800000 
 214              	.LVL10:
  34:src/KThread.cpp ****         stack = nullptr;
 215              		.loc 1 34 9 is_stmt 1
 216              	.LBE13:
  35:src/KThread.cpp ****     }
  36:src/KThread.cpp **** }
 217              		.loc 1 36 1 is_stmt 0
 218 0148 83308100 		ld	ra,8(sp)
 219              		.cfi_restore 1
 220 014c 03340100 		ld	s0,0(sp)
 221              		.cfi_restore 8
 222              		.cfi_def_cfa 2, 16
 223 0150 13010101 		addi	sp,sp,16
 224              		.cfi_def_cfa_offset 0
 225 0154 67800000 		jr	ra
 226              	.L20:
 227 0158 67800000 		ret
 228              		.cfi_endproc
GAS LISTING /tmp/ccgL6QKH.s 			page 6


 229              	.LFE13:
 230              		.globl	__gxx_personality_v0
 231              		.section	.gcc_except_table,"a",@progbits
 232              	.LLSDA13:
 233 0000 FF       		.byte	0xff
 234 0001 FF       		.byte	0xff
 235 0002 03       		.byte	0x3
 236 0003 00       		.byte	0
 237              		.text
 239              		.globl	_ZN7KThreadD1Ev
 240              		.set	_ZN7KThreadD1Ev,_ZN7KThreadD2Ev
 241              		.align	2
 242              		.globl	_ZN7KThread12createThreadEPFvPvES0_S0_
 244              	_ZN7KThread12createThreadEPFvPvES0_S0_:
 245              	.LFB15:
  37:src/KThread.cpp **** 
  38:src/KThread.cpp **** KThread* KThread::createThread(Body body, void* args, void* stack) {
 246              		.loc 1 38 68 is_stmt 1
 247              		.cfi_startproc
 248              	.LVL11:
 249 015c 130101FD 		addi	sp,sp,-48
 250              		.cfi_def_cfa_offset 48
 251 0160 23341102 		sd	ra,40(sp)
 252 0164 23308102 		sd	s0,32(sp)
 253 0168 233C9100 		sd	s1,24(sp)
 254 016c 23382101 		sd	s2,16(sp)
 255 0170 23343101 		sd	s3,8(sp)
 256 0174 23304101 		sd	s4,0(sp)
 257              		.cfi_offset 1, -8
 258              		.cfi_offset 8, -16
 259              		.cfi_offset 9, -24
 260              		.cfi_offset 18, -32
 261              		.cfi_offset 19, -40
 262              		.cfi_offset 20, -48
 263 0178 13040103 		addi	s0,sp,48
 264              		.cfi_def_cfa 8, 0
 265 017c 13090500 		mv	s2,a0
 266 0180 93890500 		mv	s3,a1
 267 0184 130A0600 		mv	s4,a2
  39:src/KThread.cpp ****     return new KThread(body, args, stack);
 268              		.loc 1 39 5
 269              	.LVL12:
 270              	.LBB14:
 271              	.LBB15:
 272              		.file 2 "src/../h/KThread.hpp"
   1:src/../h/KThread.hpp **** //
   2:src/../h/KThread.hpp **** // Created by os on 10/8/25.
   3:src/../h/KThread.hpp **** //
   4:src/../h/KThread.hpp **** 
   5:src/../h/KThread.hpp **** #ifndef PROJECT_BASE_THREAD_HPP
   6:src/../h/KThread.hpp **** #define PROJECT_BASE_THREAD_HPP
   7:src/../h/KThread.hpp **** 
   8:src/../h/KThread.hpp **** #include "MemoryAllocator.hpp"
   9:src/../h/KThread.hpp **** #include "../lib/hw.h"
  10:src/../h/KThread.hpp **** 
  11:src/../h/KThread.hpp **** enum ThreadState {
  12:src/../h/KThread.hpp ****     NEW,
GAS LISTING /tmp/ccgL6QKH.s 			page 7


  13:src/../h/KThread.hpp ****     READY,
  14:src/../h/KThread.hpp ****     RUNNING,
  15:src/../h/KThread.hpp ****     BLOCKED,
  16:src/../h/KThread.hpp ****     FINISHED
  17:src/../h/KThread.hpp **** };
  18:src/../h/KThread.hpp **** 
  19:src/../h/KThread.hpp **** class KThread {
  20:src/../h/KThread.hpp **** public:
  21:src/../h/KThread.hpp ****     static int staticId;
  22:src/../h/KThread.hpp ****     static KThread* running;
  23:src/../h/KThread.hpp **** 
  24:src/../h/KThread.hpp ****     friend class Scheduler;
  25:src/../h/KThread.hpp ****     friend class KSemaphore;
  26:src/../h/KThread.hpp **** 
  27:src/../h/KThread.hpp ****     using Body = void(*)(void*);
  28:src/../h/KThread.hpp **** 
  29:src/../h/KThread.hpp ****     ~KThread();
  30:src/../h/KThread.hpp **** 
  31:src/../h/KThread.hpp ****     static KThread* createThread(Body, void*, void*);
  32:src/../h/KThread.hpp ****     static KThread* createThread(Body);
  33:src/../h/KThread.hpp **** 
  34:src/../h/KThread.hpp ****     void start();                       // prepare and put in the Scheduler
  35:src/../h/KThread.hpp ****     void exit();                        // mark as finished (could be called from wrapper)
  36:src/../h/KThread.hpp ****     static void wrapper();              // static function - entry which calls body(arg) and exit
  37:src/../h/KThread.hpp **** 
  38:src/../h/KThread.hpp ****     ThreadState getState() const { return state; }
  39:src/../h/KThread.hpp ****     void setState(ThreadState s) { state = s; }
  40:src/../h/KThread.hpp **** 
  41:src/../h/KThread.hpp ****     static void yield();
  42:src/../h/KThread.hpp ****     static void dispatch();
  43:src/../h/KThread.hpp **** 
  44:src/../h/KThread.hpp ****     void* operator new(size_t size) {
  45:src/../h/KThread.hpp ****         size_t blocks = size / MEM_BLOCK_SIZE;
 273              		.loc 2 45 9
  46:src/../h/KThread.hpp ****         if (size % MEM_BLOCK_SIZE) blocks++;
 274              		.loc 2 46 9
 275              		.loc 2 46 36
  47:src/../h/KThread.hpp **** 
  48:src/../h/KThread.hpp ****         return MemoryAllocator::mem_alloc(blocks);
 276              		.loc 2 48 9
 277              		.loc 2 48 42 is_stmt 0
 278 0188 13052000 		li	a0,2
 279              	.LVL13:
 280 018c 97000000 		call	_ZN15MemoryAllocator9mem_allocEm@plt
 280      E7800000 
 281              	.LVL14:
 282 0194 93040500 		mv	s1,a0
 283              	.LVL15:
 284              	.LBE15:
 285              	.LBE14:
 286              		.loc 1 39 41
 287 0198 93060A00 		mv	a3,s4
 288 019c 13860900 		mv	a2,s3
 289 01a0 93050900 		mv	a1,s2
 290 01a4 97000000 		call	_ZN7KThreadC1EPFvPvES0_S0_
 290      E7800000 
 291              	.LVL16:
GAS LISTING /tmp/ccgL6QKH.s 			page 8


  40:src/KThread.cpp **** }
 292              		.loc 1 40 1
 293 01ac 13850400 		mv	a0,s1
 294 01b0 83308102 		ld	ra,40(sp)
 295              		.cfi_restore 1
 296 01b4 03340102 		ld	s0,32(sp)
 297              		.cfi_restore 8
 298              		.cfi_def_cfa 2, 48
 299 01b8 83348101 		ld	s1,24(sp)
 300              		.cfi_restore 9
 301 01bc 03390101 		ld	s2,16(sp)
 302              		.cfi_restore 18
 303              	.LVL17:
 304 01c0 83398100 		ld	s3,8(sp)
 305              		.cfi_restore 19
 306              	.LVL18:
 307 01c4 033A0100 		ld	s4,0(sp)
 308              		.cfi_restore 20
 309              	.LVL19:
 310 01c8 13010103 		addi	sp,sp,48
 311              		.cfi_def_cfa_offset 0
 312 01cc 67800000 		jr	ra
 313              		.cfi_endproc
 314              	.LFE15:
 316              		.align	2
 317              		.globl	_ZN7KThread12createThreadEPFvPvE
 319              	_ZN7KThread12createThreadEPFvPvE:
 320              	.LFB16:
  41:src/KThread.cpp **** 
  42:src/KThread.cpp **** KThread* KThread::createThread(Body body) {
 321              		.loc 1 42 43 is_stmt 1
 322              		.cfi_startproc
 323              		.cfi_personality 0x9b,DW.ref.__gxx_personality_v0
 324              		.cfi_lsda 0x1b,.LLSDA16
 325              	.LVL20:
 326 01d0 130101FE 		addi	sp,sp,-32
 327              		.cfi_def_cfa_offset 32
 328 01d4 233C1100 		sd	ra,24(sp)
 329 01d8 23388100 		sd	s0,16(sp)
 330 01dc 23349100 		sd	s1,8(sp)
 331 01e0 23302101 		sd	s2,0(sp)
 332              		.cfi_offset 1, -8
 333              		.cfi_offset 8, -16
 334              		.cfi_offset 9, -24
 335              		.cfi_offset 18, -32
 336 01e4 13040102 		addi	s0,sp,32
 337              		.cfi_def_cfa 8, 0
 338 01e8 13090500 		mv	s2,a0
  43:src/KThread.cpp ****     return new KThread(body);
 339              		.loc 1 43 5
 340              	.LVL21:
 341              	.LBB16:
 342              	.LBB17:
  45:src/../h/KThread.hpp ****         if (size % MEM_BLOCK_SIZE) blocks++;
 343              		.loc 2 45 9
  46:src/../h/KThread.hpp **** 
 344              		.loc 2 46 9
GAS LISTING /tmp/ccgL6QKH.s 			page 9


  46:src/../h/KThread.hpp **** 
 345              		.loc 2 46 36
 346              		.loc 2 48 9
 347              		.loc 2 48 42 is_stmt 0
 348 01ec 13052000 		li	a0,2
 349              	.LVL22:
 350              	.LEHB0:
 351 01f0 97000000 		call	_ZN15MemoryAllocator9mem_allocEm@plt
 351      E7800000 
 352              	.LVL23:
 353              	.LEHE0:
 354 01f8 93040500 		mv	s1,a0
 355              	.LVL24:
 356              	.LBE17:
 357              	.LBE16:
 358              		.loc 1 43 28
 359 01fc 93050900 		mv	a1,s2
 360              	.LEHB1:
 361 0200 97000000 		call	_ZN7KThreadC1EPFvPvE
 361      E7800000 
 362              	.LVL25:
 363              	.LEHE1:
 364 0208 6F000002 		j	.L30
 365              	.L27:
 366 020c 13090500 		mv	s2,a0
 367              	.LVL26:
 368              	.LBB18:
 369              	.LBB19:
  49:src/../h/KThread.hpp ****     }
  50:src/../h/KThread.hpp **** 
  51:src/../h/KThread.hpp ****     void operator delete(void* ptr) {
  52:src/../h/KThread.hpp ****         MemoryAllocator::mem_free(ptr);
 370              		.loc 2 52 9 is_stmt 1
 371              		.loc 2 52 34 is_stmt 0
 372 0210 13850400 		mv	a0,s1
 373 0214 97000000 		call	_ZN15MemoryAllocator8mem_freeEPv@plt
 373      E7800000 
 374              	.LVL27:
 375 021c 13050900 		mv	a0,s2
 376              	.LEHB2:
 377 0220 97000000 		call	_Unwind_Resume@plt
 377      E7800000 
 378              	.LVL28:
 379              	.LEHE2:
 380              	.L30:
 381              	.LBE19:
 382              	.LBE18:
  44:src/KThread.cpp **** }
 383              		.loc 1 44 1
 384 0228 13850400 		mv	a0,s1
 385 022c 83308101 		ld	ra,24(sp)
 386              		.cfi_restore 1
 387 0230 03340101 		ld	s0,16(sp)
 388              		.cfi_restore 8
 389              		.cfi_def_cfa 2, 32
 390 0234 83348100 		ld	s1,8(sp)
 391              		.cfi_restore 9
GAS LISTING /tmp/ccgL6QKH.s 			page 10


 392 0238 03390100 		ld	s2,0(sp)
 393              		.cfi_restore 18
 394              	.LVL29:
 395 023c 13010102 		addi	sp,sp,32
 396              		.cfi_def_cfa_offset 0
 397 0240 67800000 		jr	ra
 398              		.cfi_endproc
 399              	.LFE16:
 400              		.section	.gcc_except_table
 401              	.LLSDA16:
 402 0004 FF       		.byte	0xff
 403 0005 FF       		.byte	0xff
 404 0006 03       		.byte	0x3
 405 0007 27       		.byte	0x27
 406 0008 00000000 		.4byte	.LEHB0-.LFB16
 407 000c 00000000 		.4byte	.LEHE0-.LEHB0
 408 0010 00000000 		.4byte	0
 409 0014 00       		.byte	0
 410 0015 00000000 		.4byte	.LEHB1-.LFB16
 411 0019 00000000 		.4byte	.LEHE1-.LEHB1
 412 001d 00000000 		.4byte	.L27-.LFB16
 413 0021 00       		.byte	0
 414 0022 00000000 		.4byte	.LEHB2-.LFB16
 415 0026 00000000 		.4byte	.LEHE2-.LEHB2
 416 002a 00000000 		.4byte	0
 417 002e 00       		.byte	0
 418              		.text
 420              		.align	2
 421              		.globl	_ZN7KThread5startEv
 423              	_ZN7KThread5startEv:
 424              	.LFB17:
  45:src/KThread.cpp **** 
  46:src/KThread.cpp **** void KThread::start() {
 425              		.loc 1 46 23 is_stmt 1
 426              		.cfi_startproc
 427              	.LVL30:
  47:src/KThread.cpp ****     if (state != NEW) return;
 428              		.loc 1 47 5
 429              		.loc 1 47 9 is_stmt 0
 430 0244 83270503 		lw	a5,48(a0)
 431              		.loc 1 47 5
 432 0248 63840700 		beqz	a5,.L37
 433 024c 67800000 		ret
 434              	.L37:
  46:src/KThread.cpp ****     if (state != NEW) return;
 435              		.loc 1 46 23
 436 0250 130101FF 		addi	sp,sp,-16
 437              		.cfi_def_cfa_offset 16
 438 0254 23341100 		sd	ra,8(sp)
 439 0258 23308100 		sd	s0,0(sp)
 440              		.cfi_offset 1, -8
 441              		.cfi_offset 8, -16
 442 025c 13040101 		addi	s0,sp,16
 443              		.cfi_def_cfa 8, 0
  48:src/KThread.cpp **** 
  49:src/KThread.cpp ****     state = READY;
 444              		.loc 1 49 5 is_stmt 1
GAS LISTING /tmp/ccgL6QKH.s 			page 11


 445              		.loc 1 49 11 is_stmt 0
 446 0260 93071000 		li	a5,1
 447 0264 2328F502 		sw	a5,48(a0)
  50:src/KThread.cpp ****     Scheduler::put(this);
 448              		.loc 1 50 5 is_stmt 1
 449              		.loc 1 50 19 is_stmt 0
 450 0268 97000000 		call	_ZN9Scheduler3putEP7KThread@plt
 450      E7800000 
 451              	.LVL31:
  51:src/KThread.cpp **** }
 452              		.loc 1 51 1
 453 0270 83308100 		ld	ra,8(sp)
 454              		.cfi_restore 1
 455 0274 03340100 		ld	s0,0(sp)
 456              		.cfi_restore 8
 457              		.cfi_def_cfa 2, 16
 458 0278 13010101 		addi	sp,sp,16
 459              		.cfi_def_cfa_offset 0
 460 027c 67800000 		jr	ra
 461              		.cfi_endproc
 462              	.LFE17:
 464              		.align	2
 465              		.globl	_ZN7KThread4exitEv
 467              	_ZN7KThread4exitEv:
 468              	.LFB18:
  52:src/KThread.cpp **** 
  53:src/KThread.cpp **** void KThread::exit() {
 469              		.loc 1 53 22 is_stmt 1
 470              		.cfi_startproc
 471              	.LVL32:
 472 0280 130101FF 		addi	sp,sp,-16
 473              		.cfi_def_cfa_offset 16
 474 0284 23348100 		sd	s0,8(sp)
 475              		.cfi_offset 8, -8
 476 0288 13040101 		addi	s0,sp,16
 477              		.cfi_def_cfa 8, 0
  54:src/KThread.cpp ****     state = FINISHED;
 478              		.loc 1 54 5
 479              		.loc 1 54 11 is_stmt 0
 480 028c 93074000 		li	a5,4
 481 0290 2328F502 		sw	a5,48(a0)
  55:src/KThread.cpp **** }
 482              		.loc 1 55 1
 483 0294 03348100 		ld	s0,8(sp)
 484              		.cfi_restore 8
 485              		.cfi_def_cfa 2, 16
 486 0298 13010101 		addi	sp,sp,16
 487              		.cfi_def_cfa_offset 0
 488 029c 67800000 		jr	ra
 489              		.cfi_endproc
 490              	.LFE18:
 492              		.align	2
 493              		.globl	_ZN7KThread8dispatchEv
 495              	_ZN7KThread8dispatchEv:
 496              	.LFB20:
  56:src/KThread.cpp **** 
  57:src/KThread.cpp **** void KThread::wrapper() {
GAS LISTING /tmp/ccgL6QKH.s 			page 12


  58:src/KThread.cpp ****     running->body(running->args);
  59:src/KThread.cpp ****     running->exit();
  60:src/KThread.cpp ****     yield();
  61:src/KThread.cpp **** }
  62:src/KThread.cpp **** 
  63:src/KThread.cpp **** void KThread::dispatch() {
 497              		.loc 1 63 26 is_stmt 1
 498              		.cfi_startproc
 499 02a0 130101FE 		addi	sp,sp,-32
 500              		.cfi_def_cfa_offset 32
 501 02a4 233C1100 		sd	ra,24(sp)
 502 02a8 23388100 		sd	s0,16(sp)
 503 02ac 23349100 		sd	s1,8(sp)
 504              		.cfi_offset 1, -8
 505              		.cfi_offset 8, -16
 506              		.cfi_offset 9, -24
 507 02b0 13040102 		addi	s0,sp,32
 508              		.cfi_def_cfa 8, 0
  64:src/KThread.cpp ****     KThread* old = running;
 509              		.loc 1 64 5
 510              		.loc 1 64 14 is_stmt 0
 511 02b4 97040000 		ld	s1,.LANCHOR0+8
 511      83B40400 
 512              	.LVL33:
  65:src/KThread.cpp **** 
  66:src/KThread.cpp ****     if (old && old->state != FINISHED) {
 513              		.loc 1 66 5 is_stmt 1
 514 02bc 63880400 		beqz	s1,.L41
 515              		.loc 1 66 21 is_stmt 0 discriminator 1
 516 02c0 03A70403 		lw	a4,48(s1)
 517              		.loc 1 66 13 discriminator 1
 518 02c4 93074000 		li	a5,4
 519 02c8 631EF704 		bne	a4,a5,.L45
 520              	.L41:
  67:src/KThread.cpp ****         old->state = READY;
  68:src/KThread.cpp ****         Scheduler::put(old);
  69:src/KThread.cpp ****     }
  70:src/KThread.cpp **** 
  71:src/KThread.cpp ****     running = Scheduler::get();
 521              		.loc 1 71 5 is_stmt 1
 522              		.loc 1 71 29 is_stmt 0
 523 02cc 97000000 		call	_ZN9Scheduler3getEv@plt
 523      E7800000 
 524              	.LVL34:
 525              		.loc 1 71 13
 526 02d4 97070000 		sd	a0,.LANCHOR0+8,a5
 526      23B0A700 
  72:src/KThread.cpp ****     if (!running) return;
 527              		.loc 1 72 5 is_stmt 1
 528 02dc 630A0502 		beqz	a0,.L40
  73:src/KThread.cpp **** 
  74:src/KThread.cpp ****     running->state = RUNNING;
 529              		.loc 1 74 5
 530              		.loc 1 74 20 is_stmt 0
 531 02e0 93072000 		li	a5,2
 532 02e4 2328F502 		sw	a5,48(a0)
  75:src/KThread.cpp **** 
GAS LISTING /tmp/ccgL6QKH.s 			page 13


  76:src/KThread.cpp ****     if (old && old->state == FINISHED) {
 533              		.loc 1 76 5 is_stmt 1
 534 02e8 63880400 		beqz	s1,.L43
 535              		.loc 1 76 21 is_stmt 0 discriminator 1
 536 02ec 03A70403 		lw	a4,48(s1)
 537              		.loc 1 76 13 discriminator 1
 538 02f0 93074000 		li	a5,4
 539 02f4 6304F704 		beq	a4,a5,.L46
 540              	.L43:
  77:src/KThread.cpp ****         MemoryAllocator::mem_free(old->stack);
  78:src/KThread.cpp ****         old->stack = nullptr;
  79:src/KThread.cpp ****     }
  80:src/KThread.cpp **** 
  81:src/KThread.cpp ****     contextSwitch(&old->context, &running->context);
 541              		.loc 1 81 5 is_stmt 1
 542              		.loc 1 81 18 is_stmt 0
 543 02f8 97050000 		ld	a1,.LANCHOR0+8
 543      83B50500 
 544 0300 93850502 		addi	a1,a1,32
 545 0304 13850402 		addi	a0,s1,32
 546 0308 97000000 		call	_ZN7KThread13contextSwitchEPNS_7ContextES1_@plt
 546      E7800000 
 547              	.LVL35:
 548              	.L40:
  82:src/KThread.cpp **** }
 549              		.loc 1 82 1
 550 0310 83308101 		ld	ra,24(sp)
 551              		.cfi_remember_state
 552              		.cfi_restore 1
 553 0314 03340101 		ld	s0,16(sp)
 554              		.cfi_restore 8
 555              		.cfi_def_cfa 2, 32
 556 0318 83348100 		ld	s1,8(sp)
 557              		.cfi_restore 9
 558              	.LVL36:
 559 031c 13010102 		addi	sp,sp,32
 560              		.cfi_def_cfa_offset 0
 561 0320 67800000 		jr	ra
 562              	.LVL37:
 563              	.L45:
 564              		.cfi_restore_state
  67:src/KThread.cpp ****         Scheduler::put(old);
 565              		.loc 1 67 9 is_stmt 1
  67:src/KThread.cpp ****         Scheduler::put(old);
 566              		.loc 1 67 20 is_stmt 0
 567 0324 93071000 		li	a5,1
 568 0328 23A8F402 		sw	a5,48(s1)
  68:src/KThread.cpp ****     }
 569              		.loc 1 68 9 is_stmt 1
  68:src/KThread.cpp ****     }
 570              		.loc 1 68 23 is_stmt 0
 571 032c 13850400 		mv	a0,s1
 572 0330 97000000 		call	_ZN9Scheduler3putEP7KThread@plt
 572      E7800000 
 573              	.LVL38:
 574 0338 6FF05FF9 		j	.L41
 575              	.L46:
GAS LISTING /tmp/ccgL6QKH.s 			page 14


  77:src/KThread.cpp ****         old->stack = nullptr;
 576              		.loc 1 77 9 is_stmt 1
  77:src/KThread.cpp ****         old->stack = nullptr;
 577              		.loc 1 77 34 is_stmt 0
 578 033c 03B58401 		ld	a0,24(s1)
 579 0340 97000000 		call	_ZN15MemoryAllocator8mem_freeEPv@plt
 579      E7800000 
 580              	.LVL39:
  78:src/KThread.cpp ****     }
 581              		.loc 1 78 9 is_stmt 1
  78:src/KThread.cpp ****     }
 582              		.loc 1 78 20 is_stmt 0
 583 0348 23BC0400 		sd	zero,24(s1)
 584 034c 6FF0DFFA 		j	.L43
 585              		.cfi_endproc
 586              	.LFE20:
 588              		.align	2
 589              		.globl	_ZN7KThread5yieldEv
 591              	_ZN7KThread5yieldEv:
 592              	.LFB21:
  83:src/KThread.cpp **** 
  84:src/KThread.cpp **** void KThread::yield() {
 593              		.loc 1 84 23 is_stmt 1
 594              		.cfi_startproc
 595 0350 130101FF 		addi	sp,sp,-16
 596              		.cfi_def_cfa_offset 16
 597 0354 23348100 		sd	s0,8(sp)
 598              		.cfi_offset 8, -8
 599 0358 13040101 		addi	s0,sp,16
 600              		.cfi_def_cfa 8, 0
  85:src/KThread.cpp ****     asm volatile ("li a0, 0x13");
 601              		.loc 1 85 5
 602              		.loc 1 85 33 is_stmt 0
 603              	#APP
 604              	# 85 "src/KThread.cpp" 1
  86              	    asm volatile ("ecall");
 605              		li a0, 0x13
 606              	# 0 "" 2
 607              		.loc 1 86 5 is_stmt 1
 608              		.loc 1 86 27 is_stmt 0
 609              	# 86 "src/KThread.cpp" 1
  87              	}...
 610              		ecall
 611              	# 0 "" 2
 612              		.loc 1 87 1
 613              	#NO_APP
 614 0364 03348100 		ld	s0,8(sp)
 615              		.cfi_restore 8
 616              		.cfi_def_cfa 2, 16
 617 0368 13010101 		addi	sp,sp,16
 618              		.cfi_def_cfa_offset 0
 619 036c 67800000 		jr	ra
 620              		.cfi_endproc
 621              	.LFE21:
 623              		.align	2
 624              		.globl	_ZN7KThread7wrapperEv
 626              	_ZN7KThread7wrapperEv:
GAS LISTING /tmp/ccgL6QKH.s 			page 15


 627              	.LFB19:
  57:src/KThread.cpp **** void KThread::wrapper() {
 628              		.loc 1 57 25 is_stmt 1
 629              		.cfi_startproc
 630 0370 130101FE 		addi	sp,sp,-32
 631              		.cfi_def_cfa_offset 32
 632 0374 233C1100 		sd	ra,24(sp)
 633 0378 23388100 		sd	s0,16(sp)
 634 037c 23349100 		sd	s1,8(sp)
 635              		.cfi_offset 1, -8
 636              		.cfi_offset 8, -16
 637              		.cfi_offset 9, -24
 638 0380 13040102 		addi	s0,sp,32
 639              		.cfi_def_cfa 8, 0
  58:src/KThread.cpp ****     running->body(running->args);
 640              		.loc 1 58 5
  58:src/KThread.cpp ****     running->body(running->args);
 641              		.loc 1 58 14 is_stmt 0
 642 0384 97040000 		lla	s1,.LANCHOR0
 642      93840400 
 643 038c 83B78400 		ld	a5,8(s1)
 644 0390 03B70700 		ld	a4,0(a5)
  58:src/KThread.cpp ****     running->body(running->args);
 645              		.loc 1 58 18
 646 0394 03B50701 		ld	a0,16(a5)
 647 0398 E7000700 		jalr	a4
 648              	.LVL40:
  59:src/KThread.cpp ****     running->exit();
 649              		.loc 1 59 5 is_stmt 1
  59:src/KThread.cpp ****     running->exit();
 650              		.loc 1 59 18 is_stmt 0
 651 039c 03B58400 		ld	a0,8(s1)
 652 03a0 97000000 		call	_ZN7KThread4exitEv
 652      E7800000 
 653              	.LVL41:
  60:src/KThread.cpp ****     yield();
 654              		.loc 1 60 5 is_stmt 1
  60:src/KThread.cpp ****     yield();
 655              		.loc 1 60 10 is_stmt 0
 656 03a8 97000000 		call	_ZN7KThread5yieldEv
 656      E7800000 
 657              	.LVL42:
  61:src/KThread.cpp **** }
 658              		.loc 1 61 1
 659 03b0 83308101 		ld	ra,24(sp)
 660              		.cfi_restore 1
 661 03b4 03340101 		ld	s0,16(sp)
 662              		.cfi_restore 8
 663              		.cfi_def_cfa 2, 32
 664 03b8 83348100 		ld	s1,8(sp)
 665              		.cfi_restore 9
 666 03bc 13010102 		addi	sp,sp,32
 667              		.cfi_def_cfa_offset 0
 668 03c0 67800000 		jr	ra
 669              		.cfi_endproc
 670              	.LFE19:
 672              		.globl	_ZN7KThread8staticIdE
GAS LISTING /tmp/ccgL6QKH.s 			page 16


 673              		.globl	_ZN7KThread7runningE
 674              		.bss
 675              		.align	3
 676              		.set	.LANCHOR0,. + 0
 679              	_ZN7KThread8staticIdE:
 680 0000 00000000 		.zero	4
 681 0004 00000000 		.zero	4
 684              	_ZN7KThread7runningE:
 685 0008 00000000 		.zero	8
 685      00000000 
 686              		.text
 687              	.Letext0:
 688              		.file 3 "src/../h/../lib/hw.h"
 689              		.file 4 "src/../h/MemoryAllocator.hpp"
 690              		.file 5 "src/../h/Scheduler.hpp"
 3263              		.align	3
 3266              	DW.ref.__gxx_personality_v0:
 3267 0000 00000000 		.dword	__gxx_personality_v0
 3267      00000000 
 3268              		.ident	"GCC: (Ubuntu 9.4.0-1ubuntu1~20.04) 9.4.0"
 3269              		.section	.note.GNU-stack,"",@progbits
GAS LISTING /tmp/ccgL6QKH.s 			page 17


DEFINED SYMBOLS
                            *ABS*:0000000000000000 KThread.cpp
     /tmp/ccgL6QKH.s:9      .text:0000000000000000 _ZN7KThreadC2EPFvPvES0_S0_
     /tmp/ccgL6QKH.s:13     .text:0000000000000000 .L0 
     /tmp/ccgL6QKH.s:15     .text:0000000000000000 .L0 
     /tmp/ccgL6QKH.s:16     .text:0000000000000004 .L0 
     /tmp/ccgL6QKH.s:18     .text:0000000000000008 .L0 
     /tmp/ccgL6QKH.s:20     .text:000000000000000c .L0 
     /tmp/ccgL6QKH.s:23     .text:000000000000000c .L0 
     /tmp/ccgL6QKH.s:25     .text:0000000000000010 .L0 
     /tmp/ccgL6QKH.s:30     .text:0000000000000024 .L0 
     /tmp/ccgL6QKH.s:33     .text:000000000000002c .L0 
     /tmp/ccgL6QKH.s:37     .text:0000000000000034 .L0 
     /tmp/ccgL6QKH.s:39     .text:0000000000000038 .L0 
     /tmp/ccgL6QKH.s:626    .text:0000000000000370 _ZN7KThread7wrapperEv
     /tmp/ccgL6QKH.s:41     .text:000000000000003c .L0 
     /tmp/ccgL6QKH.s:44     .text:0000000000000044 .L0 
     /tmp/ccgL6QKH.s:46     .text:0000000000000048 .L0 
     /tmp/ccgL6QKH.s:48     .text:000000000000004c .L0 
     /tmp/ccgL6QKH.s:52     .text:0000000000000054 .L0 
     /tmp/ccgL6QKH.s:56     .text:000000000000005c .L0 
     /tmp/ccgL6QKH.s:57     .text:000000000000005c .L0 
     /tmp/ccgL6QKH.s:58     .text:0000000000000060 .L0 
     /tmp/ccgL6QKH.s:59     .text:0000000000000060 .L0 
     /tmp/ccgL6QKH.s:60     .text:0000000000000060 .L0 
     /tmp/ccgL6QKH.s:62     .text:0000000000000064 .L0 
     /tmp/ccgL6QKH.s:65     .text:0000000000000068 .L0 
     /tmp/ccgL6QKH.s:68     .text:0000000000000068 .L0 
     /tmp/ccgL6QKH.s:72     .text:0000000000000070 .L0 
     /tmp/ccgL6QKH.s:76     .text:0000000000000078 .L0 
     /tmp/ccgL6QKH.s:79     .text:0000000000000080 .L0 
     /tmp/ccgL6QKH.s:9      .text:0000000000000000 _ZN7KThreadC1EPFvPvES0_S0_
     /tmp/ccgL6QKH.s:87     .text:0000000000000080 _ZN7KThreadC2EPFvPvE
     /tmp/ccgL6QKH.s:90     .text:0000000000000080 .L0 
     /tmp/ccgL6QKH.s:92     .text:0000000000000080 .L0 
     /tmp/ccgL6QKH.s:93     .text:0000000000000084 .L0 
     /tmp/ccgL6QKH.s:98     .text:0000000000000094 .L0 
     /tmp/ccgL6QKH.s:99     .text:0000000000000094 .L0 
     /tmp/ccgL6QKH.s:100    .text:0000000000000094 .L0 
     /tmp/ccgL6QKH.s:101    .text:0000000000000094 .L0 
     /tmp/ccgL6QKH.s:103    .text:0000000000000098 .L0 
     /tmp/ccgL6QKH.s:108    .text:00000000000000a0 .L0 
     /tmp/ccgL6QKH.s:110    .text:00000000000000a4 .L0 
     /tmp/ccgL6QKH.s:115    .text:00000000000000b8 .L0 
     /tmp/ccgL6QKH.s:118    .text:00000000000000c0 .L0 
     /tmp/ccgL6QKH.s:120    .text:00000000000000c4 .L0 
     /tmp/ccgL6QKH.s:126    .text:00000000000000d0 .L0 
     /tmp/ccgL6QKH.s:128    .text:00000000000000d4 .L0 
     /tmp/ccgL6QKH.s:130    .text:00000000000000d8 .L0 
     /tmp/ccgL6QKH.s:133    .text:00000000000000e0 .L0 
     /tmp/ccgL6QKH.s:135    .text:00000000000000e4 .L0 
     /tmp/ccgL6QKH.s:137    .text:00000000000000e8 .L0 
     /tmp/ccgL6QKH.s:141    .text:00000000000000f0 .L0 
     /tmp/ccgL6QKH.s:145    .text:00000000000000f8 .L0 
     /tmp/ccgL6QKH.s:146    .text:00000000000000f8 .L0 
     /tmp/ccgL6QKH.s:147    .text:00000000000000fc .L0 
     /tmp/ccgL6QKH.s:148    .text:00000000000000fc .L0 
GAS LISTING /tmp/ccgL6QKH.s 			page 18


     /tmp/ccgL6QKH.s:150    .text:0000000000000100 .L0 
     /tmp/ccgL6QKH.s:151    .text:0000000000000100 .L0 
     /tmp/ccgL6QKH.s:153    .text:0000000000000104 .L0 
     /tmp/ccgL6QKH.s:156    .text:0000000000000108 .L0 
     /tmp/ccgL6QKH.s:159    .text:000000000000010c .L0 
     /tmp/ccgL6QKH.s:163    .text:0000000000000110 .L0 
     /tmp/ccgL6QKH.s:166    .text:0000000000000110 .L0 
     /tmp/ccgL6QKH.s:171    .text:0000000000000118 .L0 
     /tmp/ccgL6QKH.s:175    .text:0000000000000120 .L0 
     /tmp/ccgL6QKH.s:178    .text:0000000000000128 .L0 
     /tmp/ccgL6QKH.s:87     .text:0000000000000080 _ZN7KThreadC1EPFvPvE
     /tmp/ccgL6QKH.s:186    .text:0000000000000128 _ZN7KThreadD2Ev
     /tmp/ccgL6QKH.s:189    .text:0000000000000128 .L0 
     /tmp/ccgL6QKH.s:3266   .data.rel.local.DW.ref.__gxx_personality_v0:0000000000000000 DW.ref.__gxx_personality_v0
     /tmp/ccgL6QKH.s:194    .text:0000000000000128 .L0 
     /tmp/ccgL6QKH.s:195    .text:0000000000000128 .L0 
     /tmp/ccgL6QKH.s:196    .text:0000000000000128 .L0 
     /tmp/ccgL6QKH.s:199    .text:000000000000012c .L0 
     /tmp/ccgL6QKH.s:202    .text:0000000000000130 .L0 
     /tmp/ccgL6QKH.s:203    .text:0000000000000134 .L0 
     /tmp/ccgL6QKH.s:206    .text:000000000000013c .L0 
     /tmp/ccgL6QKH.s:207    .text:000000000000013c .L0 
     /tmp/ccgL6QKH.s:209    .text:0000000000000140 .L0 
     /tmp/ccgL6QKH.s:212    .text:0000000000000140 .L0 
     /tmp/ccgL6QKH.s:213    .text:0000000000000140 .L0 
     /tmp/ccgL6QKH.s:217    .text:0000000000000148 .L0 
     /tmp/ccgL6QKH.s:218    .text:0000000000000148 .L0 
     /tmp/ccgL6QKH.s:219    .text:000000000000014c .L0 
     /tmp/ccgL6QKH.s:221    .text:0000000000000150 .L0 
     /tmp/ccgL6QKH.s:222    .text:0000000000000150 .L0 
     /tmp/ccgL6QKH.s:224    .text:0000000000000154 .L0 
     /tmp/ccgL6QKH.s:228    .text:000000000000015c .L0 
     /tmp/ccgL6QKH.s:186    .text:0000000000000128 _ZN7KThreadD1Ev
     /tmp/ccgL6QKH.s:244    .text:000000000000015c _ZN7KThread12createThreadEPFvPvES0_S0_
     /tmp/ccgL6QKH.s:247    .text:000000000000015c .L0 
     /tmp/ccgL6QKH.s:249    .text:000000000000015c .L0 
     /tmp/ccgL6QKH.s:250    .text:0000000000000160 .L0 
     /tmp/ccgL6QKH.s:257    .text:0000000000000178 .L0 
     /tmp/ccgL6QKH.s:258    .text:0000000000000178 .L0 
     /tmp/ccgL6QKH.s:259    .text:0000000000000178 .L0 
     /tmp/ccgL6QKH.s:260    .text:0000000000000178 .L0 
     /tmp/ccgL6QKH.s:261    .text:0000000000000178 .L0 
     /tmp/ccgL6QKH.s:262    .text:0000000000000178 .L0 
     /tmp/ccgL6QKH.s:264    .text:000000000000017c .L0 
     /tmp/ccgL6QKH.s:273    .text:0000000000000188 .L0 
     /tmp/ccgL6QKH.s:274    .text:0000000000000188 .L0 
     /tmp/ccgL6QKH.s:275    .text:0000000000000188 .L0 
     /tmp/ccgL6QKH.s:276    .text:0000000000000188 .L0 
     /tmp/ccgL6QKH.s:277    .text:0000000000000188 .L0 
     /tmp/ccgL6QKH.s:278    .text:0000000000000188 .L0 
     /tmp/ccgL6QKH.s:287    .text:0000000000000198 .L0 
     /tmp/ccgL6QKH.s:293    .text:00000000000001ac .L0 
     /tmp/ccgL6QKH.s:295    .text:00000000000001b4 .L0 
     /tmp/ccgL6QKH.s:297    .text:00000000000001b8 .L0 
     /tmp/ccgL6QKH.s:298    .text:00000000000001b8 .L0 
     /tmp/ccgL6QKH.s:300    .text:00000000000001bc .L0 
     /tmp/ccgL6QKH.s:302    .text:00000000000001c0 .L0 
GAS LISTING /tmp/ccgL6QKH.s 			page 19


     /tmp/ccgL6QKH.s:305    .text:00000000000001c4 .L0 
     /tmp/ccgL6QKH.s:308    .text:00000000000001c8 .L0 
     /tmp/ccgL6QKH.s:311    .text:00000000000001cc .L0 
     /tmp/ccgL6QKH.s:313    .text:00000000000001d0 .L0 
     /tmp/ccgL6QKH.s:319    .text:00000000000001d0 _ZN7KThread12createThreadEPFvPvE
     /tmp/ccgL6QKH.s:322    .text:00000000000001d0 .L0 
     /tmp/ccgL6QKH.s:326    .text:00000000000001d0 .L0 
     /tmp/ccgL6QKH.s:327    .text:00000000000001d4 .L0 
     /tmp/ccgL6QKH.s:332    .text:00000000000001e4 .L0 
     /tmp/ccgL6QKH.s:333    .text:00000000000001e4 .L0 
     /tmp/ccgL6QKH.s:334    .text:00000000000001e4 .L0 
     /tmp/ccgL6QKH.s:335    .text:00000000000001e4 .L0 
     /tmp/ccgL6QKH.s:337    .text:00000000000001e8 .L0 
     /tmp/ccgL6QKH.s:343    .text:00000000000001ec .L0 
     /tmp/ccgL6QKH.s:344    .text:00000000000001ec .L0 
     /tmp/ccgL6QKH.s:345    .text:00000000000001ec .L0 
     /tmp/ccgL6QKH.s:346    .text:00000000000001ec .L0 
     /tmp/ccgL6QKH.s:347    .text:00000000000001ec .L0 
     /tmp/ccgL6QKH.s:348    .text:00000000000001ec .L0 
     /tmp/ccgL6QKH.s:359    .text:00000000000001fc .L0 
     /tmp/ccgL6QKH.s:371    .text:0000000000000210 .L0 
     /tmp/ccgL6QKH.s:372    .text:0000000000000210 .L0 
     /tmp/ccgL6QKH.s:384    .text:0000000000000228 .L0 
     /tmp/ccgL6QKH.s:386    .text:0000000000000230 .L0 
     /tmp/ccgL6QKH.s:388    .text:0000000000000234 .L0 
     /tmp/ccgL6QKH.s:389    .text:0000000000000234 .L0 
     /tmp/ccgL6QKH.s:391    .text:0000000000000238 .L0 
     /tmp/ccgL6QKH.s:393    .text:000000000000023c .L0 
     /tmp/ccgL6QKH.s:396    .text:0000000000000240 .L0 
     /tmp/ccgL6QKH.s:398    .text:0000000000000244 .L0 
     /tmp/ccgL6QKH.s:423    .text:0000000000000244 _ZN7KThread5startEv
     /tmp/ccgL6QKH.s:426    .text:0000000000000244 .L0 
     /tmp/ccgL6QKH.s:428    .text:0000000000000244 .L0 
     /tmp/ccgL6QKH.s:429    .text:0000000000000244 .L0 
     /tmp/ccgL6QKH.s:430    .text:0000000000000244 .L0 
     /tmp/ccgL6QKH.s:432    .text:0000000000000248 .L0 
     /tmp/ccgL6QKH.s:436    .text:0000000000000250 .L0 
     /tmp/ccgL6QKH.s:437    .text:0000000000000254 .L0 
     /tmp/ccgL6QKH.s:440    .text:000000000000025c .L0 
     /tmp/ccgL6QKH.s:441    .text:000000000000025c .L0 
     /tmp/ccgL6QKH.s:443    .text:0000000000000260 .L0 
     /tmp/ccgL6QKH.s:445    .text:0000000000000260 .L0 
     /tmp/ccgL6QKH.s:446    .text:0000000000000260 .L0 
     /tmp/ccgL6QKH.s:449    .text:0000000000000268 .L0 
     /tmp/ccgL6QKH.s:450    .text:0000000000000268 .L0 
     /tmp/ccgL6QKH.s:453    .text:0000000000000270 .L0 
     /tmp/ccgL6QKH.s:454    .text:0000000000000274 .L0 
     /tmp/ccgL6QKH.s:456    .text:0000000000000278 .L0 
     /tmp/ccgL6QKH.s:457    .text:0000000000000278 .L0 
     /tmp/ccgL6QKH.s:459    .text:000000000000027c .L0 
     /tmp/ccgL6QKH.s:461    .text:0000000000000280 .L0 
     /tmp/ccgL6QKH.s:467    .text:0000000000000280 _ZN7KThread4exitEv
     /tmp/ccgL6QKH.s:470    .text:0000000000000280 .L0 
     /tmp/ccgL6QKH.s:472    .text:0000000000000280 .L0 
     /tmp/ccgL6QKH.s:473    .text:0000000000000284 .L0 
     /tmp/ccgL6QKH.s:475    .text:0000000000000288 .L0 
     /tmp/ccgL6QKH.s:477    .text:000000000000028c .L0 
GAS LISTING /tmp/ccgL6QKH.s 			page 20


     /tmp/ccgL6QKH.s:479    .text:000000000000028c .L0 
     /tmp/ccgL6QKH.s:480    .text:000000000000028c .L0 
     /tmp/ccgL6QKH.s:483    .text:0000000000000294 .L0 
     /tmp/ccgL6QKH.s:484    .text:0000000000000298 .L0 
     /tmp/ccgL6QKH.s:485    .text:0000000000000298 .L0 
     /tmp/ccgL6QKH.s:487    .text:000000000000029c .L0 
     /tmp/ccgL6QKH.s:489    .text:00000000000002a0 .L0 
     /tmp/ccgL6QKH.s:495    .text:00000000000002a0 _ZN7KThread8dispatchEv
     /tmp/ccgL6QKH.s:498    .text:00000000000002a0 .L0 
     /tmp/ccgL6QKH.s:499    .text:00000000000002a0 .L0 
     /tmp/ccgL6QKH.s:500    .text:00000000000002a4 .L0 
     /tmp/ccgL6QKH.s:504    .text:00000000000002b0 .L0 
     /tmp/ccgL6QKH.s:505    .text:00000000000002b0 .L0 
     /tmp/ccgL6QKH.s:506    .text:00000000000002b0 .L0 
     /tmp/ccgL6QKH.s:508    .text:00000000000002b4 .L0 
     /tmp/ccgL6QKH.s:510    .text:00000000000002b4 .L0 
     /tmp/ccgL6QKH.s:511    .text:00000000000002b4 .L0 
     /tmp/ccgL6QKH.s:514    .text:00000000000002bc .L0 
     /tmp/ccgL6QKH.s:516    .text:00000000000002c0 .L0 
     /tmp/ccgL6QKH.s:518    .text:00000000000002c4 .L0 
     /tmp/ccgL6QKH.s:522    .text:00000000000002cc .L0 
     /tmp/ccgL6QKH.s:523    .text:00000000000002cc .L0 
     /tmp/ccgL6QKH.s:526    .text:00000000000002d4 .L0 
     /tmp/ccgL6QKH.s:528    .text:00000000000002dc .L0 
     /tmp/ccgL6QKH.s:530    .text:00000000000002e0 .L0 
     /tmp/ccgL6QKH.s:531    .text:00000000000002e0 .L0 
     /tmp/ccgL6QKH.s:534    .text:00000000000002e8 .L0 
     /tmp/ccgL6QKH.s:536    .text:00000000000002ec .L0 
     /tmp/ccgL6QKH.s:538    .text:00000000000002f0 .L0 
     /tmp/ccgL6QKH.s:542    .text:00000000000002f8 .L0 
     /tmp/ccgL6QKH.s:543    .text:00000000000002f8 .L0 
     /tmp/ccgL6QKH.s:550    .text:0000000000000310 .L0 
     /tmp/ccgL6QKH.s:551    .text:0000000000000314 .L0 
     /tmp/ccgL6QKH.s:552    .text:0000000000000314 .L0 
     /tmp/ccgL6QKH.s:554    .text:0000000000000318 .L0 
     /tmp/ccgL6QKH.s:555    .text:0000000000000318 .L0 
     /tmp/ccgL6QKH.s:557    .text:000000000000031c .L0 
     /tmp/ccgL6QKH.s:560    .text:0000000000000320 .L0 
     /tmp/ccgL6QKH.s:564    .text:0000000000000324 .L0 
     /tmp/ccgL6QKH.s:566    .text:0000000000000324 .L0 
     /tmp/ccgL6QKH.s:567    .text:0000000000000324 .L0 
     /tmp/ccgL6QKH.s:570    .text:000000000000032c .L0 
     /tmp/ccgL6QKH.s:571    .text:000000000000032c .L0 
     /tmp/ccgL6QKH.s:577    .text:000000000000033c .L0 
     /tmp/ccgL6QKH.s:578    .text:000000000000033c .L0 
     /tmp/ccgL6QKH.s:582    .text:0000000000000348 .L0 
     /tmp/ccgL6QKH.s:583    .text:0000000000000348 .L0 
     /tmp/ccgL6QKH.s:585    .text:0000000000000350 .L0 
     /tmp/ccgL6QKH.s:591    .text:0000000000000350 _ZN7KThread5yieldEv
     /tmp/ccgL6QKH.s:594    .text:0000000000000350 .L0 
     /tmp/ccgL6QKH.s:595    .text:0000000000000350 .L0 
     /tmp/ccgL6QKH.s:596    .text:0000000000000354 .L0 
     /tmp/ccgL6QKH.s:598    .text:0000000000000358 .L0 
     /tmp/ccgL6QKH.s:600    .text:000000000000035c .L0 
     /tmp/ccgL6QKH.s:602    .text:000000000000035c .L0 
     src/KThread.cpp:85     .text:000000000000035c .L0 
     /tmp/ccgL6QKH.s:608    .text:0000000000000360 .L0 
GAS LISTING /tmp/ccgL6QKH.s 			page 21


     src/KThread.cpp:86     .text:0000000000000360 .L0 
     /tmp/ccgL6QKH.s:614    .text:0000000000000364 .L0 
     /tmp/ccgL6QKH.s:615    .text:0000000000000368 .L0 
     /tmp/ccgL6QKH.s:616    .text:0000000000000368 .L0 
     /tmp/ccgL6QKH.s:618    .text:000000000000036c .L0 
     /tmp/ccgL6QKH.s:620    .text:0000000000000370 .L0 
     /tmp/ccgL6QKH.s:629    .text:0000000000000370 .L0 
     /tmp/ccgL6QKH.s:630    .text:0000000000000370 .L0 
     /tmp/ccgL6QKH.s:631    .text:0000000000000374 .L0 
     /tmp/ccgL6QKH.s:635    .text:0000000000000380 .L0 
     /tmp/ccgL6QKH.s:636    .text:0000000000000380 .L0 
     /tmp/ccgL6QKH.s:637    .text:0000000000000380 .L0 
     /tmp/ccgL6QKH.s:639    .text:0000000000000384 .L0 
     /tmp/ccgL6QKH.s:641    .text:0000000000000384 .L0 
     /tmp/ccgL6QKH.s:642    .text:0000000000000384 .L0 
     /tmp/ccgL6QKH.s:646    .text:0000000000000394 .L0 
     /tmp/ccgL6QKH.s:650    .text:000000000000039c .L0 
     /tmp/ccgL6QKH.s:651    .text:000000000000039c .L0 
     /tmp/ccgL6QKH.s:655    .text:00000000000003a8 .L0 
     /tmp/ccgL6QKH.s:656    .text:00000000000003a8 .L0 
     /tmp/ccgL6QKH.s:659    .text:00000000000003b0 .L0 
     /tmp/ccgL6QKH.s:660    .text:00000000000003b4 .L0 
     /tmp/ccgL6QKH.s:662    .text:00000000000003b8 .L0 
     /tmp/ccgL6QKH.s:663    .text:00000000000003b8 .L0 
     /tmp/ccgL6QKH.s:665    .text:00000000000003bc .L0 
     /tmp/ccgL6QKH.s:667    .text:00000000000003c0 .L0 
     /tmp/ccgL6QKH.s:669    .text:00000000000003c4 .L0 
     /tmp/ccgL6QKH.s:679    .bss:0000000000000000 _ZN7KThread8staticIdE
     /tmp/ccgL6QKH.s:684    .bss:0000000000000008 _ZN7KThread7runningE
     /tmp/ccgL6QKH.s:676    .bss:0000000000000000 .LANCHOR0
     /tmp/ccgL6QKH.s:691    .text:00000000000003c4 .L0 
     /tmp/ccgL6QKH.s:25     .text:0000000000000010 .L0 
     /tmp/ccgL6QKH.s:41     .text:000000000000003c .L0 
     /tmp/ccgL6QKH.s:110    .text:00000000000000a4 .L0 
     /tmp/ccgL6QKH.s:130    .text:00000000000000d8 .L0 
     /tmp/ccgL6QKH.s:511    .text:00000000000002b4 .L0 
     /tmp/ccgL6QKH.s:526    .text:00000000000002d4 .L0 
     /tmp/ccgL6QKH.s:543    .text:00000000000002f8 .L0 
     /tmp/ccgL6QKH.s:642    .text:0000000000000384 .L0 
     /tmp/ccgL6QKH.s:64     .text:0000000000000068 .L5
     /tmp/ccgL6QKH.s:70     .text:0000000000000070 .L6
     /tmp/ccgL6QKH.s:74     .text:0000000000000078 .L7
     /tmp/ccgL6QKH.s:35     .text:0000000000000034 .L2
     /tmp/ccgL6QKH.s:42     .text:0000000000000044 .L3
     /tmp/ccgL6QKH.s:50     .text:0000000000000054 .L4
     /tmp/ccgL6QKH.s:162    .text:0000000000000110 .L13
     /tmp/ccgL6QKH.s:169    .text:0000000000000118 .L14
     /tmp/ccgL6QKH.s:173    .text:0000000000000120 .L15
     /tmp/ccgL6QKH.s:124    .text:00000000000000d0 .L10
     /tmp/ccgL6QKH.s:131    .text:00000000000000e0 .L11
     /tmp/ccgL6QKH.s:139    .text:00000000000000f0 .L12
     /tmp/ccgL6QKH.s:226    .text:0000000000000158 .L20
     /tmp/ccgL6QKH.s:380    .text:0000000000000228 .L30
     /tmp/ccgL6QKH.s:434    .text:0000000000000250 .L37
     /tmp/ccgL6QKH.s:520    .text:00000000000002cc .L41
     /tmp/ccgL6QKH.s:563    .text:0000000000000324 .L45
     /tmp/ccgL6QKH.s:548    .text:0000000000000310 .L40
GAS LISTING /tmp/ccgL6QKH.s 			page 22


     /tmp/ccgL6QKH.s:540    .text:00000000000002f8 .L43
     /tmp/ccgL6QKH.s:575    .text:000000000000033c .L46
     /tmp/ccgL6QKH.s:350    .text:00000000000001f0 .LEHB0
     /tmp/ccgL6QKH.s:320    .text:00000000000001d0 .LFB16
     /tmp/ccgL6QKH.s:353    .text:00000000000001f8 .LEHE0
     /tmp/ccgL6QKH.s:360    .text:0000000000000200 .LEHB1
     /tmp/ccgL6QKH.s:363    .text:0000000000000208 .LEHE1
     /tmp/ccgL6QKH.s:365    .text:000000000000020c .L27
     /tmp/ccgL6QKH.s:376    .text:0000000000000220 .LEHB2
     /tmp/ccgL6QKH.s:379    .text:0000000000000228 .LEHE2
     /tmp/ccgL6QKH.s:1830   .debug_abbrev:0000000000000000 .Ldebug_abbrev0
     /tmp/ccgL6QKH.s:3218   .debug_str:000000000000053c .LASF95
     /tmp/ccgL6QKH.s:3136   .debug_str:00000000000002e0 .LASF96
     /tmp/ccgL6QKH.s:3098   .debug_str:000000000000018b .LASF97
     /tmp/ccgL6QKH.s:5      .text:0000000000000000 .Ltext0
     /tmp/ccgL6QKH.s:687    .text:00000000000003c4 .Letext0
     /tmp/ccgL6QKH.s:3044   .debug_line:0000000000000000 .Ldebug_line0
     /tmp/ccgL6QKH.s:3152   .debug_str:000000000000034e .LASF0
     /tmp/ccgL6QKH.s:3164   .debug_str:000000000000038d .LASF1
     /tmp/ccgL6QKH.s:3138   .debug_str:00000000000002f0 .LASF2
     /tmp/ccgL6QKH.s:3118   .debug_str:0000000000000286 .LASF4
     /tmp/ccgL6QKH.s:3202   .debug_str:00000000000004b6 .LASF3
     /tmp/ccgL6QKH.s:3058   .debug_str:000000000000005d .LASF5
     /tmp/ccgL6QKH.s:3168   .debug_str:00000000000003c0 .LASF6
     /tmp/ccgL6QKH.s:3150   .debug_str:000000000000033b .LASF7
     /tmp/ccgL6QKH.s:3232   .debug_str:000000000000069c .LASF8
     /tmp/ccgL6QKH.s:3106   .debug_str:0000000000000201 .LASF9
     /tmp/ccgL6QKH.s:3180   .debug_str:000000000000040b .LASF10
     /tmp/ccgL6QKH.s:3222   .debug_str:000000000000062c .LASF11
     /tmp/ccgL6QKH.s:3062   .debug_str:0000000000000073 .LASF12
     /tmp/ccgL6QKH.s:3048   .debug_str:0000000000000023 .LASF13
     /tmp/ccgL6QKH.s:3072   .debug_str:00000000000000d3 .LASF14
     /tmp/ccgL6QKH.s:3196   .debug_str:000000000000047e .LASF15
     /tmp/ccgL6QKH.s:3082   .debug_str:0000000000000137 .LASF16
     /tmp/ccgL6QKH.s:3064   .debug_str:0000000000000083 .LASF19
     /tmp/ccgL6QKH.s:3254   .debug_str:0000000000000760 .LASF17
     /tmp/ccgL6QKH.s:3212   .debug_str:000000000000050f .LASF18
     /tmp/ccgL6QKH.s:3134   .debug_str:00000000000002d0 .LASF32
     /tmp/ccgL6QKH.s:3084   .debug_str:000000000000014d .LASF46
     /tmp/ccgL6QKH.s:3166   .debug_str:00000000000003a0 .LASF48
     /tmp/ccgL6QKH.s:3204   .debug_str:00000000000004c8 .LASF20
     /tmp/ccgL6QKH.s:3210   .debug_str:00000000000004ee .LASF22
     /tmp/ccgL6QKH.s:3184   .debug_str:0000000000000424 .LASF21
     /tmp/ccgL6QKH.s:3104   .debug_str:00000000000001e0 .LASF23
     /tmp/ccgL6QKH.s:3242   .debug_str:0000000000000701 .LASF24
     /tmp/ccgL6QKH.s:3076   .debug_str:00000000000000ec .LASF26
     /tmp/ccgL6QKH.s:3238   .debug_str:00000000000006d8 .LASF25
     /tmp/ccgL6QKH.s:3116   .debug_str:0000000000000253 .LASF27
     /tmp/ccgL6QKH.s:3074   .debug_str:00000000000000df .LASF81
     /tmp/ccgL6QKH.s:3094   .debug_str:000000000000017c .LASF73
     /tmp/ccgL6QKH.s:3226   .debug_str:0000000000000656 .LASF75
     /tmp/ccgL6QKH.s:3112   .debug_str:0000000000000233 .LASF98
     /tmp/ccgL6QKH.s:3178   .debug_str:0000000000000405 .LASF28
     /tmp/ccgL6QKH.s:3174   .debug_str:00000000000003f3 .LASF29
     /tmp/ccgL6QKH.s:3120   .debug_str:000000000000028d .LASF30
     /tmp/ccgL6QKH.s:3206   .debug_str:00000000000004d2 .LASF31
     /tmp/ccgL6QKH.s:3088   .debug_str:000000000000015b .LASF33
GAS LISTING /tmp/ccgL6QKH.s 			page 23


     /tmp/ccgL6QKH.s:3052   .debug_str:0000000000000039 .LASF34
     /tmp/ccgL6QKH.s:3092   .debug_str:0000000000000173 .LASF35
     /tmp/ccgL6QKH.s:3246   .debug_str:0000000000000729 .LASF36
     /tmp/ccgL6QKH.s:3194   .debug_str:0000000000000475 .LASF37
     /tmp/ccgL6QKH.s:3192   .debug_str:0000000000000465 .LASF38
     /tmp/ccgL6QKH.s:3130   .debug_str:00000000000002be .LASF39
     /tmp/ccgL6QKH.s:3100   .debug_str:00000000000001a9 .LASF40
     /tmp/ccgL6QKH.s:3190   .debug_str:0000000000000460 .LASF99
     /tmp/ccgL6QKH.s:3066   .debug_str:000000000000008f .LASF41
     /tmp/ccgL6QKH.s:3162   .debug_str:0000000000000387 .LASF42
     /tmp/ccgL6QKH.s:3256   .debug_str:0000000000000765 .LASF43
     /tmp/ccgL6QKH.s:3132   .debug_str:00000000000002cb .LASF44
     /tmp/ccgL6QKH.s:3208   .debug_str:00000000000004db .LASF45
     /tmp/ccgL6QKH.s:3258   .debug_str:0000000000000779 .LASF47
     /tmp/ccgL6QKH.s:3070   .debug_str:00000000000000bd .LASF49
     /tmp/ccgL6QKH.s:3128   .debug_str:00000000000002b5 .LASF100
     /tmp/ccgL6QKH.s:3216   .debug_str:0000000000000524 .LASF101
     /tmp/ccgL6QKH.s:3144   .debug_str:0000000000000318 .LASF50
     /tmp/ccgL6QKH.s:3046   .debug_str:0000000000000000 .LASF51
     /tmp/ccgL6QKH.s:3198   .debug_str:0000000000000494 .LASF52
     /tmp/ccgL6QKH.s:3110   .debug_str:000000000000021f .LASF53
     /tmp/ccgL6QKH.s:3154   .debug_str:000000000000035b .LASF54
     /tmp/ccgL6QKH.s:3234   .debug_str:00000000000006ac .LASF55
     /tmp/ccgL6QKH.s:3068   .debug_str:00000000000000b0 .LASF56
     /tmp/ccgL6QKH.s:3214   .debug_str:0000000000000514 .LASF57
     /tmp/ccgL6QKH.s:3090   .debug_str:0000000000000163 .LASF60
     /tmp/ccgL6QKH.s:3230   .debug_str:000000000000068b .LASF62
     /tmp/ccgL6QKH.s:3102   .debug_str:00000000000001d0 .LASF58
     /tmp/ccgL6QKH.s:3108   .debug_str:000000000000020f .LASF59
     /tmp/ccgL6QKH.s:3122   .debug_str:0000000000000295 .LASF61
     /tmp/ccgL6QKH.s:3252   .debug_str:000000000000074f .LASF63
     /tmp/ccgL6QKH.s:3172   .debug_str:00000000000003d8 .LASF64
     /tmp/ccgL6QKH.s:3236   .debug_str:00000000000006c3 .LASF65
     /tmp/ccgL6QKH.s:3124   .debug_str:00000000000002a8 .LASF66
     /tmp/ccgL6QKH.s:3158   .debug_str:000000000000036a .LASF67
     /tmp/ccgL6QKH.s:3156   .debug_str:0000000000000364 .LASF68
     /tmp/ccgL6QKH.s:3126   .debug_str:00000000000002ad .LASF69
     /tmp/ccgL6QKH.s:3054   .debug_str:0000000000000041 .LASF70
     /tmp/ccgL6QKH.s:3248   .debug_str:0000000000000731 .LASF71
     /tmp/ccgL6QKH.s:3142   .debug_str:000000000000030a .LASF72
     /tmp/ccgL6QKH.s:3240   .debug_str:00000000000006f3 .LASF102
     /tmp/ccgL6QKH.s:3220   .debug_str:0000000000000600 .LASF103
     /tmp/ccgL6QKH.s:3140   .debug_str:00000000000002fe .LASF74
     /tmp/ccgL6QKH.s:3188   .debug_str:0000000000000432 .LASF76
     /tmp/ccgL6QKH.s:3170   .debug_str:00000000000003d3 .LASF77
     /tmp/ccgL6QKH.s:3176   .debug_str:00000000000003fb .LASF78
     /tmp/ccgL6QKH.s:3114   .debug_str:000000000000023f .LASF104
     /tmp/ccgL6QKH.s:3200   .debug_str:000000000000049a .LASF105
     /tmp/ccgL6QKH.s:3078   .debug_str:0000000000000117 .LASF79
     /tmp/ccgL6QKH.s:3160   .debug_str:000000000000036f .LASF80
     /tmp/ccgL6QKH.s:3086   .debug_str:0000000000000156 .LASF82
     /tmp/ccgL6QKH.s:3148   .debug_str:0000000000000336 .LASF83
     /tmp/ccgL6QKH.s:3096   .debug_str:0000000000000186 .LASF84
     /tmp/ccgL6QKH.s:3146   .debug_str:0000000000000321 .LASF85
     /tmp/ccgL6QKH.s:3056   .debug_str:0000000000000047 .LASF86
     /tmp/ccgL6QKH.s:592    .text:0000000000000350 .LFB21
     /tmp/ccgL6QKH.s:621    .text:0000000000000370 .LFE21
GAS LISTING /tmp/ccgL6QKH.s 			page 24


     /tmp/ccgL6QKH.s:496    .text:00000000000002a0 .LFB20
     /tmp/ccgL6QKH.s:586    .text:0000000000000350 .LFE20
     /tmp/ccgL6QKH.s:2820   .debug_loc:0000000000000000 .LLST13
     /tmp/ccgL6QKH.s:524    .text:00000000000002d4 .LVL34
     /tmp/ccgL6QKH.s:547    .text:0000000000000310 .LVL35
     /tmp/ccgL6QKH.s:573    .text:0000000000000338 .LVL38
     /tmp/ccgL6QKH.s:580    .text:0000000000000348 .LVL39
     /tmp/ccgL6QKH.s:627    .text:0000000000000370 .LFB19
     /tmp/ccgL6QKH.s:670    .text:00000000000003c4 .LFE19
     /tmp/ccgL6QKH.s:653    .text:00000000000003a8 .LVL41
     /tmp/ccgL6QKH.s:657    .text:00000000000003b0 .LVL42
     /tmp/ccgL6QKH.s:468    .text:0000000000000280 .LFB18
     /tmp/ccgL6QKH.s:490    .text:00000000000002a0 .LFE18
     /tmp/ccgL6QKH.s:3186   .debug_str:000000000000042d .LASF87
     /tmp/ccgL6QKH.s:424    .text:0000000000000244 .LFB17
     /tmp/ccgL6QKH.s:462    .text:0000000000000280 .LFE17
     /tmp/ccgL6QKH.s:2831   .debug_loc:0000000000000036 .LLST12
     /tmp/ccgL6QKH.s:451    .text:0000000000000270 .LVL31
     /tmp/ccgL6QKH.s:399    .text:0000000000000244 .LFE16
     /tmp/ccgL6QKH.s:2845   .debug_loc:000000000000006f .LLST8
     /tmp/ccgL6QKH.s:341    .text:00000000000001ec .LBB16
     /tmp/ccgL6QKH.s:357    .text:00000000000001fc .LBE16
     /tmp/ccgL6QKH.s:2874   .debug_loc:00000000000000e4 .LLST9
     /tmp/ccgL6QKH.s:2883   .debug_loc:0000000000000109 .LLST10
     /tmp/ccgL6QKH.s:352    .text:00000000000001f8 .LVL23
     /tmp/ccgL6QKH.s:368    .text:0000000000000210 .LBB18
     /tmp/ccgL6QKH.s:382    .text:0000000000000228 .LBE18
     /tmp/ccgL6QKH.s:2891   .debug_loc:000000000000012d .LLST11
     /tmp/ccgL6QKH.s:374    .text:000000000000021c .LVL27
     /tmp/ccgL6QKH.s:362    .text:0000000000000208 .LVL25
     /tmp/ccgL6QKH.s:378    .text:0000000000000228 .LVL28
     /tmp/ccgL6QKH.s:245    .text:000000000000015c .LFB15
     /tmp/ccgL6QKH.s:314    .text:00000000000001d0 .LFE15
     /tmp/ccgL6QKH.s:2898   .debug_loc:0000000000000150 .LLST3
     /tmp/ccgL6QKH.s:2916   .debug_loc:000000000000019c .LLST4
     /tmp/ccgL6QKH.s:2934   .debug_loc:00000000000001e8 .LLST5
     /tmp/ccgL6QKH.s:270    .text:0000000000000188 .LBB14
     /tmp/ccgL6QKH.s:285    .text:0000000000000198 .LBE14
     /tmp/ccgL6QKH.s:2952   .debug_loc:0000000000000234 .LLST6
     /tmp/ccgL6QKH.s:2961   .debug_loc:0000000000000259 .LLST7
     /tmp/ccgL6QKH.s:281    .text:0000000000000194 .LVL14
     /tmp/ccgL6QKH.s:291    .text:00000000000001ac .LVL16
     /tmp/ccgL6QKH.s:3182   .debug_str:000000000000041a .LASF88
     /tmp/ccgL6QKH.s:3250   .debug_str:000000000000073f .LASF89
     /tmp/ccgL6QKH.s:187    .text:0000000000000128 .LFB13
     /tmp/ccgL6QKH.s:229    .text:000000000000015c .LFE13
     /tmp/ccgL6QKH.s:2969   .debug_loc:000000000000027d .LLST2
     /tmp/ccgL6QKH.s:214    .text:0000000000000148 .LVL10
     /tmp/ccgL6QKH.s:3244   .debug_str:0000000000000714 .LASF90
     /tmp/ccgL6QKH.s:88     .text:0000000000000080 .LFB10
     /tmp/ccgL6QKH.s:179    .text:0000000000000128 .LFE10
     /tmp/ccgL6QKH.s:2983   .debug_loc:00000000000002b6 .LLST0
     /tmp/ccgL6QKH.s:3005   .debug_loc:0000000000000315 .LLST1
     /tmp/ccgL6QKH.s:123    .text:00000000000000d0 .LVL3
     /tmp/ccgL6QKH.s:3224   .debug_str:000000000000063b .LASF91
     /tmp/ccgL6QKH.s:10     .text:0000000000000000 .LFB7
     /tmp/ccgL6QKH.s:80     .text:0000000000000080 .LFE7
GAS LISTING /tmp/ccgL6QKH.s 			page 25


     /tmp/ccgL6QKH.s:3228   .debug_str:0000000000000684 .LASF106
     /tmp/ccgL6QKH.s:3060   .debug_str:0000000000000064 .LASF92
     /tmp/ccgL6QKH.s:3080   .debug_str:000000000000011f .LASF94
     /tmp/ccgL6QKH.s:3050   .debug_str:0000000000000033 .LASF93
     /tmp/ccgL6QKH.s:512    .text:00000000000002bc .LVL33
     /tmp/ccgL6QKH.s:558    .text:000000000000031c .LVL36
     /tmp/ccgL6QKH.s:562    .text:0000000000000324 .LVL37
     /tmp/ccgL6QKH.s:427    .text:0000000000000244 .LVL30
     /tmp/ccgL6QKH.s:325    .text:00000000000001d0 .LVL20
     /tmp/ccgL6QKH.s:349    .text:00000000000001f0 .LVL22
     /tmp/ccgL6QKH.s:367    .text:0000000000000210 .LVL26
     /tmp/ccgL6QKH.s:394    .text:000000000000023c .LVL29
     /tmp/ccgL6QKH.s:340    .text:00000000000001ec .LVL21
     /tmp/ccgL6QKH.s:355    .text:00000000000001fc .LVL24
     /tmp/ccgL6QKH.s:248    .text:000000000000015c .LVL11
     /tmp/ccgL6QKH.s:279    .text:000000000000018c .LVL13
     /tmp/ccgL6QKH.s:303    .text:00000000000001c0 .LVL17
     /tmp/ccgL6QKH.s:306    .text:00000000000001c4 .LVL18
     /tmp/ccgL6QKH.s:309    .text:00000000000001c8 .LVL19
     /tmp/ccgL6QKH.s:269    .text:0000000000000188 .LVL12
     /tmp/ccgL6QKH.s:283    .text:0000000000000198 .LVL15
     /tmp/ccgL6QKH.s:192    .text:0000000000000128 .LVL8
     /tmp/ccgL6QKH.s:197    .text:000000000000012c .LVL9
     /tmp/ccgL6QKH.s:91     .text:0000000000000080 .LVL1
     /tmp/ccgL6QKH.s:121    .text:00000000000000c8 .LVL2
     /tmp/ccgL6QKH.s:154    .text:0000000000000104 .LVL4
     /tmp/ccgL6QKH.s:161    .text:0000000000000110 .LVL6
     /tmp/ccgL6QKH.s:157    .text:0000000000000108 .LVL5
     /tmp/ccgL6QKH.s:168    .text:0000000000000118 .LVL7
     /tmp/ccgL6QKH.s:692    .debug_info:0000000000000000 .Ldebug_info0
     /tmp/ccgL6QKH.s:232    .gcc_except_table:0000000000000000 .LLSDA13
     /tmp/ccgL6QKH.s:401    .gcc_except_table:0000000000000004 .LLSDA16

UNDEFINED SYMBOLS
_Znam
_ZN15MemoryAllocator8mem_freeEPv
__gxx_personality_v0
_ZN15MemoryAllocator9mem_allocEm
_Unwind_Resume
_ZN9Scheduler3putEP7KThread
_ZN9Scheduler3getEv
_ZN7KThread13contextSwitchEPNS_7ContextES1_
