GAS LISTING /tmp/cccBQd2Q.s 			page 1


   1              		.file	"main.cpp"
   2              		.option pic
   3              		.option norelax
   4              		.text
   5              	.Ltext0:
   6              		.align	2
   7              		.globl	_Z11userWrapperPv
   9              	_Z11userWrapperPv:
  10              	.LFB22:
  11              		.file 1 "src/main.cpp"
   1:src/main.cpp  **** #include "../h/MemoryAllocator.hpp"
   2:src/main.cpp  **** #include "../h/Riscv.hpp"
   3:src/main.cpp  **** #include "../h/Scheduler.hpp"
   4:src/main.cpp  **** #include "../h/syscall_c.hpp"
   5:src/main.cpp  **** #include "../h/KThread.hpp"
   6:src/main.cpp  **** 
   7:src/main.cpp  **** uint64 framePointer;
   8:src/main.cpp  **** 
   9:src/main.cpp  **** void userMain();
  10:src/main.cpp  **** void userWrapper(void* arg) {
  12              		.loc 1 10 29
  13              		.cfi_startproc
  14              	.LVL0:
  15 0000 130101FF 		addi	sp,sp,-16
  16              		.cfi_def_cfa_offset 16
  17 0004 23341100 		sd	ra,8(sp)
  18 0008 23308100 		sd	s0,0(sp)
  19              		.cfi_offset 1, -8
  20              		.cfi_offset 8, -16
  21 000c 13040101 		addi	s0,sp,16
  22              		.cfi_def_cfa 8, 0
  11:src/main.cpp  ****     userMain();
  23              		.loc 1 11 5
  24              		.loc 1 11 13 is_stmt 0
  25 0010 97000000 		call	_Z8userMainv@plt
  25      E7800000 
  26              	.LVL1:
  12:src/main.cpp  **** }
  27              		.loc 1 12 1
  28 0018 83308100 		ld	ra,8(sp)
  29              		.cfi_restore 1
  30 001c 03340100 		ld	s0,0(sp)
  31              		.cfi_restore 8
  32              		.cfi_def_cfa 2, 16
  33 0020 13010101 		addi	sp,sp,16
  34              		.cfi_def_cfa_offset 0
  35 0024 67800000 		jr	ra
  36              		.cfi_endproc
  37              	.LFE22:
  39              		.align	2
  40              		.globl	main
  42              	main:
  43              	.LFB23:
  13:src/main.cpp  **** 
  14:src/main.cpp  **** void main() {
  44              		.loc 1 14 13 is_stmt 1
  45              		.cfi_startproc
GAS LISTING /tmp/cccBQd2Q.s 			page 2


  46 0028 130101FE 		addi	sp,sp,-32
  47              		.cfi_def_cfa_offset 32
  48 002c 233C1100 		sd	ra,24(sp)
  49 0030 23388100 		sd	s0,16(sp)
  50              		.cfi_offset 1, -8
  51              		.cfi_offset 8, -16
  52 0034 13040102 		addi	s0,sp,32
  53              		.cfi_def_cfa 8, 0
  15:src/main.cpp  ****     MemoryAllocator::initHeap();
  54              		.loc 1 15 5
  55              		.loc 1 15 30 is_stmt 0
  56 0038 97000000 		call	_ZN15MemoryAllocator8initHeapEv@plt
  56      E7800000 
  57              	.LVL2:
  16:src/main.cpp  ****     Riscv::setupTrapHandler();
  58              		.loc 1 16 5 is_stmt 1
  59              		.loc 1 16 28 is_stmt 0
  60 0040 97000000 		call	_ZN5Riscv16setupTrapHandlerEv@plt
  60      E7800000 
  61              	.LVL3:
  17:src/main.cpp  **** 
  18:src/main.cpp  ****     thread_t mainThread, userBody;
  62              		.loc 1 18 5 is_stmt 1
  19:src/main.cpp  **** 
  20:src/main.cpp  ****     mainThread = KThread::createThread(nullptr, nullptr, nullptr);
  63              		.loc 1 20 5
  64              		.loc 1 20 39 is_stmt 0
  65 0048 13060000 		li	a2,0
  66 004c 93050000 		li	a1,0
  67 0050 13050000 		li	a0,0
  68 0054 97000000 		call	_ZN7KThread12createThreadEPFvPvES0_S0_@plt
  68      E7800000 
  69              	.LVL4:
  21:src/main.cpp  ****     KThread::running = mainThread;
  70              		.loc 1 21 5 is_stmt 1
  71              		.loc 1 21 22 is_stmt 0
  72 005c 97070000 		la	a5,_ZN7KThread7runningE
  72      83B70700 
  73 0064 23B0A700 		sd	a0,0(a5)
  22:src/main.cpp  ****     mainThread->setState(RUNNING);
  74              		.loc 1 22 5 is_stmt 1
  75              	.LVL5:
  76              	.LBB6:
  77              	.LBB7:
  78              		.file 2 "src/../h/KThread.hpp"
   1:src/../h/KThread.hpp **** //
   2:src/../h/KThread.hpp **** // Created by os on 10/8/25.
   3:src/../h/KThread.hpp **** //
   4:src/../h/KThread.hpp **** 
   5:src/../h/KThread.hpp **** #ifndef PROJECT_BASE_THREAD_HPP
   6:src/../h/KThread.hpp **** #define PROJECT_BASE_THREAD_HPP
   7:src/../h/KThread.hpp **** 
   8:src/../h/KThread.hpp **** #include "MemoryAllocator.hpp"
   9:src/../h/KThread.hpp **** #include "../lib/hw.h"
  10:src/../h/KThread.hpp **** 
  11:src/../h/KThread.hpp **** enum ThreadState {
  12:src/../h/KThread.hpp ****     NEW,
GAS LISTING /tmp/cccBQd2Q.s 			page 3


  13:src/../h/KThread.hpp ****     READY,
  14:src/../h/KThread.hpp ****     RUNNING,
  15:src/../h/KThread.hpp ****     BLOCKED,
  16:src/../h/KThread.hpp ****     FINISHED
  17:src/../h/KThread.hpp **** };
  18:src/../h/KThread.hpp **** 
  19:src/../h/KThread.hpp **** class KThread {
  20:src/../h/KThread.hpp **** public:
  21:src/../h/KThread.hpp ****     static int staticId;
  22:src/../h/KThread.hpp ****     static KThread* running;
  23:src/../h/KThread.hpp **** 
  24:src/../h/KThread.hpp ****     friend class Scheduler;
  25:src/../h/KThread.hpp ****     friend class KSemaphore;
  26:src/../h/KThread.hpp ****     friend class Riscv;
  27:src/../h/KThread.hpp **** 
  28:src/../h/KThread.hpp ****     using Body = void(*)(void*);
  29:src/../h/KThread.hpp **** 
  30:src/../h/KThread.hpp ****     ~KThread();
  31:src/../h/KThread.hpp **** 
  32:src/../h/KThread.hpp ****     static KThread* createThread(Body, void*, void*);
  33:src/../h/KThread.hpp ****     static KThread* createThread(Body);
  34:src/../h/KThread.hpp **** 
  35:src/../h/KThread.hpp ****     void start();                       // prepare and put in the Scheduler
  36:src/../h/KThread.hpp ****     void exit();                        // mark as finished (could be called from wrapper)
  37:src/../h/KThread.hpp ****     static void wrapper();              // static function - entry which calls body(arg) and exit
  38:src/../h/KThread.hpp **** 
  39:src/../h/KThread.hpp ****     ThreadState getState() const { return state; }
  40:src/../h/KThread.hpp ****     void setState(ThreadState s) { state = s; }
  79              		.loc 2 40 36
  80              		.loc 2 40 42 is_stmt 0
  81 0068 93072000 		li	a5,2
  82 006c 2328F502 		sw	a5,48(a0)
  83              	.LVL6:
  84              	.LBE7:
  85              	.LBE6:
  23:src/main.cpp  **** 
  24:src/main.cpp  ****     thread_create(&userBody, &userWrapper, nullptr);
  86              		.loc 1 24 5 is_stmt 1
  87              		.loc 1 24 18 is_stmt 0
  88 0070 13060000 		li	a2,0
  89 0074 97050000 		lla	a1,_Z11userWrapperPv
  89      93850500 
  90 007c 130584FE 		addi	a0,s0,-24
  91              	.LVL7:
  92 0080 97000000 		call	_Z13thread_createPP7KThreadPFvPvES2_@plt
  92      E7800000 
  93              	.LVL8:
  25:src/main.cpp  **** 
  26:src/main.cpp  ****     Riscv::ms_sstatus(Riscv::SSTATUS_SIE);
  94              		.loc 1 26 5 is_stmt 1
  95              	.LBB8:
  96              	.LBB9:
  97              		.file 3 "src/../h/Riscv.hpp"
   1:src/../h/Riscv.hpp **** //
   2:src/../h/Riscv.hpp **** // Created by os on 10/7/25.
   3:src/../h/Riscv.hpp **** //
   4:src/../h/Riscv.hpp **** 
GAS LISTING /tmp/cccBQd2Q.s 			page 4


   5:src/../h/Riscv.hpp **** #ifndef PROJECT_BASE_RISCV_HPP
   6:src/../h/Riscv.hpp **** #define PROJECT_BASE_RISCV_HPP
   7:src/../h/Riscv.hpp **** 
   8:src/../h/Riscv.hpp **** #include "../lib/hw.h"
   9:src/../h/Riscv.hpp **** 
  10:src/../h/Riscv.hpp **** extern uint64 framePointer;
  11:src/../h/Riscv.hpp **** extern "C" void trap_handler();
  12:src/../h/Riscv.hpp **** 
  13:src/../h/Riscv.hpp **** class Riscv {
  14:src/../h/Riscv.hpp **** public:
  15:src/../h/Riscv.hpp ****     static void setupTrapHandler();
  16:src/../h/Riscv.hpp ****     static void trapHandler();
  17:src/../h/Riscv.hpp **** 
  18:src/../h/Riscv.hpp ****     static void popSppSpie();
  19:src/../h/Riscv.hpp **** 
  20:src/../h/Riscv.hpp ****     static uint64 r_scause();
  21:src/../h/Riscv.hpp ****     static void w_scause(uint64 scause);
  22:src/../h/Riscv.hpp **** 
  23:src/../h/Riscv.hpp ****     static uint64 r_sepc();
  24:src/../h/Riscv.hpp ****     static void w_sepc(uint64 sepc);
  25:src/../h/Riscv.hpp **** 
  26:src/../h/Riscv.hpp ****     static uint64 r_stvec();
  27:src/../h/Riscv.hpp ****     static void w_stvec(uint64 stvec);
  28:src/../h/Riscv.hpp **** 
  29:src/../h/Riscv.hpp ****     static uint64 r_stval();
  30:src/../h/Riscv.hpp ****     static void w_stval(uint64 stval);
  31:src/../h/Riscv.hpp **** 
  32:src/../h/Riscv.hpp ****     static void ms_sip(uint64 mask);
  33:src/../h/Riscv.hpp ****     static void mc_sip(uint64 mask);
  34:src/../h/Riscv.hpp ****     static uint64 r_sip();
  35:src/../h/Riscv.hpp ****     static void w_sip(uint64 sip);
  36:src/../h/Riscv.hpp **** 
  37:src/../h/Riscv.hpp ****     static void ms_sstatus(uint64 mask);
  38:src/../h/Riscv.hpp ****     static void mc_sstatus(uint64 mask);
  39:src/../h/Riscv.hpp ****     static uint64 r_sstatus();
  40:src/../h/Riscv.hpp ****     static void w_sstatus(uint64 sstatus);
  41:src/../h/Riscv.hpp **** 
  42:src/../h/Riscv.hpp ****     enum BitMaskSip
  43:src/../h/Riscv.hpp ****     {
  44:src/../h/Riscv.hpp ****         SIP_SSIP = (1 << 1),
  45:src/../h/Riscv.hpp ****         SIP_STIP = (1 << 5),
  46:src/../h/Riscv.hpp ****         SIP_SEIP = (1 << 9),
  47:src/../h/Riscv.hpp ****     };
  48:src/../h/Riscv.hpp **** 
  49:src/../h/Riscv.hpp ****     enum BitMaskSstatus
  50:src/../h/Riscv.hpp ****     {
  51:src/../h/Riscv.hpp ****         SSTATUS_SIE = (1 << 1),
  52:src/../h/Riscv.hpp ****         SSTATUS_SPIE = (1 << 5),
  53:src/../h/Riscv.hpp ****         SSTATUS_SPP = (1 << 8),
  54:src/../h/Riscv.hpp ****     };
  55:src/../h/Riscv.hpp **** };
  56:src/../h/Riscv.hpp **** 
  57:src/../h/Riscv.hpp **** inline uint64 Riscv::r_scause() {
  58:src/../h/Riscv.hpp ****     uint64 volatile scause;
  59:src/../h/Riscv.hpp ****     asm volatile("csrr %0, scause" : "=r"(scause));
  60:src/../h/Riscv.hpp ****     return scause;
  61:src/../h/Riscv.hpp **** }
GAS LISTING /tmp/cccBQd2Q.s 			page 5


  62:src/../h/Riscv.hpp **** 
  63:src/../h/Riscv.hpp **** inline void Riscv::w_scause(uint64 scause) {
  64:src/../h/Riscv.hpp ****     asm volatile("csrw scause, %0" :: "r"(scause));
  65:src/../h/Riscv.hpp **** }
  66:src/../h/Riscv.hpp **** 
  67:src/../h/Riscv.hpp **** inline uint64 Riscv::r_sepc() {
  68:src/../h/Riscv.hpp ****     uint64 volatile sepc;
  69:src/../h/Riscv.hpp ****     asm volatile("csrr %0, sepc" : "=r"(sepc));
  70:src/../h/Riscv.hpp ****     return sepc;
  71:src/../h/Riscv.hpp **** }
  72:src/../h/Riscv.hpp **** 
  73:src/../h/Riscv.hpp **** inline void Riscv::w_sepc(uint64 sepc) {
  74:src/../h/Riscv.hpp ****     asm volatile("csrw sepc, %0" :: "r"(sepc));
  75:src/../h/Riscv.hpp **** }
  76:src/../h/Riscv.hpp **** 
  77:src/../h/Riscv.hpp **** inline uint64 Riscv::r_stvec() {
  78:src/../h/Riscv.hpp ****     uint64 volatile stvec;
  79:src/../h/Riscv.hpp ****     asm volatile("csrr %0, stvec" : "=r"(stvec));
  80:src/../h/Riscv.hpp ****     return stvec;
  81:src/../h/Riscv.hpp **** }
  82:src/../h/Riscv.hpp **** 
  83:src/../h/Riscv.hpp **** inline void Riscv::w_stvec(uint64 stvec) {
  84:src/../h/Riscv.hpp ****     asm volatile("csrw stvec, %0" :: "r"(stvec));
  85:src/../h/Riscv.hpp **** }
  86:src/../h/Riscv.hpp **** 
  87:src/../h/Riscv.hpp **** inline uint64 Riscv::r_stval() {
  88:src/../h/Riscv.hpp ****     uint64 volatile stval;
  89:src/../h/Riscv.hpp ****     asm volatile("csrr %0, stval" : "=r"(stval));
  90:src/../h/Riscv.hpp ****     return stval;
  91:src/../h/Riscv.hpp **** }
  92:src/../h/Riscv.hpp **** 
  93:src/../h/Riscv.hpp **** inline void Riscv::w_stval(uint64 stval) {
  94:src/../h/Riscv.hpp ****     asm volatile("csrw stval, %0" :: "r"(stval));
  95:src/../h/Riscv.hpp **** }
  96:src/../h/Riscv.hpp **** 
  97:src/../h/Riscv.hpp **** inline void Riscv::ms_sip(uint64 mask) {
  98:src/../h/Riscv.hpp ****     asm volatile("csrs sip, %0" :: "r"(mask));
  99:src/../h/Riscv.hpp **** }
 100:src/../h/Riscv.hpp **** 
 101:src/../h/Riscv.hpp **** inline void Riscv::mc_sip(uint64 mask) {
 102:src/../h/Riscv.hpp ****     asm volatile("csrc sip, %0" :: "r"(mask));
 103:src/../h/Riscv.hpp **** }
 104:src/../h/Riscv.hpp **** 
 105:src/../h/Riscv.hpp **** inline uint64 Riscv::r_sip() {
 106:src/../h/Riscv.hpp ****     uint64 volatile sip;
 107:src/../h/Riscv.hpp ****     asm volatile("csrr %0, sip" : "=r"(sip));
 108:src/../h/Riscv.hpp ****     return sip;
 109:src/../h/Riscv.hpp **** }
 110:src/../h/Riscv.hpp **** 
 111:src/../h/Riscv.hpp **** inline void Riscv::w_sip(uint64 sip) {
 112:src/../h/Riscv.hpp ****     asm volatile("csrw sip, %0" :: "r"(sip));
 113:src/../h/Riscv.hpp **** }
 114:src/../h/Riscv.hpp **** 
 115:src/../h/Riscv.hpp **** inline void Riscv::ms_sstatus(uint64 mask) {
 116:src/../h/Riscv.hpp ****     asm volatile("csrs sstatus, %0" :: "r"(mask));
  98              		.loc 3 116 5
  99              		.loc 3 116 50 is_stmt 0
GAS LISTING /tmp/cccBQd2Q.s 			page 6


 100 0088 93072000 		li	a5,2
 101              	#APP
 102              	# 116 "src/../h/Riscv.hpp" 1
 117              	}
 103              		csrs sstatus, a5
 104              	# 0 "" 2
 105              	.LVL9:
 106              	#NO_APP
 107              	.L5:
 108              	.LBE9:
 109              	.LBE8:
  27:src/main.cpp  **** 
  28:src/main.cpp  ****     while (!Scheduler::isEmpty()) {
 110              		.loc 1 28 5 is_stmt 1
 111              		.loc 1 28 12
 112              		.loc 1 28 31 is_stmt 0
 113 0090 97000000 		call	_ZN9Scheduler7isEmptyEv@plt
 113      E7800000 
 114              	.LVL10:
 115              		.loc 1 28 12
 116 0098 63180500 		bnez	a0,.L3
  29:src/main.cpp  ****         KThread::yield();
 117              		.loc 1 29 9 is_stmt 1
 118              		.loc 1 29 23 is_stmt 0
 119 009c 97000000 		call	_ZN7KThread5yieldEv@plt
 119      E7800000 
 120              	.LVL11:
 121 00a4 6FF0DFFE 		j	.L5
 122              	.L3:
  30:src/main.cpp  ****     }
  31:src/main.cpp  **** }...
 123              		.loc 1 31 1
 124 00a8 83308101 		ld	ra,24(sp)
 125              		.cfi_restore 1
 126 00ac 03340101 		ld	s0,16(sp)
 127              		.cfi_restore 8
 128              		.cfi_def_cfa 2, 32
 129 00b0 13010102 		addi	sp,sp,32
 130              		.cfi_def_cfa_offset 0
 131 00b4 67800000 		jr	ra
 132              		.cfi_endproc
 133              	.LFE23:
 135              		.globl	framePointer
 136              		.bss
 137              		.align	3
 140              	framePointer:
 141 0000 00000000 		.zero	8
 141      00000000 
 142              		.text
 143              	.Letext0:
 144              		.file 4 "src/../h/../lib/hw.h"
 145              		.file 5 "src/../h/MemoryAllocator.hpp"
 146              		.file 6 "src/../h/Scheduler.hpp"
 147              		.file 7 "src/../h/syscall_c.hpp"
GAS LISTING /tmp/cccBQd2Q.s 			page 7


DEFINED SYMBOLS
                            *ABS*:0000000000000000 main.cpp
     /tmp/cccBQd2Q.s:9      .text:0000000000000000 _Z11userWrapperPv
     /tmp/cccBQd2Q.s:13     .text:0000000000000000 .L0 
     /tmp/cccBQd2Q.s:15     .text:0000000000000000 .L0 
     /tmp/cccBQd2Q.s:16     .text:0000000000000004 .L0 
     /tmp/cccBQd2Q.s:19     .text:000000000000000c .L0 
     /tmp/cccBQd2Q.s:20     .text:000000000000000c .L0 
     /tmp/cccBQd2Q.s:22     .text:0000000000000010 .L0 
     /tmp/cccBQd2Q.s:24     .text:0000000000000010 .L0 
     /tmp/cccBQd2Q.s:25     .text:0000000000000010 .L0 
     /tmp/cccBQd2Q.s:28     .text:0000000000000018 .L0 
     /tmp/cccBQd2Q.s:29     .text:000000000000001c .L0 
     /tmp/cccBQd2Q.s:31     .text:0000000000000020 .L0 
     /tmp/cccBQd2Q.s:32     .text:0000000000000020 .L0 
     /tmp/cccBQd2Q.s:34     .text:0000000000000024 .L0 
     /tmp/cccBQd2Q.s:36     .text:0000000000000028 .L0 
     /tmp/cccBQd2Q.s:42     .text:0000000000000028 main
     /tmp/cccBQd2Q.s:45     .text:0000000000000028 .L0 
     /tmp/cccBQd2Q.s:46     .text:0000000000000028 .L0 
     /tmp/cccBQd2Q.s:47     .text:000000000000002c .L0 
     /tmp/cccBQd2Q.s:50     .text:0000000000000034 .L0 
     /tmp/cccBQd2Q.s:51     .text:0000000000000034 .L0 
     /tmp/cccBQd2Q.s:53     .text:0000000000000038 .L0 
     /tmp/cccBQd2Q.s:55     .text:0000000000000038 .L0 
     /tmp/cccBQd2Q.s:56     .text:0000000000000038 .L0 
     /tmp/cccBQd2Q.s:59     .text:0000000000000040 .L0 
     /tmp/cccBQd2Q.s:60     .text:0000000000000040 .L0 
     /tmp/cccBQd2Q.s:63     .text:0000000000000048 .L0 
     /tmp/cccBQd2Q.s:64     .text:0000000000000048 .L0 
     /tmp/cccBQd2Q.s:65     .text:0000000000000048 .L0 
     /tmp/cccBQd2Q.s:71     .text:000000000000005c .L0 
     /tmp/cccBQd2Q.s:72     .text:000000000000005c .L0 
     /tmp/cccBQd2Q.s:79     .text:0000000000000068 .L0 
     /tmp/cccBQd2Q.s:80     .text:0000000000000068 .L0 
     /tmp/cccBQd2Q.s:81     .text:0000000000000068 .L0 
     /tmp/cccBQd2Q.s:87     .text:0000000000000070 .L0 
     /tmp/cccBQd2Q.s:88     .text:0000000000000070 .L0 
     /tmp/cccBQd2Q.s:98     .text:0000000000000088 .L0 
     /tmp/cccBQd2Q.s:99     .text:0000000000000088 .L0 
     /tmp/cccBQd2Q.s:100    .text:0000000000000088 .L0 
     /tmp/cccBQd2Q.s:111    .text:0000000000000090 .L0 
     /tmp/cccBQd2Q.s:112    .text:0000000000000090 .L0 
     /tmp/cccBQd2Q.s:113    .text:0000000000000090 .L0 
     /tmp/cccBQd2Q.s:116    .text:0000000000000098 .L0 
     /tmp/cccBQd2Q.s:118    .text:000000000000009c .L0 
     /tmp/cccBQd2Q.s:119    .text:000000000000009c .L0 
     /tmp/cccBQd2Q.s:124    .text:00000000000000a8 .L0 
     /tmp/cccBQd2Q.s:125    .text:00000000000000ac .L0 
     /tmp/cccBQd2Q.s:127    .text:00000000000000b0 .L0 
     /tmp/cccBQd2Q.s:128    .text:00000000000000b0 .L0 
     /tmp/cccBQd2Q.s:130    .text:00000000000000b4 .L0 
     /tmp/cccBQd2Q.s:132    .text:00000000000000b8 .L0 
     /tmp/cccBQd2Q.s:140    .bss:0000000000000000 framePointer
     /tmp/cccBQd2Q.s:148    .text:00000000000000b8 .L0 
     /tmp/cccBQd2Q.s:72     .text:000000000000005c .L0 
     /tmp/cccBQd2Q.s:89     .text:0000000000000074 .L0 
GAS LISTING /tmp/cccBQd2Q.s 			page 8


     /tmp/cccBQd2Q.s:122    .text:00000000000000a8 .L3
     /tmp/cccBQd2Q.s:107    .text:0000000000000090 .L5
     /tmp/cccBQd2Q.s:1208   .debug_abbrev:0000000000000000 .Ldebug_abbrev0
     /tmp/cccBQd2Q.s:2417   .debug_str:0000000000000721 .LASF143
     /tmp/cccBQd2Q.s:2309   .debug_str:0000000000000418 .LASF144
     /tmp/cccBQd2Q.s:2263   .debug_str:000000000000028f .LASF145
     /tmp/cccBQd2Q.s:5      .text:0000000000000000 .Ltext0
     /tmp/cccBQd2Q.s:143    .text:00000000000000b8 .Letext0
     /tmp/cccBQd2Q.s:2169   .debug_line:0000000000000000 .Ldebug_line0
     /tmp/cccBQd2Q.s:2335   .debug_str:00000000000004c3 .LASF0
     /tmp/cccBQd2Q.s:2355   .debug_str:000000000000052b .LASF1
     /tmp/cccBQd2Q.s:2321   .debug_str:000000000000046d .LASF2
     /tmp/cccBQd2Q.s:2293   .debug_str:00000000000003c8 .LASF4
     /tmp/cccBQd2Q.s:2397   .debug_str:0000000000000686 .LASF3
     /tmp/cccBQd2Q.s:2193   .debug_str:0000000000000080 .LASF5
     /tmp/cccBQd2Q.s:2359   .debug_str:000000000000055e .LASF6
     /tmp/cccBQd2Q.s:2333   .debug_str:00000000000004b0 .LASF7
     /tmp/cccBQd2Q.s:2435   .debug_str:0000000000000890 .LASF8
     /tmp/cccBQd2Q.s:2277   .debug_str:0000000000000323 .LASF9
     /tmp/cccBQd2Q.s:2375   .debug_str:00000000000005bd .LASF10
     /tmp/cccBQd2Q.s:2423   .debug_str:0000000000000806 .LASF11
     /tmp/cccBQd2Q.s:2197   .debug_str:0000000000000093 .LASF12
     /tmp/cccBQd2Q.s:2177   .debug_str:0000000000000036 .LASF13
     /tmp/cccBQd2Q.s:2215   .debug_str:000000000000011c .LASF14
     /tmp/cccBQd2Q.s:2389   .debug_str:0000000000000636 .LASF15
     /tmp/cccBQd2Q.s:2229   .debug_str:0000000000000185 .LASF16
     /tmp/cccBQd2Q.s:2199   .debug_str:00000000000000a3 .LASF19
     /tmp/cccBQd2Q.s:2467   .debug_str:00000000000009b8 .LASF17
     /tmp/cccBQd2Q.s:2411   .debug_str:0000000000000703 .LASF18
     /tmp/cccBQd2Q.s:2319   .debug_str:000000000000045d .LASF29
     /tmp/cccBQd2Q.s:2235   .debug_str:00000000000001be .LASF34
     /tmp/cccBQd2Q.s:2357   .debug_str:000000000000053e .LASF36
     /tmp/cccBQd2Q.s:2399   .debug_str:0000000000000698 .LASF20
     /tmp/cccBQd2Q.s:2409   .debug_str:00000000000006e2 .LASF22
     /tmp/cccBQd2Q.s:2377   .debug_str:00000000000005cc .LASF21
     /tmp/cccBQd2Q.s:2275   .debug_str:0000000000000302 .LASF23
     /tmp/cccBQd2Q.s:2449   .debug_str:0000000000000918 .LASF24
     /tmp/cccBQd2Q.s:2221   .debug_str:000000000000013a .LASF26
     /tmp/cccBQd2Q.s:2445   .debug_str:00000000000008ef .LASF25
     /tmp/cccBQd2Q.s:2291   .debug_str:0000000000000395 .LASF27
     /tmp/cccBQd2Q.s:2217   .debug_str:0000000000000128 .LASF75
     /tmp/cccBQd2Q.s:2253   .debug_str:0000000000000256 .LASF120
     /tmp/cccBQd2Q.s:2425   .debug_str:0000000000000815 .LASF122
     /tmp/cccBQd2Q.s:2271   .debug_str:00000000000002ef .LASF28
     /tmp/cccBQd2Q.s:2351   .debug_str:000000000000051f .LASF30
     /tmp/cccBQd2Q.s:2233   .debug_str:00000000000001af .LASF146
     /tmp/cccBQd2Q.s:2227   .debug_str:0000000000000179 .LASF31
     /tmp/cccBQd2Q.s:2311   .debug_str:0000000000000425 .LASF32
     /tmp/cccBQd2Q.s:2195   .debug_str:0000000000000087 .LASF33
     /tmp/cccBQd2Q.s:2419   .debug_str:00000000000007e5 .LASF35
     /tmp/cccBQd2Q.s:2239   .debug_str:00000000000001cc .LASF37
     /tmp/cccBQd2Q.s:2331   .debug_str:00000000000004a4 .LASF38
     /tmp/cccBQd2Q.s:2427   .debug_str:0000000000000843 .LASF39
     /tmp/cccBQd2Q.s:2387   .debug_str:000000000000062b .LASF40
     /tmp/cccBQd2Q.s:2459   .debug_str:000000000000095c .LASF41
     /tmp/cccBQd2Q.s:2179   .debug_str:0000000000000046 .LASF42
     /tmp/cccBQd2Q.s:2407   .debug_str:00000000000006cd .LASF43
GAS LISTING /tmp/cccBQd2Q.s 			page 9


     /tmp/cccBQd2Q.s:2247   .debug_str:0000000000000221 .LASF46
     /tmp/cccBQd2Q.s:2245   .debug_str:000000000000020c .LASF48
     /tmp/cccBQd2Q.s:2327   .debug_str:0000000000000494 .LASF44
     /tmp/cccBQd2Q.s:2379   .debug_str:00000000000005d5 .LASF45
     /tmp/cccBQd2Q.s:2415   .debug_str:000000000000071a .LASF47
     /tmp/cccBQd2Q.s:2429   .debug_str:000000000000085c .LASF49
     /tmp/cccBQd2Q.s:2267   .debug_str:00000000000002c0 .LASF50
     /tmp/cccBQd2Q.s:2231   .debug_str:000000000000019b .LASF51
     /tmp/cccBQd2Q.s:2173   .debug_str:0000000000000009 .LASF52
     /tmp/cccBQd2Q.s:2281   .debug_str:0000000000000347 .LASF53
     /tmp/cccBQd2Q.s:2255   .debug_str:0000000000000260 .LASF54
     /tmp/cccBQd2Q.s:2205   .debug_str:00000000000000d5 .LASF55
     /tmp/cccBQd2Q.s:2285   .debug_str:000000000000036b .LASF56
     /tmp/cccBQd2Q.s:2257   .debug_str:0000000000000268 .LASF57
     /tmp/cccBQd2Q.s:2337   .debug_str:00000000000004d0 .LASF58
     /tmp/cccBQd2Q.s:2453   .debug_str:0000000000000933 .LASF59
     /tmp/cccBQd2Q.s:2191   .debug_str:0000000000000079 .LASF60
     /tmp/cccBQd2Q.s:2265   .debug_str:00000000000002ad .LASF61
     /tmp/cccBQd2Q.s:2273   .debug_str:00000000000002fc .LASF62
     /tmp/cccBQd2Q.s:2413   .debug_str:0000000000000708 .LASF63
     /tmp/cccBQd2Q.s:2187   .debug_str:0000000000000065 .LASF64
     /tmp/cccBQd2Q.s:2473   .debug_str:00000000000009d9 .LASF65
     /tmp/cccBQd2Q.s:2465   .debug_str:00000000000009ad .LASF66
     /tmp/cccBQd2Q.s:2395   .debug_str:000000000000066e .LASF67
     /tmp/cccBQd2Q.s:2301   .debug_str:00000000000003ef .LASF68
     /tmp/cccBQd2Q.s:2313   .debug_str:0000000000000432 .LASF69
     /tmp/cccBQd2Q.s:2213   .debug_str:0000000000000112 .LASF70
     /tmp/cccBQd2Q.s:2289   .debug_str:000000000000037f .LASF71
     /tmp/cccBQd2Q.s:2261   .debug_str:0000000000000285 .LASF116
     /tmp/cccBQd2Q.s:2279   .debug_str:0000000000000331 .LASF118
     /tmp/cccBQd2Q.s:2371   .debug_str:00000000000005ad .LASF72
     /tmp/cccBQd2Q.s:2243   .debug_str:00000000000001f8 .LASF147
     /tmp/cccBQd2Q.s:2393   .debug_str:0000000000000652 .LASF148
     /tmp/cccBQd2Q.s:2225   .debug_str:0000000000000171 .LASF73
     /tmp/cccBQd2Q.s:2345   .debug_str:00000000000004eb .LASF74
     /tmp/cccBQd2Q.s:2237   .debug_str:00000000000001c7 .LASF76
     /tmp/cccBQd2Q.s:2325   .debug_str:000000000000048f .LASF77
     /tmp/cccBQd2Q.s:2367   .debug_str:000000000000059d .LASF78
     /tmp/cccBQd2Q.s:2181   .debug_str:000000000000004f .LASF79
     /tmp/cccBQd2Q.s:2251   .debug_str:000000000000024d .LASF80
     /tmp/cccBQd2Q.s:2451   .debug_str:000000000000092b .LASF81
     /tmp/cccBQd2Q.s:2405   .debug_str:00000000000006c4 .LASF82
     /tmp/cccBQd2Q.s:2385   .debug_str:000000000000061b .LASF83
     /tmp/cccBQd2Q.s:2307   .debug_str:000000000000040b .LASF84
     /tmp/cccBQd2Q.s:2269   .debug_str:00000000000002c8 .LASF85
     /tmp/cccBQd2Q.s:2383   .debug_str:0000000000000616 .LASF149
     /tmp/cccBQd2Q.s:2203   .debug_str:00000000000000b4 .LASF86
     /tmp/cccBQd2Q.s:2353   .debug_str:0000000000000525 .LASF87
     /tmp/cccBQd2Q.s:2469   .debug_str:00000000000009bd .LASF88
     /tmp/cccBQd2Q.s:2315   .debug_str:000000000000044a .LASF89
     /tmp/cccBQd2Q.s:2347   .debug_str:0000000000000503 .LASF90
     /tmp/cccBQd2Q.s:2471   .debug_str:00000000000009d1 .LASF91
     /tmp/cccBQd2Q.s:2209   .debug_str:00000000000000f6 .LASF92
     /tmp/cccBQd2Q.s:2305   .debug_str:0000000000000402 .LASF134
     /tmp/cccBQd2Q.s:2441   .debug_str:00000000000008c2 .LASF136
     /tmp/cccBQd2Q.s:2329   .debug_str:000000000000049b .LASF93
     /tmp/cccBQd2Q.s:2249   .debug_str:000000000000022a .LASF94
GAS LISTING /tmp/cccBQd2Q.s 			page 10


     /tmp/cccBQd2Q.s:2391   .debug_str:000000000000064c .LASF95
     /tmp/cccBQd2Q.s:2323   .debug_str:000000000000047b .LASF96
     /tmp/cccBQd2Q.s:2339   .debug_str:00000000000004d7 .LASF97
     /tmp/cccBQd2Q.s:2437   .debug_str:00000000000008a0 .LASF98
     /tmp/cccBQd2Q.s:2207   .debug_str:00000000000000e9 .LASF99
     /tmp/cccBQd2Q.s:2433   .debug_str:0000000000000880 .LASF100
     /tmp/cccBQd2Q.s:2403   .debug_str:00000000000006b4 .LASF101
     /tmp/cccBQd2Q.s:2431   .debug_str:000000000000086f .LASF102
     /tmp/cccBQd2Q.s:2421   .debug_str:00000000000007f6 .LASF103
     /tmp/cccBQd2Q.s:2283   .debug_str:000000000000035b .LASF104
     /tmp/cccBQd2Q.s:2297   .debug_str:00000000000003d7 .LASF105
     /tmp/cccBQd2Q.s:2457   .debug_str:000000000000094b .LASF106
     /tmp/cccBQd2Q.s:2365   .debug_str:0000000000000582 .LASF107
     /tmp/cccBQd2Q.s:2443   .debug_str:00000000000008da .LASF108
     /tmp/cccBQd2Q.s:2299   .debug_str:00000000000003ea .LASF109
     /tmp/cccBQd2Q.s:2343   .debug_str:00000000000004e6 .LASF110
     /tmp/cccBQd2Q.s:2341   .debug_str:00000000000004e0 .LASF111
     /tmp/cccBQd2Q.s:2303   .debug_str:00000000000003fa .LASF112
     /tmp/cccBQd2Q.s:2211   .debug_str:000000000000010c .LASF113
     /tmp/cccBQd2Q.s:2317   .debug_str:000000000000044f .LASF114
     /tmp/cccBQd2Q.s:2189   .debug_str:000000000000006b .LASF115
     /tmp/cccBQd2Q.s:2447   .debug_str:000000000000090a .LASF117
     /tmp/cccBQd2Q.s:2463   .debug_str:0000000000000981 .LASF119
     /tmp/cccBQd2Q.s:2361   .debug_str:0000000000000571 .LASF121
     /tmp/cccBQd2Q.s:2381   .debug_str:00000000000005e8 .LASF123
     /tmp/cccBQd2Q.s:2183   .debug_str:0000000000000057 .LASF124
     /tmp/cccBQd2Q.s:2171   .debug_str:0000000000000000 .LASF125
     /tmp/cccBQd2Q.s:2287   .debug_str:0000000000000373 .LASF150
     /tmp/cccBQd2Q.s:2373   .debug_str:00000000000005b7 .LASF126
     /tmp/cccBQd2Q.s:2369   .debug_str:00000000000005a5 .LASF127
     /tmp/cccBQd2Q.s:2295   .debug_str:00000000000003cf .LASF128
     /tmp/cccBQd2Q.s:2349   .debug_str:0000000000000516 .LASF129
     /tmp/cccBQd2Q.s:2363   .debug_str:000000000000057d .LASF130
     /tmp/cccBQd2Q.s:2201   .debug_str:00000000000000af .LASF131
     /tmp/cccBQd2Q.s:43     .text:0000000000000028 .LFB23
     /tmp/cccBQd2Q.s:133    .text:00000000000000b8 .LFE23
     /tmp/cccBQd2Q.s:2439   .debug_str:00000000000008b7 .LASF132
     /tmp/cccBQd2Q.s:2112   .debug_loc:0000000000000000 .LLST1
     /tmp/cccBQd2Q.s:2259   .debug_str:000000000000027c .LASF133
     /tmp/cccBQd2Q.s:76     .text:0000000000000068 .LBB6
     /tmp/cccBQd2Q.s:85     .text:0000000000000070 .LBE6
     /tmp/cccBQd2Q.s:2119   .debug_loc:0000000000000023 .LLST2
     /tmp/cccBQd2Q.s:2127   .debug_loc:0000000000000047 .LLST3
     /tmp/cccBQd2Q.s:95     .text:0000000000000088 .LBB8
     /tmp/cccBQd2Q.s:109    .text:0000000000000090 .LBE8
     /tmp/cccBQd2Q.s:2134   .debug_loc:000000000000006a .LLST4
     /tmp/cccBQd2Q.s:57     .text:0000000000000040 .LVL2
     /tmp/cccBQd2Q.s:61     .text:0000000000000048 .LVL3
     /tmp/cccBQd2Q.s:69     .text:000000000000005c .LVL4
     /tmp/cccBQd2Q.s:93     .text:0000000000000088 .LVL8
     /tmp/cccBQd2Q.s:114    .text:0000000000000098 .LVL10
     /tmp/cccBQd2Q.s:120    .text:00000000000000a4 .LVL11
     /tmp/cccBQd2Q.s:2223   .debug_str:0000000000000165 .LASF135
     /tmp/cccBQd2Q.s:2401   .debug_str:00000000000006a2 .LASF137
     /tmp/cccBQd2Q.s:10     .text:0000000000000000 .LFB22
     /tmp/cccBQd2Q.s:37     .text:0000000000000028 .LFE22
     /tmp/cccBQd2Q.s:2142   .debug_loc:000000000000008e .LLST0
GAS LISTING /tmp/cccBQd2Q.s 			page 11


     /tmp/cccBQd2Q.s:26     .text:0000000000000018 .LVL1
     /tmp/cccBQd2Q.s:2455   .debug_str:0000000000000946 .LASF151
     /tmp/cccBQd2Q.s:2219   .debug_str:0000000000000135 .LASF138
     /tmp/cccBQd2Q.s:2175   .debug_str:0000000000000011 .LASF139
     /tmp/cccBQd2Q.s:2241   .debug_str:00000000000001ea .LASF141
     /tmp/cccBQd2Q.s:2461   .debug_str:0000000000000974 .LASF140
     /tmp/cccBQd2Q.s:2185   .debug_str:000000000000005c .LASF142
     /tmp/cccBQd2Q.s:91     .text:0000000000000080 .LVL7
     /tmp/cccBQd2Q.s:75     .text:0000000000000068 .LVL5
     /tmp/cccBQd2Q.s:83     .text:0000000000000070 .LVL6
     /tmp/cccBQd2Q.s:105    .text:0000000000000090 .LVL9
     /tmp/cccBQd2Q.s:14     .text:0000000000000000 .LVL0
     /tmp/cccBQd2Q.s:149    .debug_info:0000000000000000 .Ldebug_info0

UNDEFINED SYMBOLS
_Z8userMainv
_ZN15MemoryAllocator8initHeapEv
_ZN5Riscv16setupTrapHandlerEv
_ZN7KThread12createThreadEPFvPvES0_S0_
_ZN7KThread7runningE
_Z13thread_createPP7KThreadPFvPvES2_
_ZN9Scheduler7isEmptyEv
_ZN7KThread5yieldEv
