GAS LISTING /tmp/ccgTc9t8.s 			page 1


   1              		.file	"main.cpp"
   2              		.option pic
   3              		.option norelax
   4              		.text
   5              	.Ltext0:
   6              		.section	.rodata.str1.8,"aMS",@progbits,1
   7              		.align	3
   8              	.LC0:
   9 0000 48656C6C 		.string	"Hello from thread body!\n"
   9      6F206672 
   9      6F6D2074 
   9      68726561 
   9      6420626F 
  10              		.text
  11              		.align	2
  12              		.globl	_Z10threadBodyPv
  14              	_Z10threadBodyPv:
  15              	.LFB2:
  16              		.file 1 "src/main.cpp"
   1:src/main.cpp  **** #include "../h/MemoryAllocator.hpp"
   2:src/main.cpp  **** #include "../h/Riscv.hpp"
   3:src/main.cpp  **** #include "../h/Scheduler.hpp"
   4:src/main.cpp  **** #include "../h/Thread.hpp"
   5:src/main.cpp  **** 
   6:src/main.cpp  **** extern void userMain();
   7:src/main.cpp  **** extern void printString(const char* s);
   8:src/main.cpp  **** 
   9:src/main.cpp  **** void threadBody(void* arg) {
  17              		.loc 1 9 28
  18              		.cfi_startproc
  19              	.LVL0:
  20 0000 130101FF 		addi	sp,sp,-16
  21              		.cfi_def_cfa_offset 16
  22 0004 23341100 		sd	ra,8(sp)
  23 0008 23308100 		sd	s0,0(sp)
  24              		.cfi_offset 1, -8
  25              		.cfi_offset 8, -16
  26 000c 13040101 		addi	s0,sp,16
  27              		.cfi_def_cfa 8, 0
  10:src/main.cpp  ****     printString("Hello from thread body!\n");
  28              		.loc 1 10 5
  29              		.loc 1 10 16 is_stmt 0
  30 0010 17050000 		lla	a0,.LC0
  30      13050500 
  31              	.LVL1:
  32 0018 97000000 		call	_Z11printStringPKc@plt
  32      E7800000 
  33              	.LVL2:
  11:src/main.cpp  **** }
  34              		.loc 1 11 1
  35 0020 83308100 		ld	ra,8(sp)
  36              		.cfi_restore 1
  37 0024 03340100 		ld	s0,0(sp)
  38              		.cfi_restore 8
  39              		.cfi_def_cfa 2, 16
  40 0028 13010101 		addi	sp,sp,16
  41              		.cfi_def_cfa_offset 0
GAS LISTING /tmp/ccgTc9t8.s 			page 2


  42 002c 67800000 		jr	ra
  43              		.cfi_endproc
  44              	.LFE2:
  46              		.section	.rodata.str1.8
  47 0019 00000000 		.align	3
  47      000000
  48              	.LC1:
  49 0020 53636865 		.string	"Scheduler working OK\n"
  49      64756C65 
  49      7220776F 
  49      726B696E 
  49      67204F4B 
  50 0036 0000     		.align	3
  51              	.LC2:
  52 0038 53636865 		.string	"Scheduler empty\n"
  52      64756C65 
  52      7220656D 
  52      7074790A 
  52      00
  53              		.text
  54              		.align	2
  55              		.globl	main
  57              	main:
  58              	.LFB3:
  12:src/main.cpp  **** 
  13:src/main.cpp  **** void main() {
  59              		.loc 1 13 13 is_stmt 1
  60              		.cfi_startproc
  61              		.cfi_personality 0x9b,DW.ref.__gxx_personality_v0
  62              		.cfi_lsda 0x1b,.LLSDA3
  63 0030 130101F9 		addi	sp,sp,-112
  64              		.cfi_def_cfa_offset 112
  65 0034 23341106 		sd	ra,104(sp)
  66 0038 23308106 		sd	s0,96(sp)
  67 003c 233C9104 		sd	s1,88(sp)
  68              		.cfi_offset 1, -8
  69              		.cfi_offset 8, -16
  70              		.cfi_offset 9, -24
  71 0040 13040107 		addi	s0,sp,112
  72              		.cfi_def_cfa 8, 0
  14:src/main.cpp  ****     MemoryAllocator::initHeap();
  73              		.loc 1 14 5
  74              	.LEHB0:
  75              		.loc 1 14 30 is_stmt 0
  76 0044 97000000 		call	_ZN15MemoryAllocator8initHeapEv@plt
  76      E7800000 
  77              	.LVL3:
  15:src/main.cpp  ****     Riscv::setupTrapHandler();
  78              		.loc 1 15 5 is_stmt 1
  79              		.loc 1 15 28 is_stmt 0
  80 004c 97000000 		call	_ZN5Riscv16setupTrapHandlerEv@plt
  80      E7800000 
  81              	.LVL4:
  16:src/main.cpp  **** 
  17:src/main.cpp  ****     Thread t1(threadBody, nullptr);
  82              		.loc 1 17 5 is_stmt 1
  83              		.loc 1 17 34 is_stmt 0
GAS LISTING /tmp/ccgTc9t8.s 			page 3


  84 0054 B7160000 		li	a3,4096
  85 0058 13060000 		li	a2,0
  86 005c 97050000 		lla	a1,_Z10threadBodyPv
  86      93850500 
  87 0064 930484F9 		addi	s1,s0,-104
  88 0068 13850400 		mv	a0,s1
  89 006c 97000000 		call	_ZN6ThreadC1EPFvPvES0_m@plt
  89      E7800000 
  90              	.LVL5:
  91              	.LEHE0:
  18:src/main.cpp  ****     t1.start();
  92              		.loc 1 18 5 is_stmt 1
  93              		.loc 1 18 13 is_stmt 0
  94 0074 13850400 		mv	a0,s1
  95              	.LEHB1:
  96 0078 97000000 		call	_ZN6Thread5startEv@plt
  96      E7800000 
  97              	.LVL6:
  19:src/main.cpp  **** 
  20:src/main.cpp  ****     if (!Scheduler::isEmpty()) {
  98              		.loc 1 20 5 is_stmt 1
  99              	.LBB2:
 100              		.loc 1 20 28 is_stmt 0
 101 0080 97000000 		call	_ZN9Scheduler7isEmptyEv@plt
 101      E7800000 
 102              	.LVL7:
 103              		.loc 1 20 5
 104 0088 631A0502 		bnez	a0,.L4
 105              	.LBB3:
  21:src/main.cpp  ****         Thread* next = Scheduler::get();
 106              		.loc 1 21 9 is_stmt 1
 107              		.loc 1 21 38 is_stmt 0
 108 008c 97000000 		call	_ZN9Scheduler3getEv@plt
 108      E7800000 
 109              	.LVL8:
  22:src/main.cpp  ****         if (next == &t1) {
 110              		.loc 1 22 9 is_stmt 1
 111 0094 638CA400 		beq	s1,a0,.L10
  23:src/main.cpp  ****             printString("Scheduler working OK\n");
  24:src/main.cpp  ****         }
  25:src/main.cpp  ****         else {
  26:src/main.cpp  ****             printString("Scheduler empty\n");
 112              		.loc 1 26 13
 113              		.loc 1 26 24 is_stmt 0
 114 0098 17050000 		lla	a0,.LC2
 114      13050500 
 115              	.LVL9:
 116 00a0 97000000 		call	_Z11printStringPKc@plt
 116      E7800000 
 117              	.LVL10:
 118 00a8 6F004001 		j	.L4
 119              	.LVL11:
 120              	.L10:
  23:src/main.cpp  ****             printString("Scheduler working OK\n");
 121              		.loc 1 23 13 is_stmt 1
  23:src/main.cpp  ****             printString("Scheduler working OK\n");
 122              		.loc 1 23 24 is_stmt 0
GAS LISTING /tmp/ccgTc9t8.s 			page 4


 123 00ac 17050000 		lla	a0,.LC1
 123      13050500 
 124              	.LVL12:
 125 00b4 97000000 		call	_Z11printStringPKc@plt
 125      E7800000 
 126              	.LVL13:
 127              	.L4:
 128              	.LBE3:
 129              	.LBE2:
  27:src/main.cpp  ****         }
  28:src/main.cpp  ****     }
  29:src/main.cpp  **** 
  30:src/main.cpp  ****     userMain();
 130              		.loc 1 30 5 is_stmt 1
 131              		.loc 1 30 13 is_stmt 0
 132 00bc 97000000 		call	_Z8userMainv@plt
 132      E7800000 
 133              	.LVL14:
 134              	.LEHE1:
  17:src/main.cpp  ****     t1.start();
 135              		.loc 1 17 34
 136 00c4 130584F9 		addi	a0,s0,-104
 137 00c8 97000000 		call	_ZN6ThreadD1Ev@plt
 137      E7800000 
 138              	.LVL15:
  31:src/main.cpp  **** }...
 139              		.loc 1 31 1
 140 00d0 83308106 		ld	ra,104(sp)
 141              		.cfi_remember_state
 142              		.cfi_restore 1
 143 00d4 03340106 		ld	s0,96(sp)
 144              		.cfi_restore 8
 145              		.cfi_def_cfa 2, 112
 146 00d8 83348105 		ld	s1,88(sp)
 147              		.cfi_restore 9
 148 00dc 13010107 		addi	sp,sp,112
 149              		.cfi_def_cfa_offset 0
 150 00e0 67800000 		jr	ra
 151              	.L7:
 152              		.cfi_restore_state
 153 00e4 93040500 		mv	s1,a0
  17:src/main.cpp  ****     t1.start();
 154              		.loc 1 17 34
 155 00e8 130584F9 		addi	a0,s0,-104
 156 00ec 97000000 		call	_ZN6ThreadD1Ev@plt
 156      E7800000 
 157              	.LVL16:
 158 00f4 13850400 		mv	a0,s1
 159              	.LEHB2:
 160 00f8 97000000 		call	_Unwind_Resume@plt
 160      E7800000 
 161              	.LVL17:
 162              	.LEHE2:
 163              		.cfi_endproc
 164              	.LFE3:
 165              		.globl	__gxx_personality_v0
 166              		.section	.gcc_except_table,"a",@progbits
GAS LISTING /tmp/ccgTc9t8.s 			page 5


 167              	.LLSDA3:
 168 0000 FF       		.byte	0xff
 169 0001 FF       		.byte	0xff
 170 0002 03       		.byte	0x3
 171 0003 27       		.byte	0x27
 172 0004 00000000 		.4byte	.LEHB0-.LFB3
 173 0008 00000000 		.4byte	.LEHE0-.LEHB0
 174 000c 00000000 		.4byte	0
 175 0010 00       		.byte	0
 176 0011 00000000 		.4byte	.LEHB1-.LFB3
 177 0015 00000000 		.4byte	.LEHE1-.LEHB1
 178 0019 00000000 		.4byte	.L7-.LFB3
 179 001d 00       		.byte	0
 180 001e 00000000 		.4byte	.LEHB2-.LFB3
 181 0022 00000000 		.4byte	.LEHE2-.LEHB2
 182 0026 00000000 		.4byte	0
 183 002a 00       		.byte	0
 184              		.text
 186              	.Letext0:
 187              		.file 2 "src/../h/../lib/hw.h"
 188              		.file 3 "src/../h/MemoryAllocator.hpp"
 189              		.file 4 "src/../h/Riscv.hpp"
 190              		.file 5 "src/../h/Scheduler.hpp"
 191              		.file 6 "src/../h/Thread.hpp"
 1963              		.align	3
 1966              	DW.ref.__gxx_personality_v0:
 1967 0000 00000000 		.dword	__gxx_personality_v0
 1967      00000000 
 1968              		.ident	"GCC: (Ubuntu 9.4.0-1ubuntu1~20.04) 9.4.0"
 1969              		.section	.note.GNU-stack,"",@progbits
GAS LISTING /tmp/ccgTc9t8.s 			page 6


DEFINED SYMBOLS
                            *ABS*:0000000000000000 main.cpp
     /tmp/ccgTc9t8.s:14     .text:0000000000000000 _Z10threadBodyPv
     /tmp/ccgTc9t8.s:18     .text:0000000000000000 .L0 
     /tmp/ccgTc9t8.s:20     .text:0000000000000000 .L0 
     /tmp/ccgTc9t8.s:21     .text:0000000000000004 .L0 
     /tmp/ccgTc9t8.s:24     .text:000000000000000c .L0 
     /tmp/ccgTc9t8.s:25     .text:000000000000000c .L0 
     /tmp/ccgTc9t8.s:27     .text:0000000000000010 .L0 
     /tmp/ccgTc9t8.s:29     .text:0000000000000010 .L0 
     /tmp/ccgTc9t8.s:30     .text:0000000000000010 .L0 
     /tmp/ccgTc9t8.s:35     .text:0000000000000020 .L0 
     /tmp/ccgTc9t8.s:36     .text:0000000000000024 .L0 
     /tmp/ccgTc9t8.s:38     .text:0000000000000028 .L0 
     /tmp/ccgTc9t8.s:39     .text:0000000000000028 .L0 
     /tmp/ccgTc9t8.s:41     .text:000000000000002c .L0 
     /tmp/ccgTc9t8.s:43     .text:0000000000000030 .L0 
     /tmp/ccgTc9t8.s:57     .text:0000000000000030 main
     /tmp/ccgTc9t8.s:60     .text:0000000000000030 .L0 
     /tmp/ccgTc9t8.s:1966   .data.rel.local.DW.ref.__gxx_personality_v0:0000000000000000 DW.ref.__gxx_personality_v0
     /tmp/ccgTc9t8.s:63     .text:0000000000000030 .L0 
     /tmp/ccgTc9t8.s:64     .text:0000000000000034 .L0 
     /tmp/ccgTc9t8.s:68     .text:0000000000000040 .L0 
     /tmp/ccgTc9t8.s:69     .text:0000000000000040 .L0 
     /tmp/ccgTc9t8.s:70     .text:0000000000000040 .L0 
     /tmp/ccgTc9t8.s:72     .text:0000000000000044 .L0 
     /tmp/ccgTc9t8.s:75     .text:0000000000000044 .L0 
     /tmp/ccgTc9t8.s:76     .text:0000000000000044 .L0 
     /tmp/ccgTc9t8.s:79     .text:000000000000004c .L0 
     /tmp/ccgTc9t8.s:80     .text:000000000000004c .L0 
     /tmp/ccgTc9t8.s:83     .text:0000000000000054 .L0 
     /tmp/ccgTc9t8.s:84     .text:0000000000000054 .L0 
     /tmp/ccgTc9t8.s:93     .text:0000000000000074 .L0 
     /tmp/ccgTc9t8.s:94     .text:0000000000000074 .L0 
     /tmp/ccgTc9t8.s:100    .text:0000000000000080 .L0 
     /tmp/ccgTc9t8.s:101    .text:0000000000000080 .L0 
     /tmp/ccgTc9t8.s:104    .text:0000000000000088 .L0 
     /tmp/ccgTc9t8.s:107    .text:000000000000008c .L0 
     /tmp/ccgTc9t8.s:108    .text:000000000000008c .L0 
     /tmp/ccgTc9t8.s:111    .text:0000000000000094 .L0 
     /tmp/ccgTc9t8.s:113    .text:0000000000000098 .L0 
     /tmp/ccgTc9t8.s:114    .text:0000000000000098 .L0 
     /tmp/ccgTc9t8.s:122    .text:00000000000000ac .L0 
     /tmp/ccgTc9t8.s:123    .text:00000000000000ac .L0 
     /tmp/ccgTc9t8.s:131    .text:00000000000000bc .L0 
     /tmp/ccgTc9t8.s:132    .text:00000000000000bc .L0 
     /tmp/ccgTc9t8.s:136    .text:00000000000000c4 .L0 
     /tmp/ccgTc9t8.s:140    .text:00000000000000d0 .L0 
     /tmp/ccgTc9t8.s:141    .text:00000000000000d4 .L0 
     /tmp/ccgTc9t8.s:142    .text:00000000000000d4 .L0 
     /tmp/ccgTc9t8.s:144    .text:00000000000000d8 .L0 
     /tmp/ccgTc9t8.s:145    .text:00000000000000d8 .L0 
     /tmp/ccgTc9t8.s:147    .text:00000000000000dc .L0 
     /tmp/ccgTc9t8.s:149    .text:00000000000000e0 .L0 
     /tmp/ccgTc9t8.s:152    .text:00000000000000e4 .L0 
     /tmp/ccgTc9t8.s:155    .text:00000000000000e8 .L0 
     /tmp/ccgTc9t8.s:163    .text:0000000000000100 .L0 
GAS LISTING /tmp/ccgTc9t8.s 			page 7


     /tmp/ccgTc9t8.s:192    .text:0000000000000100 .L0 
     /tmp/ccgTc9t8.s:8      .rodata.str1.8:0000000000000000 .LC0
     /tmp/ccgTc9t8.s:30     .text:0000000000000010 .L0 
     /tmp/ccgTc9t8.s:86     .text:000000000000005c .L0 
     /tmp/ccgTc9t8.s:51     .rodata.str1.8:0000000000000038 .LC2
     /tmp/ccgTc9t8.s:114    .text:0000000000000098 .L0 
     /tmp/ccgTc9t8.s:48     .rodata.str1.8:0000000000000020 .LC1
     /tmp/ccgTc9t8.s:123    .text:00000000000000ac .L0 
     /tmp/ccgTc9t8.s:127    .text:00000000000000bc .L4
     /tmp/ccgTc9t8.s:120    .text:00000000000000ac .L10
     /tmp/ccgTc9t8.s:74     .text:0000000000000044 .LEHB0
     /tmp/ccgTc9t8.s:58     .text:0000000000000030 .LFB3
     /tmp/ccgTc9t8.s:91     .text:0000000000000074 .LEHE0
     /tmp/ccgTc9t8.s:95     .text:0000000000000078 .LEHB1
     /tmp/ccgTc9t8.s:134    .text:00000000000000c4 .LEHE1
     /tmp/ccgTc9t8.s:151    .text:00000000000000e4 .L7
     /tmp/ccgTc9t8.s:159    .text:00000000000000f8 .LEHB2
     /tmp/ccgTc9t8.s:162    .text:0000000000000100 .LEHE2
     /tmp/ccgTc9t8.s:970    .debug_abbrev:0000000000000000 .Ldebug_abbrev0
     /tmp/ccgTc9t8.s:1926   .debug_str:00000000000004d9 .LASF85
     /tmp/ccgTc9t8.s:1848   .debug_str:0000000000000289 .LASF86
     /tmp/ccgTc9t8.s:1810   .debug_str:0000000000000137 .LASF87
     /tmp/ccgTc9t8.s:5      .text:0000000000000000 .Ltext0
     /tmp/ccgTc9t8.s:186    .text:0000000000000100 .Letext0
     /tmp/ccgTc9t8.s:1764   .debug_line:0000000000000000 .Ldebug_line0
     /tmp/ccgTc9t8.s:1874   .debug_str:0000000000000383 .LASF0
     /tmp/ccgTc9t8.s:1890   .debug_str:00000000000003d7 .LASF1
     /tmp/ccgTc9t8.s:1860   .debug_str:0000000000000311 .LASF2
     /tmp/ccgTc9t8.s:1834   .debug_str:0000000000000244 .LASF4
     /tmp/ccgTc9t8.s:1914   .debug_str:0000000000000476 .LASF3
     /tmp/ccgTc9t8.s:1778   .debug_str:0000000000000051 .LASF5
     /tmp/ccgTc9t8.s:1894   .debug_str:000000000000040a .LASF6
     /tmp/ccgTc9t8.s:1872   .debug_str:0000000000000370 .LASF7
     /tmp/ccgTc9t8.s:1936   .debug_str:00000000000005f2 .LASF8
     /tmp/ccgTc9t8.s:1822   .debug_str:00000000000001c4 .LASF9
     /tmp/ccgTc9t8.s:1902   .debug_str:0000000000000435 .LASF10
     /tmp/ccgTc9t8.s:1930   .debug_str:00000000000005ae .LASF11
     /tmp/ccgTc9t8.s:1780   .debug_str:0000000000000058 .LASF12
     /tmp/ccgTc9t8.s:1768   .debug_str:0000000000000015 .LASF13
     /tmp/ccgTc9t8.s:1786   .debug_str:0000000000000079 .LASF14
     /tmp/ccgTc9t8.s:1908   .debug_str:0000000000000452 .LASF15
     /tmp/ccgTc9t8.s:1796   .debug_str:00000000000000dd .LASF16
     /tmp/ccgTc9t8.s:1782   .debug_str:0000000000000068 .LASF19
     /tmp/ccgTc9t8.s:1956   .debug_str:00000000000006a8 .LASF17
     /tmp/ccgTc9t8.s:1922   .debug_str:00000000000004bc .LASF18
     /tmp/ccgTc9t8.s:1858   .debug_str:0000000000000301 .LASF28
     /tmp/ccgTc9t8.s:1798   .debug_str:00000000000000f3 .LASF30
     /tmp/ccgTc9t8.s:1892   .debug_str:00000000000003ea .LASF32
     /tmp/ccgTc9t8.s:1916   .debug_str:0000000000000488 .LASF20
     /tmp/ccgTc9t8.s:1920   .debug_str:000000000000049b .LASF22
     /tmp/ccgTc9t8.s:1904   .debug_str:0000000000000444 .LASF21
     /tmp/ccgTc9t8.s:1820   .debug_str:00000000000001a3 .LASF23
     /tmp/ccgTc9t8.s:1946   .debug_str:0000000000000640 .LASF24
     /tmp/ccgTc9t8.s:1790   .debug_str:0000000000000092 .LASF26
     /tmp/ccgTc9t8.s:1940   .debug_str:000000000000060d .LASF25
     /tmp/ccgTc9t8.s:1832   .debug_str:0000000000000211 .LASF27
     /tmp/ccgTc9t8.s:1788   .debug_str:0000000000000085 .LASF54
GAS LISTING /tmp/ccgTc9t8.s 			page 8


     /tmp/ccgTc9t8.s:1806   .debug_str:0000000000000128 .LASF67
     /tmp/ccgTc9t8.s:1932   .debug_str:00000000000005bd .LASF69
     /tmp/ccgTc9t8.s:1886   .debug_str:00000000000003cb .LASF29
     /tmp/ccgTc9t8.s:1928   .debug_str:000000000000059d .LASF31
     /tmp/ccgTc9t8.s:1802   .debug_str:0000000000000101 .LASF33
     /tmp/ccgTc9t8.s:1866   .debug_str:000000000000032d .LASF34
     /tmp/ccgTc9t8.s:1852   .debug_str:00000000000002b8 .LASF35
     /tmp/ccgTc9t8.s:1898   .debug_str:0000000000000425 .LASF36
     /tmp/ccgTc9t8.s:1830   .debug_str:00000000000001fd .LASF88
     /tmp/ccgTc9t8.s:1868   .debug_str:0000000000000339 .LASF89
     /tmp/ccgTc9t8.s:1792   .debug_str:00000000000000bd .LASF37
     /tmp/ccgTc9t8.s:1882   .debug_str:00000000000003a4 .LASF38
     /tmp/ccgTc9t8.s:1800   .debug_str:00000000000000fc .LASF39
     /tmp/ccgTc9t8.s:1862   .debug_str:000000000000031f .LASF40
     /tmp/ccgTc9t8.s:1934   .debug_str:00000000000005eb .LASF41
     /tmp/ccgTc9t8.s:1772   .debug_str:0000000000000031 .LASF42
     /tmp/ccgTc9t8.s:1924   .debug_str:00000000000004c1 .LASF43
     /tmp/ccgTc9t8.s:1906   .debug_str:000000000000044d .LASF90
     /tmp/ccgTc9t8.s:1912   .debug_str:000000000000046e .LASF44
     /tmp/ccgTc9t8.s:1884   .debug_str:00000000000003bc .LASF45
     /tmp/ccgTc9t8.s:1888   .debug_str:00000000000003d1 .LASF46
     /tmp/ccgTc9t8.s:1818   .debug_str:0000000000000190 .LASF47
     /tmp/ccgTc9t8.s:1856   .debug_str:00000000000002fc .LASF48
     /tmp/ccgTc9t8.s:1776   .debug_str:000000000000003f .LASF49
     /tmp/ccgTc9t8.s:1958   .debug_str:00000000000006ad .LASF50
     /tmp/ccgTc9t8.s:1766   .debug_str:0000000000000000 .LASF51
     /tmp/ccgTc9t8.s:1842   .debug_str:0000000000000260 .LASF77
     /tmp/ccgTc9t8.s:1816   .debug_str:0000000000000179 .LASF79
     /tmp/ccgTc9t8.s:1864   .debug_str:0000000000000324 .LASF52
     /tmp/ccgTc9t8.s:1850   .debug_str:0000000000000296 .LASF53
     /tmp/ccgTc9t8.s:1948   .debug_str:0000000000000653 .LASF55
     /tmp/ccgTc9t8.s:1910   .debug_str:0000000000000468 .LASF56
     /tmp/ccgTc9t8.s:1824   .debug_str:00000000000001d2 .LASF57
     /tmp/ccgTc9t8.s:1876   .debug_str:0000000000000390 .LASF58
     /tmp/ccgTc9t8.s:1814   .debug_str:0000000000000163 .LASF59
     /tmp/ccgTc9t8.s:1878   .debug_str:0000000000000399 .LASF60
     /tmp/ccgTc9t8.s:1944   .debug_str:0000000000000636 .LASF61
     /tmp/ccgTc9t8.s:1840   .debug_str:0000000000000258 .LASF62
     /tmp/ccgTc9t8.s:1838   .debug_str:0000000000000253 .LASF63
     /tmp/ccgTc9t8.s:1880   .debug_str:000000000000039f .LASF64
     /tmp/ccgTc9t8.s:1774   .debug_str:0000000000000039 .LASF65
     /tmp/ccgTc9t8.s:1812   .debug_str:0000000000000155 .LASF66
     /tmp/ccgTc9t8.s:1870   .debug_str:0000000000000354 .LASF91
     /tmp/ccgTc9t8.s:1942   .debug_str:0000000000000628 .LASF92
     /tmp/ccgTc9t8.s:1854   .debug_str:00000000000002d1 .LASF93
     /tmp/ccgTc9t8.s:1826   .debug_str:00000000000001e5 .LASF68
     /tmp/ccgTc9t8.s:1954   .debug_str:000000000000067b .LASF70
     /tmp/ccgTc9t8.s:1808   .debug_str:0000000000000132 .LASF71
     /tmp/ccgTc9t8.s:1828   .debug_str:00000000000001f1 .LASF94
     /tmp/ccgTc9t8.s:1900   .debug_str:000000000000042f .LASF72
     /tmp/ccgTc9t8.s:1896   .debug_str:000000000000041d .LASF73
     /tmp/ccgTc9t8.s:1836   .debug_str:000000000000024b .LASF74
     /tmp/ccgTc9t8.s:1918   .debug_str:0000000000000492 .LASF75
     /tmp/ccgTc9t8.s:1784   .debug_str:0000000000000074 .LASF76
     /tmp/ccgTc9t8.s:164    .text:0000000000000100 .LFE3
     /tmp/ccgTc9t8.s:105    .text:000000000000008c .LBB3
     /tmp/ccgTc9t8.s:128    .text:00000000000000bc .LBE3
GAS LISTING /tmp/ccgTc9t8.s 			page 9


     /tmp/ccgTc9t8.s:1726   .debug_loc:0000000000000000 .LLST1
     /tmp/ccgTc9t8.s:109    .text:0000000000000094 .LVL8
     /tmp/ccgTc9t8.s:117    .text:00000000000000a8 .LVL10
     /tmp/ccgTc9t8.s:126    .text:00000000000000bc .LVL13
     /tmp/ccgTc9t8.s:77     .text:000000000000004c .LVL3
     /tmp/ccgTc9t8.s:81     .text:0000000000000054 .LVL4
     /tmp/ccgTc9t8.s:90     .text:0000000000000074 .LVL5
     /tmp/ccgTc9t8.s:97     .text:0000000000000080 .LVL6
     /tmp/ccgTc9t8.s:102    .text:0000000000000088 .LVL7
     /tmp/ccgTc9t8.s:133    .text:00000000000000c4 .LVL14
     /tmp/ccgTc9t8.s:138    .text:00000000000000d0 .LVL15
     /tmp/ccgTc9t8.s:157    .text:00000000000000f4 .LVL16
     /tmp/ccgTc9t8.s:161    .text:0000000000000100 .LVL17
     /tmp/ccgTc9t8.s:1938   .debug_str:0000000000000602 .LASF78
     /tmp/ccgTc9t8.s:1846   .debug_str:0000000000000278 .LASF80
     /tmp/ccgTc9t8.s:15     .text:0000000000000000 .LFB2
     /tmp/ccgTc9t8.s:44     .text:0000000000000030 .LFE2
     /tmp/ccgTc9t8.s:1737   .debug_loc:0000000000000036 .LLST0
     /tmp/ccgTc9t8.s:33     .text:0000000000000020 .LVL2
     /tmp/ccgTc9t8.s:1950   .debug_str:000000000000065b .LASF81
     /tmp/ccgTc9t8.s:1770   .debug_str:0000000000000025 .LASF83
     /tmp/ccgTc9t8.s:1952   .debug_str:000000000000066e .LASF82
     /tmp/ccgTc9t8.s:1804   .debug_str:000000000000011f .LASF84
     /tmp/ccgTc9t8.s:1844   .debug_str:0000000000000269 .LASF95
     /tmp/ccgTc9t8.s:1794   .debug_str:00000000000000c5 .LASF96
     /tmp/ccgTc9t8.s:115    .text:00000000000000a0 .LVL9
     /tmp/ccgTc9t8.s:119    .text:00000000000000ac .LVL11
     /tmp/ccgTc9t8.s:124    .text:00000000000000b4 .LVL12
     /tmp/ccgTc9t8.s:19     .text:0000000000000000 .LVL0
     /tmp/ccgTc9t8.s:31     .text:0000000000000018 .LVL1
     /tmp/ccgTc9t8.s:193    .debug_info:0000000000000000 .Ldebug_info0
     /tmp/ccgTc9t8.s:167    .gcc_except_table:0000000000000000 .LLSDA3

UNDEFINED SYMBOLS
_Z11printStringPKc
_ZN15MemoryAllocator8initHeapEv
_ZN5Riscv16setupTrapHandlerEv
_ZN6ThreadC1EPFvPvES0_m
_ZN6Thread5startEv
_ZN9Scheduler7isEmptyEv
_ZN9Scheduler3getEv
_Z8userMainv
_ZN6ThreadD1Ev
_Unwind_Resume
__gxx_personality_v0
