GAS LISTING /tmp/ccv0ov3L.s 			page 1


   1              		.file	"MemoryAllocator.cpp"
   2              		.option pic
   3              		.option norelax
   4              		.text
   5              	.Ltext0:
   6              		.align	2
   7              		.globl	_ZN15MemoryAllocator8initHeapEv
   9              	_ZN15MemoryAllocator8initHeapEv:
  10              	.LFB0:
  11              		.file 1 "src/MemoryAllocator.cpp"
   1:src/MemoryAllocator.cpp **** //
   2:src/MemoryAllocator.cpp **** // Created by os on 10/7/25.
   3:src/MemoryAllocator.cpp **** //
   4:src/MemoryAllocator.cpp **** 
   5:src/MemoryAllocator.cpp **** #include "../h/MemoryAllocator.hpp"
   6:src/MemoryAllocator.cpp **** 
   7:src/MemoryAllocator.cpp **** BlockHeader* MemoryAllocator::freeListHead = nullptr;
   8:src/MemoryAllocator.cpp **** 
   9:src/MemoryAllocator.cpp **** void MemoryAllocator::initHeap() {
  12              		.loc 1 9 34
  13              		.cfi_startproc
  14 0000 130101FF 		addi	sp,sp,-16
  15              		.cfi_def_cfa_offset 16
  16 0004 23348100 		sd	s0,8(sp)
  17              		.cfi_offset 8, -8
  18 0008 13040101 		addi	s0,sp,16
  19              		.cfi_def_cfa 8, 0
  10:src/MemoryAllocator.cpp ****     freeListHead = (BlockHeader*)HEAP_START_ADDR;
  20              		.loc 1 10 5
  21              		.loc 1 10 18 is_stmt 0
  22 000c 97060000 		la	a3,HEAP_START_ADDR
  22      83B60600 
  23 0014 83B70600 		ld	a5,0(a3)
  24 0018 17070000 		lla	a4,.LANCHOR0
  24      13070700 
  25 0020 2330F700 		sd	a5,0(a4)
  11:src/MemoryAllocator.cpp ****     freeListHead->next = nullptr;
  26              		.loc 1 11 5 is_stmt 1
  27              		.loc 1 11 24 is_stmt 0
  28 0024 23B00700 		sd	zero,0(a5)
  12:src/MemoryAllocator.cpp ****     freeListHead->size = (char*)HEAP_END_ADDR - (char*)HEAP_START_ADDR;
  29              		.loc 1 12 5 is_stmt 1
  30              		.loc 1 12 26 is_stmt 0
  31 0028 97070000 		la	a5,HEAP_END_ADDR
  31      83B70700 
  32 0030 83B70700 		ld	a5,0(a5)
  33              		.loc 1 12 49
  34 0034 83B60600 		ld	a3,0(a3)
  35              		.loc 1 12 19
  36 0038 03370700 		ld	a4,0(a4)
  37              		.loc 1 12 47
  38 003c B387D740 		sub	a5,a5,a3
  39              		.loc 1 12 24
  40 0040 2334F700 		sd	a5,8(a4)
  13:src/MemoryAllocator.cpp **** }
  41              		.loc 1 13 1
  42 0044 03348100 		ld	s0,8(sp)
GAS LISTING /tmp/ccv0ov3L.s 			page 2


  43              		.cfi_restore 8
  44              		.cfi_def_cfa 2, 16
  45 0048 13010101 		addi	sp,sp,16
  46              		.cfi_def_cfa_offset 0
  47 004c 67800000 		jr	ra
  48              		.cfi_endproc
  49              	.LFE0:
  51              		.align	2
  52              		.globl	_ZN15MemoryAllocator9mem_allocEm
  54              	_ZN15MemoryAllocator9mem_allocEm:
  55              	.LFB1:
  14:src/MemoryAllocator.cpp **** 
  15:src/MemoryAllocator.cpp **** void* MemoryAllocator::mem_alloc(size_t blocks) {
  56              		.loc 1 15 49 is_stmt 1
  57              		.cfi_startproc
  58              	.LVL0:
  59 0050 130101FF 		addi	sp,sp,-16
  60              		.cfi_def_cfa_offset 16
  61 0054 23348100 		sd	s0,8(sp)
  62              		.cfi_offset 8, -8
  63 0058 13040101 		addi	s0,sp,16
  64              		.cfi_def_cfa 8, 0
  65 005c 93070500 		mv	a5,a0
  16:src/MemoryAllocator.cpp ****     if (!freeListHead || blocks == 0) return nullptr;
  66              		.loc 1 16 5
  67              		.loc 1 16 9 is_stmt 0
  68 0060 17050000 		ld	a0,.LANCHOR0
  68      03350500 
  69              	.LVL1:
  70              		.loc 1 16 5
  71 0068 63000506 		beqz	a0,.L3
  72              		.loc 1 16 23 discriminator 2
  73 006c 638A0708 		beqz	a5,.L12
  17:src/MemoryAllocator.cpp **** 
  18:src/MemoryAllocator.cpp ****     size_t sizeInBytes = blocks * MEM_BLOCK_SIZE;
  74              		.loc 1 18 5 is_stmt 1
  75              		.loc 1 18 12 is_stmt 0
  76 0070 93966700 		slli	a3,a5,6
  77              	.LVL2:
  19:src/MemoryAllocator.cpp ****     size_t totalSize = sizeInBytes + sizeof(BlockHeader);
  78              		.loc 1 19 5 is_stmt 1
  79              		.loc 1 19 12 is_stmt 0
  80 0074 13870601 		addi	a4,a3,16
  81              	.LVL3:
  20:src/MemoryAllocator.cpp **** 
  21:src/MemoryAllocator.cpp ****     BlockHeader* prev = nullptr;
  82              		.loc 1 21 5 is_stmt 1
  22:src/MemoryAllocator.cpp ****     BlockHeader* curr = freeListHead;
  83              		.loc 1 22 5
  21:src/MemoryAllocator.cpp ****     BlockHeader* curr = freeListHead;
  84              		.loc 1 21 18 is_stmt 0
  85 0078 13060000 		li	a2,0
  86 007c 6F00C000 		j	.L6
  87              	.LVL4:
  88              	.L14:
  23:src/MemoryAllocator.cpp **** 
  24:src/MemoryAllocator.cpp ****     while (curr && curr->size < totalSize) {
GAS LISTING /tmp/ccv0ov3L.s 			page 3


  25:src/MemoryAllocator.cpp ****         prev = curr;
  89              		.loc 1 25 9 is_stmt 1
  26:src/MemoryAllocator.cpp ****         curr = curr->next;
  90              		.loc 1 26 9
  25:src/MemoryAllocator.cpp ****         curr = curr->next;
  91              		.loc 1 25 14 is_stmt 0
  92 0080 13060500 		mv	a2,a0
  93              		.loc 1 26 14
  94 0084 03350500 		ld	a0,0(a0)
  95              	.LVL5:
  96              	.L6:
  24:src/MemoryAllocator.cpp ****         prev = curr;
  97              		.loc 1 24 5 is_stmt 1
  24:src/MemoryAllocator.cpp ****         prev = curr;
  98              		.loc 1 24 17
  99 0088 63060500 		beqz	a0,.L5
  24:src/MemoryAllocator.cpp ****         prev = curr;
 100              		.loc 1 24 26 is_stmt 0 discriminator 1
 101 008c 83378500 		ld	a5,8(a0)
  24:src/MemoryAllocator.cpp ****         prev = curr;
 102              		.loc 1 24 17 discriminator 1
 103 0090 E3E8E7FE 		bltu	a5,a4,.L14
 104              	.L5:
  27:src/MemoryAllocator.cpp ****     }
  28:src/MemoryAllocator.cpp **** 
  29:src/MemoryAllocator.cpp ****     if (!curr) return nullptr;
 105              		.loc 1 29 5 is_stmt 1
 106 0094 630A0502 		beqz	a0,.L3
  30:src/MemoryAllocator.cpp **** 
  31:src/MemoryAllocator.cpp ****     if (curr->size >= totalSize + sizeof(BlockHeader)) {
 107              		.loc 1 31 5
 108              	.LBB2:
 109              		.loc 1 31 15 is_stmt 0
 110 0098 83358500 		ld	a1,8(a0)
 111              		.loc 1 31 33
 112 009c 93870602 		addi	a5,a3,32
 113              		.loc 1 31 5
 114 00a0 63E0F504 		bltu	a1,a5,.L7
 115              	.LBB3:
  32:src/MemoryAllocator.cpp ****         BlockHeader* newBlock = (BlockHeader*)((char*)curr + totalSize);
 116              		.loc 1 32 9 is_stmt 1
 117              		.loc 1 32 22 is_stmt 0
 118 00a4 B307E500 		add	a5,a0,a4
 119              	.LVL6:
  33:src/MemoryAllocator.cpp ****         newBlock->size = curr->size - totalSize;
 120              		.loc 1 33 9 is_stmt 1
 121              		.loc 1 33 37 is_stmt 0
 122 00a8 B385E540 		sub	a1,a1,a4
 123              		.loc 1 33 24
 124 00ac 23B4B700 		sd	a1,8(a5)
  34:src/MemoryAllocator.cpp ****         newBlock->next = curr->next;
 125              		.loc 1 34 9 is_stmt 1
 126              		.loc 1 34 32 is_stmt 0
 127 00b0 83360500 		ld	a3,0(a0)
 128              	.LVL7:
 129              		.loc 1 34 24
 130 00b4 23B0D700 		sd	a3,0(a5)
GAS LISTING /tmp/ccv0ov3L.s 			page 4


  35:src/MemoryAllocator.cpp **** 
  36:src/MemoryAllocator.cpp ****         if (prev) prev->next = newBlock;
 131              		.loc 1 36 9 is_stmt 1
 132 00b8 630E0600 		beqz	a2,.L8
 133              		.loc 1 36 19 discriminator 1
 134              		.loc 1 36 30 is_stmt 0 discriminator 1
 135 00bc 2330F600 		sd	a5,0(a2)
 136              	.L9:
  37:src/MemoryAllocator.cpp ****         else freeListHead = newBlock;
  38:src/MemoryAllocator.cpp **** 
  39:src/MemoryAllocator.cpp ****         curr->size = totalSize;
 137              		.loc 1 39 9 is_stmt 1
 138              		.loc 1 39 20 is_stmt 0
 139 00c0 2334E500 		sd	a4,8(a0)
 140              	.LVL8:
 141              	.L10:
 142              	.LBE3:
 143              	.LBE2:
  40:src/MemoryAllocator.cpp ****     }
  41:src/MemoryAllocator.cpp ****     else {
  42:src/MemoryAllocator.cpp ****         if (prev) prev->next = curr->next;
  43:src/MemoryAllocator.cpp ****         else freeListHead = curr->next;
  44:src/MemoryAllocator.cpp ****     }
  45:src/MemoryAllocator.cpp **** 
  46:src/MemoryAllocator.cpp ****     return (char*)curr + sizeof(BlockHeader);
 144              		.loc 1 46 5 is_stmt 1
 145              		.loc 1 46 44 is_stmt 0
 146 00c4 13050501 		addi	a0,a0,16
 147              	.LVL9:
 148              	.L3:
  47:src/MemoryAllocator.cpp **** }
 149              		.loc 1 47 1
 150 00c8 03348100 		ld	s0,8(sp)
 151              		.cfi_remember_state
 152              		.cfi_restore 8
 153              		.cfi_def_cfa 2, 16
 154 00cc 13010101 		addi	sp,sp,16
 155              		.cfi_def_cfa_offset 0
 156 00d0 67800000 		jr	ra
 157              	.LVL10:
 158              	.L8:
 159              		.cfi_restore_state
 160              	.LBB5:
 161              	.LBB4:
  37:src/MemoryAllocator.cpp ****         else freeListHead = newBlock;
 162              		.loc 1 37 14 is_stmt 1
  37:src/MemoryAllocator.cpp ****         else freeListHead = newBlock;
 163              		.loc 1 37 27 is_stmt 0
 164 00d4 97060000 		sd	a5,.LANCHOR0,a3
 164      23B0F600 
 165 00dc 6FF05FFE 		j	.L9
 166              	.LVL11:
 167              	.L7:
 168              	.LBE4:
  42:src/MemoryAllocator.cpp ****         else freeListHead = curr->next;
 169              		.loc 1 42 9 is_stmt 1
 170 00e0 63080600 		beqz	a2,.L11
GAS LISTING /tmp/ccv0ov3L.s 			page 5


  42:src/MemoryAllocator.cpp ****         else freeListHead = curr->next;
 171              		.loc 1 42 19 discriminator 1
  42:src/MemoryAllocator.cpp ****         else freeListHead = curr->next;
 172              		.loc 1 42 38 is_stmt 0 discriminator 1
 173 00e4 83370500 		ld	a5,0(a0)
  42:src/MemoryAllocator.cpp ****         else freeListHead = curr->next;
 174              		.loc 1 42 30 discriminator 1
 175 00e8 2330F600 		sd	a5,0(a2)
 176 00ec 6FF09FFD 		j	.L10
 177              	.L11:
  43:src/MemoryAllocator.cpp ****     }
 178              		.loc 1 43 14 is_stmt 1
  43:src/MemoryAllocator.cpp ****     }
 179              		.loc 1 43 35 is_stmt 0
 180 00f0 83370500 		ld	a5,0(a0)
  43:src/MemoryAllocator.cpp ****     }
 181              		.loc 1 43 27
 182 00f4 17070000 		sd	a5,.LANCHOR0,a4
 182      2330F700 
 183              	.LVL12:
 184 00fc 6FF09FFC 		j	.L10
 185              	.LVL13:
 186              	.L12:
 187              	.LBE5:
  16:src/MemoryAllocator.cpp **** 
 188              		.loc 1 16 46
 189 0100 13050000 		li	a0,0
 190 0104 6FF05FFC 		j	.L3
 191              		.cfi_endproc
 192              	.LFE1:
 194              		.align	2
 195              		.globl	_ZN15MemoryAllocator9tryToJoinEP11BlockHeader
 197              	_ZN15MemoryAllocator9tryToJoinEP11BlockHeader:
 198              	.LFB3:
  48:src/MemoryAllocator.cpp **** 
  49:src/MemoryAllocator.cpp **** int MemoryAllocator::mem_free(void* addr) {
  50:src/MemoryAllocator.cpp ****     if (!addr) return -1;
  51:src/MemoryAllocator.cpp **** 
  52:src/MemoryAllocator.cpp ****     BlockHeader* blockToFree = (BlockHeader*)((char*)addr - sizeof(BlockHeader));
  53:src/MemoryAllocator.cpp **** 
  54:src/MemoryAllocator.cpp ****     if (!freeListHead) {
  55:src/MemoryAllocator.cpp ****         freeListHead = blockToFree;
  56:src/MemoryAllocator.cpp ****         freeListHead->next = nullptr;
  57:src/MemoryAllocator.cpp ****         return 0;
  58:src/MemoryAllocator.cpp ****     }
  59:src/MemoryAllocator.cpp **** 
  60:src/MemoryAllocator.cpp ****     BlockHeader* prev = nullptr;
  61:src/MemoryAllocator.cpp ****     BlockHeader* curr = freeListHead;
  62:src/MemoryAllocator.cpp **** 
  63:src/MemoryAllocator.cpp ****     while (curr && curr < blockToFree) {
  64:src/MemoryAllocator.cpp ****         prev = curr;
  65:src/MemoryAllocator.cpp ****         curr = curr->next;
  66:src/MemoryAllocator.cpp ****     }
  67:src/MemoryAllocator.cpp **** 
  68:src/MemoryAllocator.cpp ****     blockToFree->next = curr;
  69:src/MemoryAllocator.cpp ****     if (prev) prev->next = blockToFree;
  70:src/MemoryAllocator.cpp ****     else freeListHead = blockToFree;
GAS LISTING /tmp/ccv0ov3L.s 			page 6


  71:src/MemoryAllocator.cpp **** 
  72:src/MemoryAllocator.cpp ****     tryToJoin(blockToFree);
  73:src/MemoryAllocator.cpp ****     tryToJoin(prev);
  74:src/MemoryAllocator.cpp **** 
  75:src/MemoryAllocator.cpp ****     return 0;
  76:src/MemoryAllocator.cpp **** }
  77:src/MemoryAllocator.cpp **** 
  78:src/MemoryAllocator.cpp **** void MemoryAllocator::tryToJoin(BlockHeader* curr) {
 199              		.loc 1 78 52 is_stmt 1
 200              		.cfi_startproc
 201              	.LVL14:
 202 0108 130101FF 		addi	sp,sp,-16
 203              		.cfi_def_cfa_offset 16
 204 010c 23348100 		sd	s0,8(sp)
 205              		.cfi_offset 8, -8
 206 0110 13040101 		addi	s0,sp,16
 207              		.cfi_def_cfa 8, 0
  79:src/MemoryAllocator.cpp ****     if (!curr) return;
 208              		.loc 1 79 5
 209 0114 630C0500 		beqz	a0,.L15
  80:src/MemoryAllocator.cpp **** 
  81:src/MemoryAllocator.cpp ****     if (curr->next && (char*)curr + curr->size == (char*)(curr->next)) {
 210              		.loc 1 81 5
 211              		.loc 1 81 15 is_stmt 0
 212 0118 83370500 		ld	a5,0(a0)
 213              		.loc 1 81 5
 214 011c 63880700 		beqz	a5,.L15
 215              		.loc 1 81 43 discriminator 1
 216 0120 03378500 		ld	a4,8(a0)
 217              		.loc 1 81 35 discriminator 1
 218 0124 B306E500 		add	a3,a0,a4
 219              		.loc 1 81 20 discriminator 1
 220 0128 6388D700 		beq	a5,a3,.L18
 221              	.L15:
  82:src/MemoryAllocator.cpp ****         curr->size += curr->next->size;
  83:src/MemoryAllocator.cpp ****         curr->next = curr->next->next;
  84:src/MemoryAllocator.cpp ****     }
  85:src/MemoryAllocator.cpp **** }
 222              		.loc 1 85 1
 223 012c 03348100 		ld	s0,8(sp)
 224              		.cfi_remember_state
 225              		.cfi_restore 8
 226              		.cfi_def_cfa 2, 16
 227 0130 13010101 		addi	sp,sp,16
 228              		.cfi_def_cfa_offset 0
 229 0134 67800000 		jr	ra
 230              	.L18:
 231              		.cfi_restore_state
  82:src/MemoryAllocator.cpp ****         curr->size += curr->next->size;
 232              		.loc 1 82 9 is_stmt 1
  82:src/MemoryAllocator.cpp ****         curr->size += curr->next->size;
 233              		.loc 1 82 35 is_stmt 0
 234 0138 83B68700 		ld	a3,8(a5)
  82:src/MemoryAllocator.cpp ****         curr->size += curr->next->size;
 235              		.loc 1 82 20
 236 013c 3307D700 		add	a4,a4,a3
 237 0140 2334E500 		sd	a4,8(a0)
GAS LISTING /tmp/ccv0ov3L.s 			page 7


  83:src/MemoryAllocator.cpp ****     }
 238              		.loc 1 83 9 is_stmt 1
  83:src/MemoryAllocator.cpp ****     }
 239              		.loc 1 83 34 is_stmt 0
 240 0144 83B70700 		ld	a5,0(a5)
  83:src/MemoryAllocator.cpp ****     }
 241              		.loc 1 83 20
 242 0148 2330F500 		sd	a5,0(a0)
 243 014c 6FF01FFE 		j	.L15
 244              		.cfi_endproc
 245              	.LFE3:
 247              		.align	2
 248              		.globl	_ZN15MemoryAllocator8mem_freeEPv
 250              	_ZN15MemoryAllocator8mem_freeEPv:
 251              	.LFB2:
  49:src/MemoryAllocator.cpp ****     if (!addr) return -1;
 252              		.loc 1 49 43 is_stmt 1
 253              		.cfi_startproc
 254              	.LVL15:
  50:src/MemoryAllocator.cpp **** 
 255              		.loc 1 50 5
 256 0150 630E0508 		beqz	a0,.L25
 257 0154 13070500 		mv	a4,a0
  52:src/MemoryAllocator.cpp **** 
 258              		.loc 1 52 5
  52:src/MemoryAllocator.cpp **** 
 259              		.loc 1 52 18 is_stmt 0
 260 0158 130505FF 		addi	a0,a0,-16
 261              	.LVL16:
  54:src/MemoryAllocator.cpp ****         freeListHead = blockToFree;
 262              		.loc 1 54 5 is_stmt 1
  54:src/MemoryAllocator.cpp ****         freeListHead = blockToFree;
 263              		.loc 1 54 9 is_stmt 0
 264 015c 97070000 		ld	a5,.LANCHOR0
 264      83B70700 
  54:src/MemoryAllocator.cpp ****         freeListHead = blockToFree;
 265              		.loc 1 54 5
 266 0164 63880702 		beqz	a5,.L30
  49:src/MemoryAllocator.cpp ****     if (!addr) return -1;
 267              		.loc 1 49 43
 268 0168 130101FE 		addi	sp,sp,-32
 269              		.cfi_def_cfa_offset 32
 270 016c 233C1100 		sd	ra,24(sp)
 271 0170 23388100 		sd	s0,16(sp)
 272 0174 23349100 		sd	s1,8(sp)
 273              		.cfi_offset 1, -8
 274              		.cfi_offset 8, -16
 275              		.cfi_offset 9, -24
 276 0178 13040102 		addi	s0,sp,32
 277              		.cfi_def_cfa 8, 0
  60:src/MemoryAllocator.cpp ****     BlockHeader* curr = freeListHead;
 278              		.loc 1 60 18
 279 017c 93040000 		li	s1,0
 280              	.L21:
 281              	.LVL17:
  63:src/MemoryAllocator.cpp ****         prev = curr;
 282              		.loc 1 63 5 is_stmt 1
GAS LISTING /tmp/ccv0ov3L.s 			page 8


  63:src/MemoryAllocator.cpp ****         prev = curr;
 283              		.loc 1 63 17
 284 0180 63840702 		beqz	a5,.L22
  63:src/MemoryAllocator.cpp ****         prev = curr;
 285              		.loc 1 63 17 is_stmt 0 discriminator 1
 286 0184 63F2A702 		bgeu	a5,a0,.L22
  64:src/MemoryAllocator.cpp ****         curr = curr->next;
 287              		.loc 1 64 9 is_stmt 1
 288              	.LVL18:
  65:src/MemoryAllocator.cpp ****     }
 289              		.loc 1 65 9
  64:src/MemoryAllocator.cpp ****         curr = curr->next;
 290              		.loc 1 64 14 is_stmt 0
 291 0188 93840700 		mv	s1,a5
  65:src/MemoryAllocator.cpp ****     }
 292              		.loc 1 65 14
 293 018c 83B70700 		ld	a5,0(a5)
 294              	.LVL19:
  63:src/MemoryAllocator.cpp ****         prev = curr;
 295              		.loc 1 63 5
 296 0190 6FF01FFF 		j	.L21
 297              	.LVL20:
 298              	.L30:
 299              		.cfi_def_cfa_register 2
 300              		.cfi_restore 1
 301              		.cfi_restore 8
 302              		.cfi_restore 9
  55:src/MemoryAllocator.cpp ****         freeListHead->next = nullptr;
 303              		.loc 1 55 9 is_stmt 1
  55:src/MemoryAllocator.cpp ****         freeListHead->next = nullptr;
 304              		.loc 1 55 22 is_stmt 0
 305 0194 97070000 		sd	a0,.LANCHOR0,a5
 305      23B0A700 
  56:src/MemoryAllocator.cpp ****         return 0;
 306              		.loc 1 56 9 is_stmt 1
  56:src/MemoryAllocator.cpp ****         return 0;
 307              		.loc 1 56 28 is_stmt 0
 308 019c 233807FE 		sd	zero,-16(a4)
  57:src/MemoryAllocator.cpp ****     }
 309              		.loc 1 57 9 is_stmt 1
  57:src/MemoryAllocator.cpp ****     }
 310              		.loc 1 57 16 is_stmt 0
 311 01a0 13050000 		li	a0,0
 312              	.LVL21:
 313 01a4 67800000 		ret
 314              	.LVL22:
 315              	.L22:
 316              		.cfi_def_cfa_register 8
 317              		.cfi_offset 1, -8
 318              		.cfi_offset 8, -16
 319              		.cfi_offset 9, -24
  68:src/MemoryAllocator.cpp ****     if (prev) prev->next = blockToFree;
 320              		.loc 1 68 5 is_stmt 1
  68:src/MemoryAllocator.cpp ****     if (prev) prev->next = blockToFree;
 321              		.loc 1 68 23 is_stmt 0
 322 01a8 2338F7FE 		sd	a5,-16(a4)
  69:src/MemoryAllocator.cpp ****     else freeListHead = blockToFree;
GAS LISTING /tmp/ccv0ov3L.s 			page 9


 323              		.loc 1 69 5 is_stmt 1
 324 01ac 638A0402 		beqz	s1,.L23
  69:src/MemoryAllocator.cpp ****     else freeListHead = blockToFree;
 325              		.loc 1 69 15 discriminator 1
  69:src/MemoryAllocator.cpp ****     else freeListHead = blockToFree;
 326              		.loc 1 69 26 is_stmt 0 discriminator 1
 327 01b0 23B0A400 		sd	a0,0(s1)
 328              	.LVL23:
 329              	.L24:
  72:src/MemoryAllocator.cpp ****     tryToJoin(prev);
 330              		.loc 1 72 5 is_stmt 1
  72:src/MemoryAllocator.cpp ****     tryToJoin(prev);
 331              		.loc 1 72 14 is_stmt 0
 332 01b4 97000000 		call	_ZN15MemoryAllocator9tryToJoinEP11BlockHeader
 332      E7800000 
 333              	.LVL24:
  73:src/MemoryAllocator.cpp **** 
 334              		.loc 1 73 5 is_stmt 1
  73:src/MemoryAllocator.cpp **** 
 335              		.loc 1 73 14 is_stmt 0
 336 01bc 13850400 		mv	a0,s1
 337 01c0 97000000 		call	_ZN15MemoryAllocator9tryToJoinEP11BlockHeader
 337      E7800000 
 338              	.LVL25:
  75:src/MemoryAllocator.cpp **** }
 339              		.loc 1 75 5 is_stmt 1
  75:src/MemoryAllocator.cpp **** }
 340              		.loc 1 75 12 is_stmt 0
 341 01c8 13050000 		li	a0,0
  76:src/MemoryAllocator.cpp **** 
 342              		.loc 1 76 1
 343 01cc 83308101 		ld	ra,24(sp)
 344              		.cfi_remember_state
 345              		.cfi_restore 1
 346 01d0 03340101 		ld	s0,16(sp)
 347              		.cfi_restore 8
 348              		.cfi_def_cfa 2, 32
 349 01d4 83348100 		ld	s1,8(sp)
 350              		.cfi_restore 9
 351              	.LVL26:
 352 01d8 13010102 		addi	sp,sp,32
 353              		.cfi_def_cfa_offset 0
 354 01dc 67800000 		jr	ra
 355              	.LVL27:
 356              	.L23:
 357              		.cfi_restore_state
  70:src/MemoryAllocator.cpp **** 
 358              		.loc 1 70 10 is_stmt 1
  70:src/MemoryAllocator.cpp **** 
 359              		.loc 1 70 23 is_stmt 0
 360 01e0 97070000 		sd	a0,.LANCHOR0,a5
 360      23B0A700 
 361              	.LVL28:
 362 01e8 6FF0DFFC 		j	.L24
 363              	.LVL29:
 364              	.L25:
 365              		.cfi_def_cfa_register 2
GAS LISTING /tmp/ccv0ov3L.s 			page 10


 366              		.cfi_restore 1
 367              		.cfi_restore 8
 368              		.cfi_restore 9
  50:src/MemoryAllocator.cpp **** 
 369              		.loc 1 50 24
 370 01ec 1305F0FF 		li	a0,-1
 371              	.LVL30:
  76:src/MemoryAllocator.cpp **** 
 372              		.loc 1 76 1
 373 01f0 67800000 		ret
 374              		.cfi_endproc
 375              	.LFE2:
 377              		.align	2
 378              		.globl	_ZN15MemoryAllocator18mem_get_free_spaceEv
 380              	_ZN15MemoryAllocator18mem_get_free_spaceEv:
 381              	.LFB4:
  86:src/MemoryAllocator.cpp **** 
  87:src/MemoryAllocator.cpp **** size_t MemoryAllocator::mem_get_free_space() {
 382              		.loc 1 87 46 is_stmt 1
 383              		.cfi_startproc
 384 01f4 130101FF 		addi	sp,sp,-16
 385              		.cfi_def_cfa_offset 16
 386 01f8 23348100 		sd	s0,8(sp)
 387              		.cfi_offset 8, -8
 388 01fc 13040101 		addi	s0,sp,16
 389              		.cfi_def_cfa 8, 0
  88:src/MemoryAllocator.cpp ****     size_t total = 0;
 390              		.loc 1 88 5
 391              	.LVL31:
  89:src/MemoryAllocator.cpp **** 
  90:src/MemoryAllocator.cpp ****     for (BlockHeader* curr = freeListHead; curr; curr = curr->next) {
 392              		.loc 1 90 5
 393              	.LBB6:
 394              		.loc 1 90 23 is_stmt 0
 395 0200 97070000 		ld	a5,.LANCHOR0
 395      83B70700 
 396              	.LVL32:
 397              	.LBE6:
  88:src/MemoryAllocator.cpp ****     size_t total = 0;
 398              		.loc 1 88 12
 399 0208 13050000 		li	a0,0
 400 020c 6F008000 		j	.L34
 401              	.LVL33:
 402              	.L33:
 403              	.LBB7:
 404              		.loc 1 90 5 is_stmt 1 discriminator 2
 405              		.loc 1 90 55 is_stmt 0 discriminator 2
 406 0210 83B70700 		ld	a5,0(a5)
 407              	.LVL34:
 408              	.L34:
 409              		.loc 1 90 44 is_stmt 1 discriminator 1
 410 0214 638E0700 		beqz	a5,.L31
  91:src/MemoryAllocator.cpp ****         if (curr->size > sizeof(BlockHeader)) {
 411              		.loc 1 91 9
 412              		.loc 1 91 19 is_stmt 0
 413 0218 03B78700 		ld	a4,8(a5)
 414              		.loc 1 91 9
GAS LISTING /tmp/ccv0ov3L.s 			page 11


 415 021c 93060001 		li	a3,16
 416 0220 E3F8E6FE 		bleu	a4,a3,.L33
  92:src/MemoryAllocator.cpp ****             total += curr->size - sizeof(BlockHeader);
 417              		.loc 1 92 13 is_stmt 1
 418              		.loc 1 92 19 is_stmt 0
 419 0224 3305A700 		add	a0,a4,a0
 420              	.LVL35:
 421 0228 130505FF 		addi	a0,a0,-16
 422              	.LVL36:
 423 022c 6FF05FFE 		j	.L33
 424              	.L31:
 425              	.LBE7:
  93:src/MemoryAllocator.cpp ****         }
  94:src/MemoryAllocator.cpp ****     }
  95:src/MemoryAllocator.cpp **** 
  96:src/MemoryAllocator.cpp ****     return total;
  97:src/MemoryAllocator.cpp **** }
 426              		.loc 1 97 1
 427 0230 03348100 		ld	s0,8(sp)
 428              		.cfi_restore 8
 429              		.cfi_def_cfa 2, 16
 430 0234 13010101 		addi	sp,sp,16
 431              		.cfi_def_cfa_offset 0
 432 0238 67800000 		jr	ra
 433              		.cfi_endproc
 434              	.LFE4:
 436              		.align	2
 437              		.globl	_ZN15MemoryAllocator26mem_get_largest_free_blockEv
 439              	_ZN15MemoryAllocator26mem_get_largest_free_blockEv:
 440              	.LFB5:
  98:src/MemoryAllocator.cpp **** 
  99:src/MemoryAllocator.cpp **** size_t MemoryAllocator::mem_get_largest_free_block() {
 441              		.loc 1 99 54 is_stmt 1
 442              		.cfi_startproc
 443 023c 130101FF 		addi	sp,sp,-16
 444              		.cfi_def_cfa_offset 16
 445 0240 23348100 		sd	s0,8(sp)
 446              		.cfi_offset 8, -8
 447 0244 13040101 		addi	s0,sp,16
 448              		.cfi_def_cfa 8, 0
 100:src/MemoryAllocator.cpp ****     size_t largest = 0;
 449              		.loc 1 100 5
 450              	.LVL37:
 101:src/MemoryAllocator.cpp **** 
 102:src/MemoryAllocator.cpp ****     for (BlockHeader* curr = freeListHead; curr; curr = curr->next) {
 451              		.loc 1 102 5
 452              	.LBB8:
 453              		.loc 1 102 23 is_stmt 0
 454 0248 17070000 		ld	a4,.LANCHOR0
 454      03370700 
 455              	.LVL38:
 456              	.LBE8:
 100:src/MemoryAllocator.cpp ****     size_t largest = 0;
 457              		.loc 1 100 12
 458 0250 13050000 		li	a0,0
 459 0254 6F008000 		j	.L40
 460              	.LVL39:
GAS LISTING /tmp/ccv0ov3L.s 			page 12


 461              	.L39:
 462              	.LBB10:
 463              		.loc 1 102 5 is_stmt 1 discriminator 2
 464              		.loc 1 102 55 is_stmt 0 discriminator 2
 465 0258 03370700 		ld	a4,0(a4)
 466              	.LVL40:
 467              	.L40:
 468              		.loc 1 102 44 is_stmt 1 discriminator 1
 469 025c 63020702 		beqz	a4,.L36
 470              	.LBB9:
 103:src/MemoryAllocator.cpp ****         size_t usable = (curr->size > sizeof(BlockHeader)) ? curr->size - sizeof(BlockHeader) : 0;
 471              		.loc 1 103 9
 472              		.loc 1 103 32 is_stmt 0
 473 0260 83378700 		ld	a5,8(a4)
 474              		.loc 1 103 60
 475 0264 93060001 		li	a3,16
 476 0268 63F4D700 		bgeu	a5,a3,.L38
 477 026c 93070001 		li	a5,16
 478              	.L38:
 479              		.loc 1 103 16
 480 0270 938707FF 		addi	a5,a5,-16
 481              	.LVL41:
 104:src/MemoryAllocator.cpp ****         if (usable > largest) largest = usable;
 482              		.loc 1 104 9 is_stmt 1
 483 0274 E372F5FE 		bgeu	a0,a5,.L39
 484              		.loc 1 104 39 is_stmt 0
 485 0278 13850700 		mv	a0,a5
 486              	.LVL42:
 487 027c 6FF0DFFD 		j	.L39
 488              	.LVL43:
 489              	.L36:
 490              	.LBE9:
 491              	.LBE10:
 105:src/MemoryAllocator.cpp ****     }
 106:src/MemoryAllocator.cpp **** 
 107:src/MemoryAllocator.cpp ****     return largest;
 108:src/MemoryAllocator.cpp **** }...
 492              		.loc 1 108 1
 493 0280 03348100 		ld	s0,8(sp)
 494              		.cfi_restore 8
 495              		.cfi_def_cfa 2, 16
 496 0284 13010101 		addi	sp,sp,16
 497              		.cfi_def_cfa_offset 0
 498 0288 67800000 		jr	ra
 499              		.cfi_endproc
 500              	.LFE5:
 502              		.globl	_ZN15MemoryAllocator12freeListHeadE
 503              		.bss
 504              		.align	3
 505              		.set	.LANCHOR0,. + 0
 508              	_ZN15MemoryAllocator12freeListHeadE:
 509 0000 00000000 		.zero	8
 509      00000000 
 510              		.text
 511              	.Letext0:
 512              		.file 2 "src/../h/../lib/hw.h"
 513              		.file 3 "src/../h/MemoryAllocator.hpp"
GAS LISTING /tmp/ccv0ov3L.s 			page 13


GAS LISTING /tmp/ccv0ov3L.s 			page 14

