GAS LISTING /tmp/ccc0So3U.s 			page 1


   1              		.file	"new_delete.cpp"
   2              		.option pic
   3              		.option norelax
   4              		.text
   5              	.Ltext0:
   6              		.align	2
   7              		.globl	_Znwm
   9              	_Znwm:
  10              	.LFB0:
  11              		.file 1 "src/new_delete.cpp"
   1:src/new_delete.cpp **** //
   2:src/new_delete.cpp **** // Created by os on 10/8/25.
   3:src/new_delete.cpp **** //
   4:src/new_delete.cpp **** #include "../h/MemoryAllocator.hpp"
   5:src/new_delete.cpp **** #include "../lib/hw.h"
   6:src/new_delete.cpp **** 
   7:src/new_delete.cpp **** void* operator new(size_t size) {
  12              		.loc 1 7 33
  13              		.cfi_startproc
  14              	.LVL0:
  15 0000 130101FF 		addi	sp,sp,-16
  16              		.cfi_def_cfa_offset 16
  17 0004 23341100 		sd	ra,8(sp)
  18 0008 23308100 		sd	s0,0(sp)
  19              		.cfi_offset 1, -8
  20              		.cfi_offset 8, -16
  21 000c 13040101 		addi	s0,sp,16
  22              		.cfi_def_cfa 8, 0
   8:src/new_delete.cpp ****     size_t blocks = (size + MEM_BLOCK_SIZE - 1) / MEM_BLOCK_SIZE;
  23              		.loc 1 8 5
  24              		.loc 1 8 44 is_stmt 0
  25 0010 1305F503 		addi	a0,a0,63
  26              	.LVL1:
   9:src/new_delete.cpp ****     return MemoryAllocator::mem_alloc(blocks);
  27              		.loc 1 9 5 is_stmt 1
  28              		.loc 1 9 38 is_stmt 0
  29 0014 13556500 		srli	a0,a0,6
  30              	.LVL2:
  31 0018 97000000 		call	_ZN15MemoryAllocator9mem_allocEm@plt
  31      E7800000 
  32              	.LVL3:
  10:src/new_delete.cpp **** }
  33              		.loc 1 10 1
  34 0020 83308100 		ld	ra,8(sp)
  35              		.cfi_restore 1
  36 0024 03340100 		ld	s0,0(sp)
  37              		.cfi_restore 8
  38              		.cfi_def_cfa 2, 16
  39 0028 13010101 		addi	sp,sp,16
  40              		.cfi_def_cfa_offset 0
  41 002c 67800000 		jr	ra
  42              		.cfi_endproc
  43              	.LFE0:
  45              		.align	2
  46              		.globl	_ZdlPv
  48              	_ZdlPv:
  49              	.LFB1:
GAS LISTING /tmp/ccc0So3U.s 			page 2


  11:src/new_delete.cpp **** 
  12:src/new_delete.cpp **** void operator delete(void* ptr) noexcept {
  50              		.loc 1 12 42 is_stmt 1
  51              		.cfi_startproc
  52              		.cfi_personality 0x9b,DW.ref.__gxx_personality_v0
  53              		.cfi_lsda 0x1b,.LLSDA1
  54              	.LVL4:
  55 0030 130101FF 		addi	sp,sp,-16
  56              		.cfi_def_cfa_offset 16
  57 0034 23341100 		sd	ra,8(sp)
  58 0038 23308100 		sd	s0,0(sp)
  59              		.cfi_offset 1, -8
  60              		.cfi_offset 8, -16
  61 003c 13040101 		addi	s0,sp,16
  62              		.cfi_def_cfa 8, 0
  13:src/new_delete.cpp ****     MemoryAllocator::mem_free(ptr);
  63              		.loc 1 13 5
  64              		.loc 1 13 30 is_stmt 0
  65 0040 97000000 		call	_ZN15MemoryAllocator8mem_freeEPv@plt
  65      E7800000 
  66              	.LVL5:
  14:src/new_delete.cpp **** }
  67              		.loc 1 14 1
  68 0048 83308100 		ld	ra,8(sp)
  69              		.cfi_restore 1
  70 004c 03340100 		ld	s0,0(sp)
  71              		.cfi_restore 8
  72              		.cfi_def_cfa 2, 16
  73 0050 13010101 		addi	sp,sp,16
  74              		.cfi_def_cfa_offset 0
  75 0054 67800000 		jr	ra
  76              		.cfi_endproc
  77              	.LFE1:
  78              		.globl	__gxx_personality_v0
  79              		.section	.gcc_except_table,"a",@progbits
  80              	.LLSDA1:
  81 0000 FF       		.byte	0xff
  82 0001 FF       		.byte	0xff
  83 0002 03       		.byte	0x3
  84 0003 00       		.byte	0
  85              		.text
  87              		.align	2
  88              		.globl	_Znam
  90              	_Znam:
  91              	.LFB2:
  15:src/new_delete.cpp **** 
  16:src/new_delete.cpp **** void* operator new[](size_t size) {
  92              		.loc 1 16 35 is_stmt 1
  93              		.cfi_startproc
  94              	.LVL6:
  95 0058 130101FF 		addi	sp,sp,-16
  96              		.cfi_def_cfa_offset 16
  97 005c 23341100 		sd	ra,8(sp)
  98 0060 23308100 		sd	s0,0(sp)
  99              		.cfi_offset 1, -8
 100              		.cfi_offset 8, -16
 101 0064 13040101 		addi	s0,sp,16
GAS LISTING /tmp/ccc0So3U.s 			page 3


 102              		.cfi_def_cfa 8, 0
  17:src/new_delete.cpp ****     size_t blocks = (size + MEM_BLOCK_SIZE - 1) / MEM_BLOCK_SIZE;
 103              		.loc 1 17 5
 104              		.loc 1 17 44 is_stmt 0
 105 0068 1305F503 		addi	a0,a0,63
 106              	.LVL7:
  18:src/new_delete.cpp ****     return MemoryAllocator::mem_alloc(blocks);
 107              		.loc 1 18 5 is_stmt 1
 108              		.loc 1 18 38 is_stmt 0
 109 006c 13556500 		srli	a0,a0,6
 110              	.LVL8:
 111 0070 97000000 		call	_ZN15MemoryAllocator9mem_allocEm@plt
 111      E7800000 
 112              	.LVL9:
  19:src/new_delete.cpp **** }
 113              		.loc 1 19 1
 114 0078 83308100 		ld	ra,8(sp)
 115              		.cfi_restore 1
 116 007c 03340100 		ld	s0,0(sp)
 117              		.cfi_restore 8
 118              		.cfi_def_cfa 2, 16
 119 0080 13010101 		addi	sp,sp,16
 120              		.cfi_def_cfa_offset 0
 121 0084 67800000 		jr	ra
 122              		.cfi_endproc
 123              	.LFE2:
 125              		.align	2
 126              		.globl	_ZdaPv
 128              	_ZdaPv:
 129              	.LFB3:
  20:src/new_delete.cpp **** 
  21:src/new_delete.cpp **** void operator delete[](void* ptr) noexcept {
 130              		.loc 1 21 44 is_stmt 1
 131              		.cfi_startproc
 132              		.cfi_personality 0x9b,DW.ref.__gxx_personality_v0
 133              		.cfi_lsda 0x1b,.LLSDA3
 134              	.LVL10:
 135 0088 130101FF 		addi	sp,sp,-16
 136              		.cfi_def_cfa_offset 16
 137 008c 23341100 		sd	ra,8(sp)
 138 0090 23308100 		sd	s0,0(sp)
 139              		.cfi_offset 1, -8
 140              		.cfi_offset 8, -16
 141 0094 13040101 		addi	s0,sp,16
 142              		.cfi_def_cfa 8, 0
  22:src/new_delete.cpp ****     MemoryAllocator::mem_free(ptr);
 143              		.loc 1 22 5
 144              		.loc 1 22 30 is_stmt 0
 145 0098 97000000 		call	_ZN15MemoryAllocator8mem_freeEPv@plt
 145      E7800000 
 146              	.LVL11:
  23:src/new_delete.cpp **** }
 147              		.loc 1 23 1
 148 00a0 83308100 		ld	ra,8(sp)
 149              		.cfi_restore 1
 150 00a4 03340100 		ld	s0,0(sp)
 151              		.cfi_restore 8
GAS LISTING /tmp/ccc0So3U.s 			page 4


 152              		.cfi_def_cfa 2, 16
 153 00a8 13010101 		addi	sp,sp,16
 154              		.cfi_def_cfa_offset 0
 155 00ac 67800000 		jr	ra
 156              		.cfi_endproc
 157              	.LFE3:
 158              		.section	.gcc_except_table
 159              	.LLSDA3:
 160 0004 FF       		.byte	0xff
 161 0005 FF       		.byte	0xff
 162 0006 03       		.byte	0x3
 163 0007 00       		.byte	0
 164              		.text
 166              	.Letext0:
 167              		.file 2 "src/../h/../lib/hw.h"
 168              		.file 3 "src/../h/MemoryAllocator.hpp"
 1237              		.align	3
 1240              	DW.ref.__gxx_personality_v0:
 1241 0000 00000000 		.dword	__gxx_personality_v0
 1241      00000000 
 1242              		.ident	"GCC: (Ubuntu 9.4.0-1ubuntu1~20.04) 9.4.0"
 1243              		.section	.note.GNU-stack,"",@progbits
GAS LISTING /tmp/ccc0So3U.s 			page 5

