GAS LISTING /tmp/ccc0So3U.s 			page 1


   1              		.file	"new_delete.cpp"
   2              		.option pic
   3              		.option norelax
   4              		.text
   5              	.Ltext0:
   6              		.align	2
   7              		.globl	_Znwm
   9              	_Znwm:
  10              	.LFB0:
  11              		.file 1 "src/new_delete.cpp"
   1:src/new_delete.cpp **** //
   2:src/new_delete.cpp **** // Created by os on 10/8/25.
   3:src/new_delete.cpp **** //
   4:src/new_delete.cpp **** #include "../h/MemoryAllocator.hpp"
   5:src/new_delete.cpp **** #include "../lib/hw.h"
   6:src/new_delete.cpp **** 
   7:src/new_delete.cpp **** void* operator new(size_t size) {
  12              		.loc 1 7 33
  13              		.cfi_startproc
  14              	.LVL0:
  15 0000 130101FF 		addi	sp,sp,-16
  16              		.cfi_def_cfa_offset 16
  17 0004 23341100 		sd	ra,8(sp)
  18 0008 23308100 		sd	s0,0(sp)
  19              		.cfi_offset 1, -8
  20              		.cfi_offset 8, -16
  21 000c 13040101 		addi	s0,sp,16
  22              		.cfi_def_cfa 8, 0
   8:src/new_delete.cpp ****     size_t blocks = (size + MEM_BLOCK_SIZE - 1) / MEM_BLOCK_SIZE;
  23              		.loc 1 8 5
  24              		.loc 1 8 44 is_stmt 0
  25 0010 1305F503 		addi	a0,a0,63
  26              	.LVL1:
   9:src/new_delete.cpp ****     return MemoryAllocator::mem_alloc(blocks);
  27              		.loc 1 9 5 is_stmt 1
  28              		.loc 1 9 38 is_stmt 0
  29 0014 13556500 		srli	a0,a0,6
  30              	.LVL2:
  31 0018 97000000 		call	_ZN15MemoryAllocator9mem_allocEm@plt
  31      E7800000 
  32              	.LVL3:
  10:src/new_delete.cpp **** }
  33              		.loc 1 10 1
  34 0020 83308100 		ld	ra,8(sp)
  35              		.cfi_restore 1
  36 0024 03340100 		ld	s0,0(sp)
  37              		.cfi_restore 8
  38              		.cfi_def_cfa 2, 16
  39 0028 13010101 		addi	sp,sp,16
  40              		.cfi_def_cfa_offset 0
  41 002c 67800000 		jr	ra
  42              		.cfi_endproc
  43              	.LFE0:
  45              		.align	2
  46              		.globl	_ZdlPv
  48              	_ZdlPv:
  49              	.LFB1:
GAS LISTING /tmp/ccc0So3U.s 			page 2


  11:src/new_delete.cpp **** 
  12:src/new_delete.cpp **** void operator delete(void* ptr) noexcept {
  50              		.loc 1 12 42 is_stmt 1
  51              		.cfi_startproc
  52              		.cfi_personality 0x9b,DW.ref.__gxx_personality_v0
  53              		.cfi_lsda 0x1b,.LLSDA1
  54              	.LVL4:
  55 0030 130101FF 		addi	sp,sp,-16
  56              		.cfi_def_cfa_offset 16
  57 0034 23341100 		sd	ra,8(sp)
  58 0038 23308100 		sd	s0,0(sp)
  59              		.cfi_offset 1, -8
  60              		.cfi_offset 8, -16
  61 003c 13040101 		addi	s0,sp,16
  62              		.cfi_def_cfa 8, 0
  13:src/new_delete.cpp ****     MemoryAllocator::mem_free(ptr);
  63              		.loc 1 13 5
  64              		.loc 1 13 30 is_stmt 0
  65 0040 97000000 		call	_ZN15MemoryAllocator8mem_freeEPv@plt
  65      E7800000 
  66              	.LVL5:
  14:src/new_delete.cpp **** }
  67              		.loc 1 14 1
  68 0048 83308100 		ld	ra,8(sp)
  69              		.cfi_restore 1
  70 004c 03340100 		ld	s0,0(sp)
  71              		.cfi_restore 8
  72              		.cfi_def_cfa 2, 16
  73 0050 13010101 		addi	sp,sp,16
  74              		.cfi_def_cfa_offset 0
  75 0054 67800000 		jr	ra
  76              		.cfi_endproc
  77              	.LFE1:
  78              		.globl	__gxx_personality_v0
  79              		.section	.gcc_except_table,"a",@progbits
  80              	.LLSDA1:
  81 0000 FF       		.byte	0xff
  82 0001 FF       		.byte	0xff
  83 0002 03       		.byte	0x3
  84 0003 00       		.byte	0
  85              		.text
  87              		.align	2
  88              		.globl	_Znam
  90              	_Znam:
  91              	.LFB2:
  15:src/new_delete.cpp **** 
  16:src/new_delete.cpp **** void* operator new[](size_t size) {
  92              		.loc 1 16 35 is_stmt 1
  93              		.cfi_startproc
  94              	.LVL6:
  95 0058 130101FF 		addi	sp,sp,-16
  96              		.cfi_def_cfa_offset 16
  97 005c 23341100 		sd	ra,8(sp)
  98 0060 23308100 		sd	s0,0(sp)
  99              		.cfi_offset 1, -8
 100              		.cfi_offset 8, -16
 101 0064 13040101 		addi	s0,sp,16
GAS LISTING /tmp/ccc0So3U.s 			page 3


 102              		.cfi_def_cfa 8, 0
  17:src/new_delete.cpp ****     size_t blocks = (size + MEM_BLOCK_SIZE - 1) / MEM_BLOCK_SIZE;
 103              		.loc 1 17 5
 104              		.loc 1 17 44 is_stmt 0
 105 0068 1305F503 		addi	a0,a0,63
 106              	.LVL7:
  18:src/new_delete.cpp ****     return MemoryAllocator::mem_alloc(blocks);
 107              		.loc 1 18 5 is_stmt 1
 108              		.loc 1 18 38 is_stmt 0
 109 006c 13556500 		srli	a0,a0,6
 110              	.LVL8:
 111 0070 97000000 		call	_ZN15MemoryAllocator9mem_allocEm@plt
 111      E7800000 
 112              	.LVL9:
  19:src/new_delete.cpp **** }
 113              		.loc 1 19 1
 114 0078 83308100 		ld	ra,8(sp)
 115              		.cfi_restore 1
 116 007c 03340100 		ld	s0,0(sp)
 117              		.cfi_restore 8
 118              		.cfi_def_cfa 2, 16
 119 0080 13010101 		addi	sp,sp,16
 120              		.cfi_def_cfa_offset 0
 121 0084 67800000 		jr	ra
 122              		.cfi_endproc
 123              	.LFE2:
 125              		.align	2
 126              		.globl	_ZdaPv
 128              	_ZdaPv:
 129              	.LFB3:
  20:src/new_delete.cpp **** 
  21:src/new_delete.cpp **** void operator delete[](void* ptr) noexcept {
 130              		.loc 1 21 44 is_stmt 1
 131              		.cfi_startproc
 132              		.cfi_personality 0x9b,DW.ref.__gxx_personality_v0
 133              		.cfi_lsda 0x1b,.LLSDA3
 134              	.LVL10:
 135 0088 130101FF 		addi	sp,sp,-16
 136              		.cfi_def_cfa_offset 16
 137 008c 23341100 		sd	ra,8(sp)
 138 0090 23308100 		sd	s0,0(sp)
 139              		.cfi_offset 1, -8
 140              		.cfi_offset 8, -16
 141 0094 13040101 		addi	s0,sp,16
 142              		.cfi_def_cfa 8, 0
  22:src/new_delete.cpp ****     MemoryAllocator::mem_free(ptr);
 143              		.loc 1 22 5
 144              		.loc 1 22 30 is_stmt 0
 145 0098 97000000 		call	_ZN15MemoryAllocator8mem_freeEPv@plt
 145      E7800000 
 146              	.LVL11:
  23:src/new_delete.cpp **** }
 147              		.loc 1 23 1
 148 00a0 83308100 		ld	ra,8(sp)
 149              		.cfi_restore 1
 150 00a4 03340100 		ld	s0,0(sp)
 151              		.cfi_restore 8
GAS LISTING /tmp/ccc0So3U.s 			page 4


 152              		.cfi_def_cfa 2, 16
 153 00a8 13010101 		addi	sp,sp,16
 154              		.cfi_def_cfa_offset 0
 155 00ac 67800000 		jr	ra
 156              		.cfi_endproc
 157              	.LFE3:
 158              		.section	.gcc_except_table
 159              	.LLSDA3:
 160 0004 FF       		.byte	0xff
 161 0005 FF       		.byte	0xff
 162 0006 03       		.byte	0x3
 163 0007 00       		.byte	0
 164              		.text
 166              	.Letext0:
 167              		.file 2 "src/../h/../lib/hw.h"
 168              		.file 3 "src/../h/MemoryAllocator.hpp"
 1237              		.align	3
 1240              	DW.ref.__gxx_personality_v0:
 1241 0000 00000000 		.dword	__gxx_personality_v0
 1241      00000000 
 1242              		.ident	"GCC: (Ubuntu 9.4.0-1ubuntu1~20.04) 9.4.0"
 1243              		.section	.note.GNU-stack,"",@progbits
GAS LISTING /tmp/ccc0So3U.s 			page 5


DEFINED SYMBOLS
                            *ABS*:0000000000000000 new_delete.cpp
     /tmp/ccc0So3U.s:9      .text:0000000000000000 _Znwm
     /tmp/ccc0So3U.s:13     .text:0000000000000000 .L0 
     /tmp/ccc0So3U.s:15     .text:0000000000000000 .L0 
     /tmp/ccc0So3U.s:16     .text:0000000000000004 .L0 
     /tmp/ccc0So3U.s:19     .text:000000000000000c .L0 
     /tmp/ccc0So3U.s:20     .text:000000000000000c .L0 
     /tmp/ccc0So3U.s:22     .text:0000000000000010 .L0 
     /tmp/ccc0So3U.s:24     .text:0000000000000010 .L0 
     /tmp/ccc0So3U.s:25     .text:0000000000000010 .L0 
     /tmp/ccc0So3U.s:28     .text:0000000000000014 .L0 
     /tmp/ccc0So3U.s:29     .text:0000000000000014 .L0 
     /tmp/ccc0So3U.s:34     .text:0000000000000020 .L0 
     /tmp/ccc0So3U.s:35     .text:0000000000000024 .L0 
     /tmp/ccc0So3U.s:37     .text:0000000000000028 .L0 
     /tmp/ccc0So3U.s:38     .text:0000000000000028 .L0 
     /tmp/ccc0So3U.s:40     .text:000000000000002c .L0 
     /tmp/ccc0So3U.s:42     .text:0000000000000030 .L0 
     /tmp/ccc0So3U.s:48     .text:0000000000000030 _ZdlPv
     /tmp/ccc0So3U.s:51     .text:0000000000000030 .L0 
     /tmp/ccc0So3U.s:1240   .data.rel.local.DW.ref.__gxx_personality_v0:0000000000000000 DW.ref.__gxx_personality_v0
     /tmp/ccc0So3U.s:55     .text:0000000000000030 .L0 
     /tmp/ccc0So3U.s:56     .text:0000000000000034 .L0 
     /tmp/ccc0So3U.s:59     .text:000000000000003c .L0 
     /tmp/ccc0So3U.s:60     .text:000000000000003c .L0 
     /tmp/ccc0So3U.s:62     .text:0000000000000040 .L0 
     /tmp/ccc0So3U.s:64     .text:0000000000000040 .L0 
     /tmp/ccc0So3U.s:65     .text:0000000000000040 .L0 
     /tmp/ccc0So3U.s:68     .text:0000000000000048 .L0 
     /tmp/ccc0So3U.s:69     .text:000000000000004c .L0 
     /tmp/ccc0So3U.s:71     .text:0000000000000050 .L0 
     /tmp/ccc0So3U.s:72     .text:0000000000000050 .L0 
     /tmp/ccc0So3U.s:74     .text:0000000000000054 .L0 
     /tmp/ccc0So3U.s:76     .text:0000000000000058 .L0 
     /tmp/ccc0So3U.s:90     .text:0000000000000058 _Znam
     /tmp/ccc0So3U.s:93     .text:0000000000000058 .L0 
     /tmp/ccc0So3U.s:95     .text:0000000000000058 .L0 
     /tmp/ccc0So3U.s:96     .text:000000000000005c .L0 
     /tmp/ccc0So3U.s:99     .text:0000000000000064 .L0 
     /tmp/ccc0So3U.s:100    .text:0000000000000064 .L0 
     /tmp/ccc0So3U.s:102    .text:0000000000000068 .L0 
     /tmp/ccc0So3U.s:104    .text:0000000000000068 .L0 
     /tmp/ccc0So3U.s:105    .text:0000000000000068 .L0 
     /tmp/ccc0So3U.s:108    .text:000000000000006c .L0 
     /tmp/ccc0So3U.s:109    .text:000000000000006c .L0 
     /tmp/ccc0So3U.s:114    .text:0000000000000078 .L0 
     /tmp/ccc0So3U.s:115    .text:000000000000007c .L0 
     /tmp/ccc0So3U.s:117    .text:0000000000000080 .L0 
     /tmp/ccc0So3U.s:118    .text:0000000000000080 .L0 
     /tmp/ccc0So3U.s:120    .text:0000000000000084 .L0 
     /tmp/ccc0So3U.s:122    .text:0000000000000088 .L0 
     /tmp/ccc0So3U.s:128    .text:0000000000000088 _ZdaPv
     /tmp/ccc0So3U.s:131    .text:0000000000000088 .L0 
     /tmp/ccc0So3U.s:135    .text:0000000000000088 .L0 
     /tmp/ccc0So3U.s:136    .text:000000000000008c .L0 
     /tmp/ccc0So3U.s:139    .text:0000000000000094 .L0 
GAS LISTING /tmp/ccc0So3U.s 			page 6


     /tmp/ccc0So3U.s:140    .text:0000000000000094 .L0 
     /tmp/ccc0So3U.s:142    .text:0000000000000098 .L0 
     /tmp/ccc0So3U.s:144    .text:0000000000000098 .L0 
     /tmp/ccc0So3U.s:145    .text:0000000000000098 .L0 
     /tmp/ccc0So3U.s:148    .text:00000000000000a0 .L0 
     /tmp/ccc0So3U.s:149    .text:00000000000000a4 .L0 
     /tmp/ccc0So3U.s:151    .text:00000000000000a8 .L0 
     /tmp/ccc0So3U.s:152    .text:00000000000000a8 .L0 
     /tmp/ccc0So3U.s:154    .text:00000000000000ac .L0 
     /tmp/ccc0So3U.s:156    .text:00000000000000b0 .L0 
     /tmp/ccc0So3U.s:169    .text:00000000000000b0 .L0 
     /tmp/ccc0So3U.s:547    .debug_abbrev:0000000000000000 .Ldebug_abbrev0
     /tmp/ccc0So3U.s:1180   .debug_str:000000000000011f .LASF35
     /tmp/ccc0So3U.s:1210   .debug_str:000000000000030a .LASF36
     /tmp/ccc0So3U.s:1202   .debug_str:00000000000002bd .LASF37
     /tmp/ccc0So3U.s:5      .text:0000000000000000 .Ltext0
     /tmp/ccc0So3U.s:166    .text:00000000000000b0 .Letext0
     /tmp/ccc0So3U.s:1140   .debug_line:0000000000000000 .Ldebug_line0
     /tmp/ccc0So3U.s:1188   .debug_str:0000000000000238 .LASF0
     /tmp/ccc0So3U.s:1176   .debug_str:0000000000000100 .LASF1
     /tmp/ccc0So3U.s:1170   .debug_str:00000000000000da .LASF2
     /tmp/ccc0So3U.s:1158   .debug_str:0000000000000071 .LASF4
     /tmp/ccc0So3U.s:1174   .debug_str:00000000000000ee .LASF3
     /tmp/ccc0So3U.s:1146   .debug_str:0000000000000023 .LASF5
     /tmp/ccc0So3U.s:1142   .debug_str:0000000000000000 .LASF6
     /tmp/ccc0So3U.s:1164   .debug_str:0000000000000097 .LASF7
     /tmp/ccc0So3U.s:1196   .debug_str:000000000000026c .LASF8
     /tmp/ccc0So3U.s:1156   .debug_str:0000000000000063 .LASF9
     /tmp/ccc0So3U.s:1232   .debug_str:00000000000003c4 .LASF10
     /tmp/ccc0So3U.s:1166   .debug_str:00000000000000aa .LASF11
     /tmp/ccc0So3U.s:1218   .debug_str:000000000000037b .LASF12
     /tmp/ccc0So3U.s:1194   .debug_str:000000000000025c .LASF13
     /tmp/ccc0So3U.s:1178   .debug_str:0000000000000113 .LASF14
     /tmp/ccc0So3U.s:1162   .debug_str:0000000000000081 .LASF15
     /tmp/ccc0So3U.s:1198   .debug_str:000000000000027c .LASF16
     /tmp/ccc0So3U.s:1184   .debug_str:00000000000001fe .LASF19
     /tmp/ccc0So3U.s:1148   .debug_str:000000000000002a .LASF17
     /tmp/ccc0So3U.s:1228   .debug_str:00000000000003b9 .LASF18
     /tmp/ccc0So3U.s:1144   .debug_str:0000000000000013 .LASF38
     /tmp/ccc0So3U.s:1160   .debug_str:0000000000000078 .LASF39
     /tmp/ccc0So3U.s:1150   .debug_str:000000000000002f .LASF40
     /tmp/ccc0So3U.s:1224   .debug_str:000000000000039f .LASF20
     /tmp/ccc0So3U.s:1214   .debug_str:0000000000000350 .LASF22
     /tmp/ccc0So3U.s:1204   .debug_str:00000000000002db .LASF21
     /tmp/ccc0So3U.s:1168   .debug_str:00000000000000b9 .LASF23
     /tmp/ccc0So3U.s:1206   .debug_str:00000000000002e4 .LASF24
     /tmp/ccc0So3U.s:1200   .debug_str:0000000000000292 .LASF26
     /tmp/ccc0So3U.s:1182   .debug_str:00000000000001e3 .LASF25
     /tmp/ccc0So3U.s:1212   .debug_str:000000000000031d .LASF27
     /tmp/ccc0So3U.s:1154   .debug_str:0000000000000056 .LASF41
     /tmp/ccc0So3U.s:1216   .debug_str:0000000000000371 .LASF42
     /tmp/ccc0So3U.s:1186   .debug_str:000000000000020a .LASF43
     /tmp/ccc0So3U.s:1208   .debug_str:00000000000002f7 .LASF29
     /tmp/ccc0So3U.s:1152   .debug_str:000000000000004f .LASF31
     /tmp/ccc0So3U.s:129    .text:0000000000000088 .LFB3
     /tmp/ccc0So3U.s:157    .text:00000000000000b0 .LFE3
     /tmp/ccc0So3U.s:1007   .debug_loc:0000000000000000 .LLST5
GAS LISTING /tmp/ccc0So3U.s 			page 7


     /tmp/ccc0So3U.s:146    .text:00000000000000a0 .LVL11
     /tmp/ccc0So3U.s:1226   .debug_str:00000000000003a9 .LASF44
     /tmp/ccc0So3U.s:1172   .debug_str:00000000000000e8 .LASF45
     /tmp/ccc0So3U.s:91     .text:0000000000000058 .LFB2
     /tmp/ccc0So3U.s:123    .text:0000000000000088 .LFE2
     /tmp/ccc0So3U.s:1021   .debug_loc:0000000000000039 .LLST3
     /tmp/ccc0So3U.s:1192   .debug_str:0000000000000255 .LASF28
     /tmp/ccc0So3U.s:1041   .debug_loc:0000000000000087 .LLST4
     /tmp/ccc0So3U.s:112    .text:0000000000000078 .LVL9
     /tmp/ccc0So3U.s:1190   .debug_str:0000000000000245 .LASF30
     /tmp/ccc0So3U.s:1220   .debug_str:000000000000038b .LASF32
     /tmp/ccc0So3U.s:49     .text:0000000000000030 .LFB1
     /tmp/ccc0So3U.s:77     .text:0000000000000058 .LFE1
     /tmp/ccc0So3U.s:1067   .debug_loc:00000000000000db .LLST2
     /tmp/ccc0So3U.s:66     .text:0000000000000048 .LVL5
     /tmp/ccc0So3U.s:1222   .debug_str:0000000000000392 .LASF33
     /tmp/ccc0So3U.s:1230   .debug_str:00000000000003be .LASF34
     /tmp/ccc0So3U.s:10     .text:0000000000000000 .LFB0
     /tmp/ccc0So3U.s:43     .text:0000000000000030 .LFE0
     /tmp/ccc0So3U.s:1081   .debug_loc:0000000000000114 .LLST0
     /tmp/ccc0So3U.s:1101   .debug_loc:0000000000000162 .LLST1
     /tmp/ccc0So3U.s:32     .text:0000000000000020 .LVL3
     /tmp/ccc0So3U.s:134    .text:0000000000000088 .LVL10
     /tmp/ccc0So3U.s:94     .text:0000000000000058 .LVL6
     /tmp/ccc0So3U.s:106    .text:000000000000006c .LVL7
     /tmp/ccc0So3U.s:110    .text:0000000000000070 .LVL8
     /tmp/ccc0So3U.s:54     .text:0000000000000030 .LVL4
     /tmp/ccc0So3U.s:14     .text:0000000000000000 .LVL0
     /tmp/ccc0So3U.s:26     .text:0000000000000014 .LVL1
     /tmp/ccc0So3U.s:30     .text:0000000000000018 .LVL2
     /tmp/ccc0So3U.s:170    .debug_info:0000000000000000 .Ldebug_info0
     /tmp/ccc0So3U.s:80     .gcc_except_table:0000000000000000 .LLSDA1
     /tmp/ccc0So3U.s:159    .gcc_except_table:0000000000000004 .LLSDA3

UNDEFINED SYMBOLS
_ZN15MemoryAllocator9mem_allocEm
_ZN15MemoryAllocator8mem_freeEPv
__gxx_personality_v0
