GAS LISTING /tmp/ccD7Ffnc.s 			page 1


   1              		.file	"Riscv.cpp"
   2              		.option pic
   3              		.option norelax
   4              		.text
   5              	.Ltext0:
   6              		.align	2
   7              		.globl	_ZN5Riscv16setupTrapHandlerEv
   9              	_ZN5Riscv16setupTrapHandlerEv:
  10              	.LFB6:
  11              		.file 1 "src/Riscv.cpp"
   1:src/Riscv.cpp **** //
   2:src/Riscv.cpp **** // Created by os on 10/7/25.
   3:src/Riscv.cpp **** //
   4:src/Riscv.cpp **** 
   5:src/Riscv.cpp **** #include "../h/Riscv.hpp"
   6:src/Riscv.cpp **** 
   7:src/Riscv.cpp **** #include "../h/MemoryAllocator.hpp"
   8:src/Riscv.cpp **** #include "../h/Thread.hpp"
   9:src/Riscv.cpp **** #include "../lib/hw.h"
  10:src/Riscv.cpp **** 
  11:src/Riscv.cpp **** constexpr uint64 MEM_ALLOC = 0x01;
  12:src/Riscv.cpp **** constexpr uint64 MEM_FREE = 0x02;
  13:src/Riscv.cpp **** constexpr uint64 MEM_GET_FREE_SPACE = 0x03;
  14:src/Riscv.cpp **** constexpr uint64 MEM_GET_LARGEST_FREE_BLOCK = 0x04;
  15:src/Riscv.cpp **** 
  16:src/Riscv.cpp **** constexpr uint64 THREAD_CREATE = 0x11;
  17:src/Riscv.cpp **** constexpr uint64 THREAD_EXIT = 0x12;
  18:src/Riscv.cpp **** constexpr uint64 THREAD_DISPATCH = 0x13;
  19:src/Riscv.cpp **** 
  20:src/Riscv.cpp **** void Riscv::setupTrapHandler() {
  12              		.loc 1 20 32
  13              		.cfi_startproc
  14 0000 130101FF 		addi	sp,sp,-16
  15              		.cfi_def_cfa_offset 16
  16 0004 23348100 		sd	s0,8(sp)
  17              		.cfi_offset 8, -8
  18 0008 13040101 		addi	s0,sp,16
  19              		.cfi_def_cfa 8, 0
  21:src/Riscv.cpp ****     unsigned long addr = (unsigned long)&trap_handler;
  20              		.loc 1 21 5
  21              		.loc 1 21 19 is_stmt 0
  22 000c 97070000 		la	a5,trap_handler
  22      83B70700 
  23              	.LVL0:
  22:src/Riscv.cpp ****     asm volatile("csrw stvec, %0" :: "r"(addr));
  24              		.loc 1 22 5 is_stmt 1
  25              		.loc 1 22 48 is_stmt 0
  26              	#APP
  27              	# 22 "src/Riscv.cpp" 1
  23              	}
  28              		csrw stvec, a5
  29              	# 0 "" 2
  30              		.loc 1 23 1
  31              	#NO_APP
  32 0018 03348100 		ld	s0,8(sp)
  33              		.cfi_restore 8
  34              		.cfi_def_cfa 2, 16
GAS LISTING /tmp/ccD7Ffnc.s 			page 2


  35 001c 13010101 		addi	sp,sp,16
  36              		.cfi_def_cfa_offset 0
  37 0020 67800000 		jr	ra
  38              		.cfi_endproc
  39              	.LFE6:
  41              		.align	2
  42              		.globl	_ZN5Riscv11trapHandlerEv
  44              	_ZN5Riscv11trapHandlerEv:
  45              	.LFB7:
  24:src/Riscv.cpp **** 
  25:src/Riscv.cpp **** void Riscv::trapHandler() {
  46              		.loc 1 25 27 is_stmt 1
  47              		.cfi_startproc
  48 0024 130101FE 		addi	sp,sp,-32
  49              		.cfi_def_cfa_offset 32
  50 0028 233C1100 		sd	ra,24(sp)
  51 002c 23388100 		sd	s0,16(sp)
  52 0030 23349100 		sd	s1,8(sp)
  53 0034 23302101 		sd	s2,0(sp)
  54              		.cfi_offset 1, -8
  55              		.cfi_offset 8, -16
  56              		.cfi_offset 9, -24
  57              		.cfi_offset 18, -32
  58 0038 13040102 		addi	s0,sp,32
  59              		.cfi_def_cfa 8, 0
  26:src/Riscv.cpp ****     uint64 scause = 0, sepc = 0;
  60              		.loc 1 26 5
  61              	.LVL1:
  27:src/Riscv.cpp ****     asm volatile("csrr %0, scause" : "=r"(scause));
  62              		.loc 1 27 5
  63              		.loc 1 27 51 is_stmt 0
  64              	#APP
  65              	# 27 "src/Riscv.cpp" 1
  28              	    asm volatile("csrr %0, sepc" : "=r"(sepc));
  66              		csrr a4, scause
  67              	# 0 "" 2
  68              	.LVL2:
  69              		.loc 1 28 5 is_stmt 1
  70              		.loc 1 28 47 is_stmt 0
  71              	# 28 "src/Riscv.cpp" 1
  29              	
  72              		csrr s1, sepc
  73              	# 0 "" 2
  74              	.LVL3:
  30:src/Riscv.cpp ****     uint64 interrupt = scause >> 63;
  75              		.loc 1 30 5 is_stmt 1
  31:src/Riscv.cpp ****     uint64 cause = scause & 0x7FFFFFFFFFFFFFFF;
  76              		.loc 1 31 5
  77              		.loc 1 31 12 is_stmt 0
  78              	#NO_APP
  79 0044 9307F0FF 		li	a5,-1
  80 0048 93D71700 		srli	a5,a5,1
  81 004c B377F700 		and	a5,a4,a5
  82              	.LVL4:
  32:src/Riscv.cpp **** 
  33:src/Riscv.cpp ****     if (interrupt == 0 && (cause == 8 || cause == 9)) {
  83              		.loc 1 33 5 is_stmt 1
GAS LISTING /tmp/ccD7Ffnc.s 			page 3


  84              	.LBB2:
  85 0050 63480700 		bltz	a4,.L3
  86              		.loc 1 33 39 is_stmt 0 discriminator 1
  87 0054 938787FF 		addi	a5,a5,-8
  88              	.LVL5:
  89              		.loc 1 33 24 discriminator 1
  90 0058 13071000 		li	a4,1
  91              	.LVL6:
  92 005c 637EF700 		bleu	a5,a4,.L17
  93              	.LVL7:
  94              	.L3:
  95              	.LBE2:
  34:src/Riscv.cpp ****         uint64 code;
  35:src/Riscv.cpp ****         asm volatile("mv %0, a0" : "=r"(code));
  36:src/Riscv.cpp **** 
  37:src/Riscv.cpp ****         switch (code) {
  38:src/Riscv.cpp ****             case MEM_ALLOC: {
  39:src/Riscv.cpp ****                 size_t size;
  40:src/Riscv.cpp ****                 asm volatile("mv %0, a1" : "=r"(size));
  41:src/Riscv.cpp ****                 void* ptr = MemoryAllocator::mem_alloc(size);
  42:src/Riscv.cpp ****                 asm volatile("mv a0, %0" :: "r"(ptr));
  43:src/Riscv.cpp ****                 break;
  44:src/Riscv.cpp ****             }
  45:src/Riscv.cpp ****             case MEM_FREE: {
  46:src/Riscv.cpp ****                 void* addr;
  47:src/Riscv.cpp ****                 asm volatile("mv %0, a1" : "=r"(addr));
  48:src/Riscv.cpp ****                 int status = MemoryAllocator::mem_free(addr);
  49:src/Riscv.cpp ****                 asm volatile("mv a0, %0" :: "r"(status));
  50:src/Riscv.cpp ****                 break;
  51:src/Riscv.cpp ****             }
  52:src/Riscv.cpp ****             case MEM_GET_FREE_SPACE: {
  53:src/Riscv.cpp ****                 size_t freeSpace = MemoryAllocator::mem_get_free_space();
  54:src/Riscv.cpp ****                 asm volatile("mv a0, %0" :: "r"(freeSpace));
  55:src/Riscv.cpp ****                 break;
  56:src/Riscv.cpp ****             }
  57:src/Riscv.cpp ****             case MEM_GET_LARGEST_FREE_BLOCK: {
  58:src/Riscv.cpp ****                 size_t largest = MemoryAllocator::mem_get_largest_free_block();
  59:src/Riscv.cpp ****                 asm volatile("mv a0, %0" :: "r"(largest));
  60:src/Riscv.cpp ****                 break;
  61:src/Riscv.cpp ****             }
  62:src/Riscv.cpp ****             case THREAD_CREATE: {
  63:src/Riscv.cpp ****                 Thread** handle = nullptr;
  64:src/Riscv.cpp ****                 void (*start_routine)(void*) = nullptr;
  65:src/Riscv.cpp ****                 void* args = nullptr;
  66:src/Riscv.cpp ****                 void* stackTop = nullptr;
  67:src/Riscv.cpp **** 
  68:src/Riscv.cpp ****                 asm volatile("mv %0, a1" : "=r"(handle));
  69:src/Riscv.cpp ****                 asm volatile("mv %0, a2" : "=r"(start_routine));
  70:src/Riscv.cpp ****                 asm volatile("mv %0, a3" : "=r"(args));
  71:src/Riscv.cpp ****                 asm volatile("mv %0, a4" : "=r"(stackTop));
  72:src/Riscv.cpp **** 
  73:src/Riscv.cpp ****                 size_t stackSize = DEFAULT_STACK_SIZE;
  74:src/Riscv.cpp ****                 //void* stackBase = (char*)stackTop - stackSize;
  75:src/Riscv.cpp **** 
  76:src/Riscv.cpp ****                 *handle = Thread::createThread(start_routine, args, stackTop, stackSize);
  77:src/Riscv.cpp ****                 // *handle = Thread::createThread(start_routine, args);
  78:src/Riscv.cpp **** 
GAS LISTING /tmp/ccD7Ffnc.s 			page 4


  79:src/Riscv.cpp ****                 if (*handle != nullptr) {
  80:src/Riscv.cpp ****                     (*handle)->start();
  81:src/Riscv.cpp ****                     asm volatile("li a0, 0");
  82:src/Riscv.cpp ****                 }
  83:src/Riscv.cpp ****                 else asm volatile("li a0, -1");
  84:src/Riscv.cpp **** 
  85:src/Riscv.cpp ****                 break;
  86:src/Riscv.cpp ****             }
  87:src/Riscv.cpp ****             case THREAD_EXIT: {
  88:src/Riscv.cpp ****                 if (Thread::running) {
  89:src/Riscv.cpp ****                     Thread::running->exit();
  90:src/Riscv.cpp ****                 }
  91:src/Riscv.cpp **** 
  92:src/Riscv.cpp ****                 Thread::dispatch();
  93:src/Riscv.cpp **** 
  94:src/Riscv.cpp ****                 asm volatile("li a0, 0");
  95:src/Riscv.cpp **** 
  96:src/Riscv.cpp ****                 break;
  97:src/Riscv.cpp ****             }
  98:src/Riscv.cpp ****             case THREAD_DISPATCH: {
  99:src/Riscv.cpp ****                 Thread::dispatch();
 100:src/Riscv.cpp **** 
 101:src/Riscv.cpp ****                 break;
 102:src/Riscv.cpp ****             }
 103:src/Riscv.cpp ****             default:
 104:src/Riscv.cpp ****                 break;
 105:src/Riscv.cpp ****         }
 106:src/Riscv.cpp **** 
 107:src/Riscv.cpp ****         sepc += 4;
 108:src/Riscv.cpp ****         asm volatile("csrw sepc, %0" :: "r"(sepc));
 109:src/Riscv.cpp ****     }
 110:src/Riscv.cpp **** }...
  96              		.loc 1 110 1
  97 0060 83308101 		ld	ra,24(sp)
  98              		.cfi_remember_state
  99              		.cfi_restore 1
 100 0064 03340101 		ld	s0,16(sp)
 101              		.cfi_restore 8
 102              		.cfi_def_cfa 2, 32
 103 0068 83348100 		ld	s1,8(sp)
 104              		.cfi_restore 9
 105              	.LVL8:
 106 006c 03390100 		ld	s2,0(sp)
 107              		.cfi_restore 18
 108 0070 13010102 		addi	sp,sp,32
 109              		.cfi_def_cfa_offset 0
 110 0074 67800000 		jr	ra
 111              	.LVL9:
 112              	.L17:
 113              		.cfi_restore_state
 114              	.LBB12:
 115              	.LBB3:
  34:src/Riscv.cpp ****         uint64 code;
 116              		.loc 1 34 9 is_stmt 1
  35:src/Riscv.cpp ****         asm volatile("mv %0, a0" : "=r"(code));
 117              		.loc 1 35 9
  35:src/Riscv.cpp ****         asm volatile("mv %0, a0" : "=r"(code));
GAS LISTING /tmp/ccD7Ffnc.s 			page 5


 118              		.loc 1 35 47 is_stmt 0
 119              	#APP
 120              	# 35 "src/Riscv.cpp" 1
 121              		mv a5, a0
 122              	# 0 "" 2
 123              	.LVL10:
  37:src/Riscv.cpp ****         switch (code) {
 124              		.loc 1 37 9 is_stmt 1
 125              	#NO_APP
 126 007c 13073001 		li	a4,19
 127 0080 6368F702 		bgtu	a5,a4,.L5
 128 0084 93972700 		slli	a5,a5,2
 129              	.LVL11:
 130 0088 17070000 		lla	a4,.L7
 130      13070700 
 131 0090 B387E700 		add	a5,a5,a4
 132 0094 83A70700 		lw	a5,0(a5)
 133 0098 B387E700 		add	a5,a5,a4
 134 009c 67800700 		jr	a5
 135              		.section	.rodata
 136              		.align	2
 137              		.align	2
 138              	.L7:
 139 0000 00000000 		.word	.L5-.L7
 140 0004 00000000 		.word	.L13-.L7
 141 0008 00000000 		.word	.L12-.L7
 142 000c 00000000 		.word	.L11-.L7
 143 0010 00000000 		.word	.L10-.L7
 144 0014 00000000 		.word	.L5-.L7
 145 0018 00000000 		.word	.L5-.L7
 146 001c 00000000 		.word	.L5-.L7
 147 0020 00000000 		.word	.L5-.L7
 148 0024 00000000 		.word	.L5-.L7
 149 0028 00000000 		.word	.L5-.L7
 150 002c 00000000 		.word	.L5-.L7
 151 0030 00000000 		.word	.L5-.L7
 152 0034 00000000 		.word	.L5-.L7
 153 0038 00000000 		.word	.L5-.L7
 154 003c 00000000 		.word	.L5-.L7
 155 0040 00000000 		.word	.L5-.L7
 156 0044 00000000 		.word	.L9-.L7
 157 0048 00000000 		.word	.L8-.L7
 158 004c 00000000 		.word	.L6-.L7
 159              		.text
 160              	.L13:
 161              	.LBB4:
  38:src/Riscv.cpp ****             case MEM_ALLOC: {
 162              		.loc 1 38 13
  38:src/Riscv.cpp ****             case MEM_ALLOC: {
 163              		.loc 1 38 29
 164              	.LBB5:
  39:src/Riscv.cpp ****                 size_t size;
 165              		.loc 1 39 17
  40:src/Riscv.cpp ****                 asm volatile("mv %0, a1" : "=r"(size));
 166              		.loc 1 40 17
  40:src/Riscv.cpp ****                 asm volatile("mv %0, a1" : "=r"(size));
 167              		.loc 1 40 55 is_stmt 0
GAS LISTING /tmp/ccD7Ffnc.s 			page 6


 168              	#APP
 169              	# 40 "src/Riscv.cpp" 1
 170              		mv a0, a1
 171              	# 0 "" 2
 172              	.LVL12:
  41:src/Riscv.cpp ****                 void* ptr = MemoryAllocator::mem_alloc(size);
 173              		.loc 1 41 17 is_stmt 1
  41:src/Riscv.cpp ****                 void* ptr = MemoryAllocator::mem_alloc(size);
 174              		.loc 1 41 55 is_stmt 0
 175              	#NO_APP
 176 00a4 97000000 		call	_ZN15MemoryAllocator9mem_allocEm@plt
 176      E7800000 
 177              	.LVL13:
  42:src/Riscv.cpp ****                 asm volatile("mv a0, %0" :: "r"(ptr));
 178              		.loc 1 42 17 is_stmt 1
  42:src/Riscv.cpp ****                 asm volatile("mv a0, %0" :: "r"(ptr));
 179              		.loc 1 42 54 is_stmt 0
 180              	#APP
 181              	# 42 "src/Riscv.cpp" 1
  43:src/Riscv.cpp ****                 break;
 182              		mv a0, a0
 183              	# 0 "" 2
 184              		.loc 1 43 17 is_stmt 1
 185              	.LVL14:
 186              	#NO_APP
 187              	.L5:
 188              	.LBE5:
 189              	.LBE4:
 107:src/Riscv.cpp ****         sepc += 4;
 190              		.loc 1 107 9
 107:src/Riscv.cpp ****         sepc += 4;
 191              		.loc 1 107 14 is_stmt 0
 192 00b0 93844400 		addi	s1,s1,4
 193              	.LVL15:
 108:src/Riscv.cpp ****         asm volatile("csrw sepc, %0" :: "r"(sepc));
 194              		.loc 1 108 9 is_stmt 1
 108:src/Riscv.cpp ****         asm volatile("csrw sepc, %0" :: "r"(sepc));
 195              		.loc 1 108 51 is_stmt 0
 196              	#APP
 197              	# 108 "src/Riscv.cpp" 1
 198              		csrw sepc, s1
 199              	# 0 "" 2
 200              	#NO_APP
 201              	.LBE3:
 202              	.LBE12:
 203              		.loc 1 110 1
 204 00b8 6FF09FFA 		j	.L3
 205              	.L12:
 206              	.LBB13:
 207              	.LBB11:
 208              	.LBB10:
  45:src/Riscv.cpp ****             case MEM_FREE: {
 209              		.loc 1 45 13 is_stmt 1
  45:src/Riscv.cpp ****             case MEM_FREE: {
 210              		.loc 1 45 28
 211              	.LBB6:
  46:src/Riscv.cpp ****                 void* addr;
GAS LISTING /tmp/ccD7Ffnc.s 			page 7


 212              		.loc 1 46 17
  47:src/Riscv.cpp ****                 asm volatile("mv %0, a1" : "=r"(addr));
 213              		.loc 1 47 17
  47:src/Riscv.cpp ****                 asm volatile("mv %0, a1" : "=r"(addr));
 214              		.loc 1 47 55 is_stmt 0
 215              	#APP
 216              	# 47 "src/Riscv.cpp" 1
 217              		mv a0, a1
 218              	# 0 "" 2
 219              	.LVL16:
  48:src/Riscv.cpp ****                 int status = MemoryAllocator::mem_free(addr);
 220              		.loc 1 48 17 is_stmt 1
  48:src/Riscv.cpp ****                 int status = MemoryAllocator::mem_free(addr);
 221              		.loc 1 48 55 is_stmt 0
 222              	#NO_APP
 223 00c0 97000000 		call	_ZN15MemoryAllocator8mem_freeEPv@plt
 223      E7800000 
 224              	.LVL17:
  49:src/Riscv.cpp ****                 asm volatile("mv a0, %0" :: "r"(status));
 225              		.loc 1 49 17 is_stmt 1
  49:src/Riscv.cpp ****                 asm volatile("mv a0, %0" :: "r"(status));
 226              		.loc 1 49 57 is_stmt 0
 227              	#APP
 228              	# 49 "src/Riscv.cpp" 1
  50:src/Riscv.cpp ****                 break;
 229              		mv a0, a0
 230              	# 0 "" 2
 231              		.loc 1 50 17 is_stmt 1
 232              	#NO_APP
 233 00cc 6FF05FFE 		j	.L5
 234              	.LVL18:
 235              	.L11:
 236              	.LBE6:
  52:src/Riscv.cpp ****             case MEM_GET_FREE_SPACE: {
 237              		.loc 1 52 13
  52:src/Riscv.cpp ****             case MEM_GET_FREE_SPACE: {
 238              		.loc 1 52 38
 239              	.LBB7:
  53:src/Riscv.cpp ****                 size_t freeSpace = MemoryAllocator::mem_get_free_space();
 240              		.loc 1 53 17
  53:src/Riscv.cpp ****                 size_t freeSpace = MemoryAllocator::mem_get_free_space();
 241              		.loc 1 53 71 is_stmt 0
 242 00d0 97000000 		call	_ZN15MemoryAllocator18mem_get_free_spaceEv@plt
 242      E7800000 
 243              	.LVL19:
  54:src/Riscv.cpp ****                 asm volatile("mv a0, %0" :: "r"(freeSpace));
 244              		.loc 1 54 17 is_stmt 1
  54:src/Riscv.cpp ****                 asm volatile("mv a0, %0" :: "r"(freeSpace));
 245              		.loc 1 54 60 is_stmt 0
 246              	#APP
 247              	# 54 "src/Riscv.cpp" 1
  55:src/Riscv.cpp ****                 break;
 248              		mv a0, a0
 249              	# 0 "" 2
 250              		.loc 1 55 17 is_stmt 1
 251              	#NO_APP
 252 00dc 6FF05FFD 		j	.L5
GAS LISTING /tmp/ccD7Ffnc.s 			page 8


 253              	.LVL20:
 254              	.L10:
 255              	.LBE7:
  57:src/Riscv.cpp ****             case MEM_GET_LARGEST_FREE_BLOCK: {
 256              		.loc 1 57 13
  57:src/Riscv.cpp ****             case MEM_GET_LARGEST_FREE_BLOCK: {
 257              		.loc 1 57 46
 258              	.LBB8:
  58:src/Riscv.cpp ****                 size_t largest = MemoryAllocator::mem_get_largest_free_block();
 259              		.loc 1 58 17
  58:src/Riscv.cpp ****                 size_t largest = MemoryAllocator::mem_get_largest_free_block();
 260              		.loc 1 58 77 is_stmt 0
 261 00e0 97000000 		call	_ZN15MemoryAllocator26mem_get_largest_free_blockEv@plt
 261      E7800000 
 262              	.LVL21:
  59:src/Riscv.cpp ****                 asm volatile("mv a0, %0" :: "r"(largest));
 263              		.loc 1 59 17 is_stmt 1
  59:src/Riscv.cpp ****                 asm volatile("mv a0, %0" :: "r"(largest));
 264              		.loc 1 59 58 is_stmt 0
 265              	#APP
 266              	# 59 "src/Riscv.cpp" 1
  60:src/Riscv.cpp ****                 break;
 267              		mv a0, a0
 268              	# 0 "" 2
 269              		.loc 1 60 17 is_stmt 1
 270              	#NO_APP
 271 00ec 6FF05FFC 		j	.L5
 272              	.LVL22:
 273              	.L9:
 274              	.LBE8:
  62:src/Riscv.cpp ****             case THREAD_CREATE: {
 275              		.loc 1 62 13
  62:src/Riscv.cpp ****             case THREAD_CREATE: {
 276              		.loc 1 62 33
 277              	.LBB9:
  63:src/Riscv.cpp ****                 Thread** handle = nullptr;
 278              		.loc 1 63 17
  64:src/Riscv.cpp ****                 void (*start_routine)(void*) = nullptr;
 279              		.loc 1 64 17
  65:src/Riscv.cpp ****                 void* args = nullptr;
 280              		.loc 1 65 17
  66:src/Riscv.cpp ****                 void* stackTop = nullptr;
 281              		.loc 1 66 17
  68:src/Riscv.cpp ****                 asm volatile("mv %0, a1" : "=r"(handle));
 282              		.loc 1 68 17
  68:src/Riscv.cpp ****                 asm volatile("mv %0, a1" : "=r"(handle));
 283              		.loc 1 68 57 is_stmt 0
 284              	#APP
 285              	# 68 "src/Riscv.cpp" 1
 286              		mv s2, a1
 287              	# 0 "" 2
 288              	.LVL23:
  69:src/Riscv.cpp ****                 asm volatile("mv %0, a2" : "=r"(start_routine));
 289              		.loc 1 69 17 is_stmt 1
  69:src/Riscv.cpp ****                 asm volatile("mv %0, a2" : "=r"(start_routine));
 290              		.loc 1 69 64 is_stmt 0
 291              	# 69 "src/Riscv.cpp" 1
GAS LISTING /tmp/ccD7Ffnc.s 			page 9


 292              		mv a0, a2
 293              	# 0 "" 2
 294              	.LVL24:
  70:src/Riscv.cpp ****                 asm volatile("mv %0, a3" : "=r"(args));
 295              		.loc 1 70 17 is_stmt 1
  70:src/Riscv.cpp ****                 asm volatile("mv %0, a3" : "=r"(args));
 296              		.loc 1 70 55 is_stmt 0
 297              	# 70 "src/Riscv.cpp" 1
 298              		mv a1, a3
 299              	# 0 "" 2
 300              	.LVL25:
  71:src/Riscv.cpp ****                 asm volatile("mv %0, a4" : "=r"(stackTop));
 301              		.loc 1 71 17 is_stmt 1
  71:src/Riscv.cpp ****                 asm volatile("mv %0, a4" : "=r"(stackTop));
 302              		.loc 1 71 59 is_stmt 0
 303              	# 71 "src/Riscv.cpp" 1
 304              		mv a2, a4
 305              	# 0 "" 2
 306              	.LVL26:
  73:src/Riscv.cpp ****                 size_t stackSize = DEFAULT_STACK_SIZE;
 307              		.loc 1 73 17 is_stmt 1
  76:src/Riscv.cpp ****                 *handle = Thread::createThread(start_routine, args, stackTop, stackSize);
 308              		.loc 1 76 17
  76:src/Riscv.cpp ****                 *handle = Thread::createThread(start_routine, args, stackTop, stackSize);
 309              		.loc 1 76 47 is_stmt 0
 310              	#NO_APP
 311 0100 B7160000 		li	a3,4096
 312 0104 97000000 		call	_ZN6Thread12createThreadEPFvPvES0_S0_m@plt
 312      E7800000 
 313              	.LVL27:
  76:src/Riscv.cpp ****                 *handle = Thread::createThread(start_routine, args, stackTop, stackSize);
 314              		.loc 1 76 25
 315 010c 2330A900 		sd	a0,0(s2)
  79:src/Riscv.cpp ****                 if (*handle != nullptr) {
 316              		.loc 1 79 17 is_stmt 1
 317 0110 630A0500 		beqz	a0,.L14
  80:src/Riscv.cpp ****                     (*handle)->start();
 318              		.loc 1 80 21
  80:src/Riscv.cpp ****                     (*handle)->start();
 319              		.loc 1 80 37 is_stmt 0
 320 0114 97000000 		call	_ZN6Thread5startEv@plt
 320      E7800000 
 321              	.LVL28:
  81:src/Riscv.cpp ****                     asm volatile("li a0, 0");
 322              		.loc 1 81 21 is_stmt 1
  81:src/Riscv.cpp ****                     asm volatile("li a0, 0");
 323              		.loc 1 81 45 is_stmt 0
 324              	#APP
 325              	# 81 "src/Riscv.cpp" 1
 326              		li a0, 0
 327              	# 0 "" 2
 328              	#NO_APP
 329 0120 6FF01FF9 		j	.L5
 330              	.L14:
  83:src/Riscv.cpp ****                 else asm volatile("li a0, -1");
 331              		.loc 1 83 22 is_stmt 1
  83:src/Riscv.cpp ****                 else asm volatile("li a0, -1");
GAS LISTING /tmp/ccD7Ffnc.s 			page 10


 332              		.loc 1 83 47 is_stmt 0
 333              	#APP
 334              	# 83 "src/Riscv.cpp" 1
 335              		li a0, -1
 336              	# 0 "" 2
 337              	#NO_APP
 338 0128 6FF09FF8 		j	.L5
 339              	.LVL29:
 340              	.L8:
 341              	.LBE9:
  87:src/Riscv.cpp ****             case THREAD_EXIT: {
 342              		.loc 1 87 13 is_stmt 1
  87:src/Riscv.cpp ****             case THREAD_EXIT: {
 343              		.loc 1 87 31
  88:src/Riscv.cpp ****                 if (Thread::running) {
 344              		.loc 1 88 17
  88:src/Riscv.cpp ****                 if (Thread::running) {
 345              		.loc 1 88 36 is_stmt 0
 346 012c 97070000 		la	a5,_ZN6Thread7runningE
 346      83B70700 
 347 0134 03B50700 		ld	a0,0(a5)
  88:src/Riscv.cpp ****                 if (Thread::running) {
 348              		.loc 1 88 17
 349 0138 63060500 		beqz	a0,.L15
  89:src/Riscv.cpp ****                     Thread::running->exit();
 350              		.loc 1 89 21 is_stmt 1
  89:src/Riscv.cpp ****                     Thread::running->exit();
 351              		.loc 1 89 42 is_stmt 0
 352 013c 97000000 		call	_ZN6Thread4exitEv@plt
 352      E7800000 
 353              	.LVL30:
 354              	.L15:
  92:src/Riscv.cpp ****                 Thread::dispatch();
 355              		.loc 1 92 17 is_stmt 1
  92:src/Riscv.cpp ****                 Thread::dispatch();
 356              		.loc 1 92 33 is_stmt 0
 357 0144 97000000 		call	_ZN6Thread8dispatchEv@plt
 357      E7800000 
 358              	.LVL31:
  94:src/Riscv.cpp ****                 asm volatile("li a0, 0");
 359              		.loc 1 94 17 is_stmt 1
  94:src/Riscv.cpp ****                 asm volatile("li a0, 0");
 360              		.loc 1 94 41 is_stmt 0
 361              	#APP
 362              	# 94 "src/Riscv.cpp" 1
  96:src/Riscv.cpp ****                 break;
 363              		li a0, 0
 364              	# 0 "" 2
 365              		.loc 1 96 17 is_stmt 1
 366              	#NO_APP
 367 0150 6FF01FF6 		j	.L5
 368              	.L6:
  98:src/Riscv.cpp ****             case THREAD_DISPATCH: {
 369              		.loc 1 98 13
  98:src/Riscv.cpp ****             case THREAD_DISPATCH: {
 370              		.loc 1 98 35
  99:src/Riscv.cpp ****                 Thread::dispatch();
GAS LISTING /tmp/ccD7Ffnc.s 			page 11


 371              		.loc 1 99 17
  99:src/Riscv.cpp ****                 Thread::dispatch();
 372              		.loc 1 99 33 is_stmt 0
 373 0154 97000000 		call	_ZN6Thread8dispatchEv@plt
 373      E7800000 
 374              	.LVL32:
 101:src/Riscv.cpp ****                 break;
 375              		.loc 1 101 17 is_stmt 1
 376 015c 6FF05FF5 		j	.L5
 377              	.LBE10:
 378              	.LBE11:
 379              	.LBE13:
 380              		.cfi_endproc
 381              	.LFE7:
 383              	.Letext0:
 384              		.file 2 "src/../h/Riscv.hpp"
 385              		.file 3 "src/../h/../lib/hw.h"
 386              		.file 4 "src/../h/MemoryAllocator.hpp"
 387              		.file 5 "src/../h/Thread.hpp"
GAS LISTING /tmp/ccD7Ffnc.s 			page 12

