GAS LISTING /tmp/ccMShde4.s 			page 1


   1              		.file	"Riscv.cpp"
   2              		.option pic
   3              		.option norelax
   4              		.text
   5              	.Ltext0:
   6              		.align	2
   7              		.globl	_ZN5Riscv10popSppSpieEv
   9              	_ZN5Riscv10popSppSpieEv:
  10              	.LFB29:
  11              		.file 1 "src/Riscv.cpp"
   1:src/Riscv.cpp **** //
   2:src/Riscv.cpp **** // Created by os on 10/7/25.
   3:src/Riscv.cpp **** //
   4:src/Riscv.cpp **** 
   5:src/Riscv.cpp **** #include "../h/Riscv.hpp"
   6:src/Riscv.cpp **** 
   7:src/Riscv.cpp **** #include "../h/MemoryAllocator.hpp"
   8:src/Riscv.cpp **** #include "../h/KThread.hpp"
   9:src/Riscv.cpp **** #include "../h/KSemaphore.hpp"
  10:src/Riscv.cpp **** #include "../lib/hw.h"
  11:src/Riscv.cpp **** #include "../lib/console.h"
  12:src/Riscv.cpp **** 
  13:src/Riscv.cpp **** #include "../test/printing.hpp"
  14:src/Riscv.cpp **** 
  15:src/Riscv.cpp **** constexpr uint64 MEM_ALLOC = 0x01;
  16:src/Riscv.cpp **** constexpr uint64 MEM_FREE = 0x02;
  17:src/Riscv.cpp **** constexpr uint64 MEM_GET_FREE_SPACE = 0x03;
  18:src/Riscv.cpp **** constexpr uint64 MEM_GET_LARGEST_FREE_BLOCK = 0x04;
  19:src/Riscv.cpp **** 
  20:src/Riscv.cpp **** constexpr uint64 THREAD_CREATE = 0x11;
  21:src/Riscv.cpp **** constexpr uint64 THREAD_EXIT = 0x12;
  22:src/Riscv.cpp **** constexpr uint64 THREAD_DISPATCH = 0x13;
  23:src/Riscv.cpp **** 
  24:src/Riscv.cpp **** constexpr uint64 SEM_OPEN = 0x21;
  25:src/Riscv.cpp **** constexpr uint64 SEM_CLOSE = 0x22;
  26:src/Riscv.cpp **** constexpr uint64 SEM_WAIT = 0x23;
  27:src/Riscv.cpp **** constexpr uint64 SEM_SIGNAL = 0x24;
  28:src/Riscv.cpp **** 
  29:src/Riscv.cpp **** constexpr uint64 GETC = 0x41;
  30:src/Riscv.cpp **** constexpr uint64 PUTC = 0x42;
  31:src/Riscv.cpp **** 
  32:src/Riscv.cpp **** void Riscv::popSppSpie()
  33:src/Riscv.cpp **** {
  12              		.loc 1 33 1
  13              		.cfi_startproc
  14 0000 130101FF 		addi	sp,sp,-16
  15              		.cfi_def_cfa_offset 16
  16 0004 23348100 		sd	s0,8(sp)
  17              		.cfi_offset 8, -8
  18 0008 13040101 		addi	s0,sp,16
  19              		.cfi_def_cfa 8, 0
  34:src/Riscv.cpp ****     mc_sstatus(SSTATUS_SPP);
  20              		.loc 1 34 5
  21              	.LVL0:
  22              	.LBB33:
  23              	.LBB34:
  24              		.file 2 "src/../h/Riscv.hpp"
GAS LISTING /tmp/ccMShde4.s 			page 2


   1:src/../h/Riscv.hpp **** //
   2:src/../h/Riscv.hpp **** // Created by os on 10/7/25.
   3:src/../h/Riscv.hpp **** //
   4:src/../h/Riscv.hpp **** 
   5:src/../h/Riscv.hpp **** #ifndef PROJECT_BASE_RISCV_HPP
   6:src/../h/Riscv.hpp **** #define PROJECT_BASE_RISCV_HPP
   7:src/../h/Riscv.hpp **** 
   8:src/../h/Riscv.hpp **** #include "../lib/hw.h"
   9:src/../h/Riscv.hpp **** 
  10:src/../h/Riscv.hpp **** extern uint64 framePointer;
  11:src/../h/Riscv.hpp **** extern "C" void trap_handler();
  12:src/../h/Riscv.hpp **** 
  13:src/../h/Riscv.hpp **** class Riscv {
  14:src/../h/Riscv.hpp **** public:
  15:src/../h/Riscv.hpp ****     static void setupTrapHandler();
  16:src/../h/Riscv.hpp ****     static void trapHandler();
  17:src/../h/Riscv.hpp **** 
  18:src/../h/Riscv.hpp ****     static void popSppSpie();
  19:src/../h/Riscv.hpp **** 
  20:src/../h/Riscv.hpp ****     static uint64 r_scause();
  21:src/../h/Riscv.hpp ****     static void w_scause(uint64 scause);
  22:src/../h/Riscv.hpp **** 
  23:src/../h/Riscv.hpp ****     static uint64 r_sepc();
  24:src/../h/Riscv.hpp ****     static void w_sepc(uint64 sepc);
  25:src/../h/Riscv.hpp **** 
  26:src/../h/Riscv.hpp ****     static uint64 r_stvec();
  27:src/../h/Riscv.hpp ****     static void w_stvec(uint64 stvec);
  28:src/../h/Riscv.hpp **** 
  29:src/../h/Riscv.hpp ****     static uint64 r_stval();
  30:src/../h/Riscv.hpp ****     static void w_stval(uint64 stval);
  31:src/../h/Riscv.hpp **** 
  32:src/../h/Riscv.hpp ****     static void ms_sip(uint64 mask);
  33:src/../h/Riscv.hpp ****     static void mc_sip(uint64 mask);
  34:src/../h/Riscv.hpp ****     static uint64 r_sip();
  35:src/../h/Riscv.hpp ****     static void w_sip(uint64 sip);
  36:src/../h/Riscv.hpp **** 
  37:src/../h/Riscv.hpp ****     static void ms_sstatus(uint64 mask);
  38:src/../h/Riscv.hpp ****     static void mc_sstatus(uint64 mask);
  39:src/../h/Riscv.hpp ****     static uint64 r_sstatus();
  40:src/../h/Riscv.hpp ****     static void w_sstatus(uint64 sstatus);
  41:src/../h/Riscv.hpp **** 
  42:src/../h/Riscv.hpp ****     enum BitMaskSip
  43:src/../h/Riscv.hpp ****     {
  44:src/../h/Riscv.hpp ****         SIP_SSIP = (1 << 1),
  45:src/../h/Riscv.hpp ****         SIP_STIP = (1 << 5),
  46:src/../h/Riscv.hpp ****         SIP_SEIP = (1 << 9),
  47:src/../h/Riscv.hpp ****     };
  48:src/../h/Riscv.hpp **** 
  49:src/../h/Riscv.hpp ****     enum BitMaskSstatus
  50:src/../h/Riscv.hpp ****     {
  51:src/../h/Riscv.hpp ****         SSTATUS_SIE = (1 << 1),
  52:src/../h/Riscv.hpp ****         SSTATUS_SPIE = (1 << 5),
  53:src/../h/Riscv.hpp ****         SSTATUS_SPP = (1 << 8),
  54:src/../h/Riscv.hpp ****     };
  55:src/../h/Riscv.hpp **** };
  56:src/../h/Riscv.hpp **** 
  57:src/../h/Riscv.hpp **** inline uint64 Riscv::r_scause() {
GAS LISTING /tmp/ccMShde4.s 			page 3


  58:src/../h/Riscv.hpp ****     uint64 volatile scause;
  59:src/../h/Riscv.hpp ****     asm volatile("csrr %0, scause" : "=r"(scause));
  60:src/../h/Riscv.hpp ****     return scause;
  61:src/../h/Riscv.hpp **** }
  62:src/../h/Riscv.hpp **** 
  63:src/../h/Riscv.hpp **** inline void Riscv::w_scause(uint64 scause) {
  64:src/../h/Riscv.hpp ****     asm volatile("csrw scause, %0" :: "r"(scause));
  65:src/../h/Riscv.hpp **** }
  66:src/../h/Riscv.hpp **** 
  67:src/../h/Riscv.hpp **** inline uint64 Riscv::r_sepc() {
  68:src/../h/Riscv.hpp ****     uint64 volatile sepc;
  69:src/../h/Riscv.hpp ****     asm volatile("csrr %0, sepc" : "=r"(sepc));
  70:src/../h/Riscv.hpp ****     return sepc;
  71:src/../h/Riscv.hpp **** }
  72:src/../h/Riscv.hpp **** 
  73:src/../h/Riscv.hpp **** inline void Riscv::w_sepc(uint64 sepc) {
  74:src/../h/Riscv.hpp ****     asm volatile("csrw sepc, %0" :: "r"(sepc));
  75:src/../h/Riscv.hpp **** }
  76:src/../h/Riscv.hpp **** 
  77:src/../h/Riscv.hpp **** inline uint64 Riscv::r_stvec() {
  78:src/../h/Riscv.hpp ****     uint64 volatile stvec;
  79:src/../h/Riscv.hpp ****     asm volatile("csrr %0, stvec" : "=r"(stvec));
  80:src/../h/Riscv.hpp ****     return stvec;
  81:src/../h/Riscv.hpp **** }
  82:src/../h/Riscv.hpp **** 
  83:src/../h/Riscv.hpp **** inline void Riscv::w_stvec(uint64 stvec) {
  84:src/../h/Riscv.hpp ****     asm volatile("csrw stvec, %0" :: "r"(stvec));
  85:src/../h/Riscv.hpp **** }
  86:src/../h/Riscv.hpp **** 
  87:src/../h/Riscv.hpp **** inline uint64 Riscv::r_stval() {
  88:src/../h/Riscv.hpp ****     uint64 volatile stval;
  89:src/../h/Riscv.hpp ****     asm volatile("csrr %0, stval" : "=r"(stval));
  90:src/../h/Riscv.hpp ****     return stval;
  91:src/../h/Riscv.hpp **** }
  92:src/../h/Riscv.hpp **** 
  93:src/../h/Riscv.hpp **** inline void Riscv::w_stval(uint64 stval) {
  94:src/../h/Riscv.hpp ****     asm volatile("csrw stval, %0" :: "r"(stval));
  95:src/../h/Riscv.hpp **** }
  96:src/../h/Riscv.hpp **** 
  97:src/../h/Riscv.hpp **** inline void Riscv::ms_sip(uint64 mask) {
  98:src/../h/Riscv.hpp ****     asm volatile("csrs sip, %0" :: "r"(mask));
  99:src/../h/Riscv.hpp **** }
 100:src/../h/Riscv.hpp **** 
 101:src/../h/Riscv.hpp **** inline void Riscv::mc_sip(uint64 mask) {
 102:src/../h/Riscv.hpp ****     asm volatile("csrc sip, %0" :: "r"(mask));
 103:src/../h/Riscv.hpp **** }
 104:src/../h/Riscv.hpp **** 
 105:src/../h/Riscv.hpp **** inline uint64 Riscv::r_sip() {
 106:src/../h/Riscv.hpp ****     uint64 volatile sip;
 107:src/../h/Riscv.hpp ****     asm volatile("csrr %0, sip" : "=r"(sip));
 108:src/../h/Riscv.hpp ****     return sip;
 109:src/../h/Riscv.hpp **** }
 110:src/../h/Riscv.hpp **** 
 111:src/../h/Riscv.hpp **** inline void Riscv::w_sip(uint64 sip) {
 112:src/../h/Riscv.hpp ****     asm volatile("csrw sip, %0" :: "r"(sip));
 113:src/../h/Riscv.hpp **** }
 114:src/../h/Riscv.hpp **** 
GAS LISTING /tmp/ccMShde4.s 			page 4


 115:src/../h/Riscv.hpp **** inline void Riscv::ms_sstatus(uint64 mask) {
 116:src/../h/Riscv.hpp ****     asm volatile("csrs sstatus, %0" :: "r"(mask));
 117:src/../h/Riscv.hpp **** }
 118:src/../h/Riscv.hpp **** 
 119:src/../h/Riscv.hpp **** inline void Riscv::mc_sstatus(uint64 mask) {
 120:src/../h/Riscv.hpp ****     asm volatile("csrc sstatus, %0" :: "r"(mask));
  25              		.loc 2 120 5
  26              		.loc 2 120 50 is_stmt 0
  27 000c 93070010 		li	a5,256
  28              	#APP
  29              	# 120 "src/../h/Riscv.hpp" 1
 121              	}
  30              		csrc sstatus, a5
  31              	# 0 "" 2
  32              	.LVL1:
  33              	#NO_APP
  34              	.LBE34:
  35              	.LBE33:
  35:src/Riscv.cpp ****     asm volatile("csrw sepc, ra");
  36              		.loc 1 35 5 is_stmt 1
  37              		.loc 1 35 34 is_stmt 0
  38              	#APP
  39              	# 35 "src/Riscv.cpp" 1
  36              	    asm volatile("sret");
  40              		csrw sepc, ra
  41              	# 0 "" 2
  42              		.loc 1 36 5 is_stmt 1
  43              		.loc 1 36 25 is_stmt 0
  44              	# 36 "src/Riscv.cpp" 1
  37              	}
  45              		sret
  46              	# 0 "" 2
  47              		.loc 1 37 1
  48              	#NO_APP
  49 001c 03348100 		ld	s0,8(sp)
  50              		.cfi_restore 8
  51              		.cfi_def_cfa 2, 16
  52 0020 13010101 		addi	sp,sp,16
  53              		.cfi_def_cfa_offset 0
  54 0024 67800000 		jr	ra
  55              		.cfi_endproc
  56              	.LFE29:
  58              		.align	2
  59              		.globl	_ZN5Riscv16setupTrapHandlerEv
  61              	_ZN5Riscv16setupTrapHandlerEv:
  62              	.LFB30:
  38:src/Riscv.cpp **** 
  39:src/Riscv.cpp **** 
  40:src/Riscv.cpp **** void Riscv::setupTrapHandler() {
  63              		.loc 1 40 32 is_stmt 1
  64              		.cfi_startproc
  65 0028 130101FF 		addi	sp,sp,-16
  66              		.cfi_def_cfa_offset 16
  67 002c 23348100 		sd	s0,8(sp)
  68              		.cfi_offset 8, -8
  69 0030 13040101 		addi	s0,sp,16
  70              		.cfi_def_cfa 8, 0
GAS LISTING /tmp/ccMShde4.s 			page 5


  41:src/Riscv.cpp ****     uint64 addr = (uint64)&trap_handler;
  71              		.loc 1 41 5
  72              		.loc 1 41 12 is_stmt 0
  73 0034 97070000 		la	a5,trap_handler
  73      83B70700 
  74              	.LVL2:
  42:src/Riscv.cpp ****     w_stvec(addr);
  75              		.loc 1 42 5 is_stmt 1
  76              	.LBB35:
  77              	.LBB36:
  84:src/../h/Riscv.hpp **** }
  78              		.loc 2 84 5
  84:src/../h/Riscv.hpp **** }
  79              		.loc 2 84 49 is_stmt 0
  80              	#APP
  81              	# 84 "src/../h/Riscv.hpp" 1
  82              		csrw stvec, a5
  83              	# 0 "" 2
  84              	.LVL3:
  85              	#NO_APP
  86              	.LBE36:
  87              	.LBE35:
  43:src/Riscv.cpp **** }
  88              		.loc 1 43 1
  89 0040 03348100 		ld	s0,8(sp)
  90              		.cfi_restore 8
  91              		.cfi_def_cfa 2, 16
  92 0044 13010101 		addi	sp,sp,16
  93              		.cfi_def_cfa_offset 0
  94 0048 67800000 		jr	ra
  95              		.cfi_endproc
  96              	.LFE30:
  98              		.section	.rodata.str1.8,"aMS",@progbits,1
  99              		.align	3
 100              	.LC0:
 101 0000 4552524F 		.string	"ERROR! SCAUSE:"
 101      52212053 
 101      43415553 
 101      453A00
 102 000f 00       		.align	3
 103              	.LC1:
 104 0010 0A00     		.string	"\n"
 105              		.text
 106              		.align	2
 107              		.globl	_ZN5Riscv11trapHandlerEv
 109              	_ZN5Riscv11trapHandlerEv:
 110              	.LFB31:
  44:src/Riscv.cpp **** 
  45:src/Riscv.cpp **** void Riscv::trapHandler() {
 111              		.loc 1 45 27 is_stmt 1
 112              		.cfi_startproc
 113 004c 130101FB 		addi	sp,sp,-80
 114              		.cfi_def_cfa_offset 80
 115 0050 23341104 		sd	ra,72(sp)
 116 0054 23308104 		sd	s0,64(sp)
 117 0058 233C9102 		sd	s1,56(sp)
 118 005c 23382103 		sd	s2,48(sp)
GAS LISTING /tmp/ccMShde4.s 			page 6


 119 0060 23343103 		sd	s3,40(sp)
 120              		.cfi_offset 1, -8
 121              		.cfi_offset 8, -16
 122              		.cfi_offset 9, -24
 123              		.cfi_offset 18, -32
 124              		.cfi_offset 19, -40
 125 0064 13040105 		addi	s0,sp,80
 126              		.cfi_def_cfa 8, 0
  46:src/Riscv.cpp ****     uint64 scause = r_scause();
 127              		.loc 1 46 5
 128              	.LBB37:
 129              	.LBB38:
  58:src/../h/Riscv.hpp ****     asm volatile("csrr %0, scause" : "=r"(scause));
 130              		.loc 2 58 5
  59:src/../h/Riscv.hpp ****     return scause;
 131              		.loc 2 59 5
  59:src/../h/Riscv.hpp ****     return scause;
 132              		.loc 2 59 51 is_stmt 0
 133              	#APP
 134              	# 59 "src/../h/Riscv.hpp" 1
 135              		csrr a5, scause
 136              	# 0 "" 2
 137              	#NO_APP
 138 006c 2330F4FC 		sd	a5,-64(s0)
  60:src/../h/Riscv.hpp **** }
 139              		.loc 2 60 5 is_stmt 1
  60:src/../h/Riscv.hpp **** }
 140              		.loc 2 60 12 is_stmt 0
 141 0070 833404FC 		ld	s1,-64(s0)
 142              	.LVL4:
 143              	.LBE38:
 144              	.LBE37:
  47:src/Riscv.cpp ****     uint64 sepc = r_sepc();
 145              		.loc 1 47 5 is_stmt 1
 146              	.LBB39:
 147              	.LBB40:
  68:src/../h/Riscv.hpp ****     asm volatile("csrr %0, sepc" : "=r"(sepc));
 148              		.loc 2 68 5
  69:src/../h/Riscv.hpp ****     return sepc;
 149              		.loc 2 69 5
  69:src/../h/Riscv.hpp ****     return sepc;
 150              		.loc 2 69 47 is_stmt 0
 151              	#APP
 152              	# 69 "src/../h/Riscv.hpp" 1
 153              		csrr a5, sepc
 154              	# 0 "" 2
 155              	#NO_APP
 156 0078 233CF4FA 		sd	a5,-72(s0)
  70:src/../h/Riscv.hpp **** }
 157              		.loc 2 70 5 is_stmt 1
  70:src/../h/Riscv.hpp **** }
 158              		.loc 2 70 12 is_stmt 0
 159 007c 033984FB 		ld	s2,-72(s0)
 160              	.LVL5:
 161              	.LBE40:
 162              	.LBE39:
  48:src/Riscv.cpp **** 
GAS LISTING /tmp/ccMShde4.s 			page 7


  49:src/Riscv.cpp ****     uint64 interrupt = scause >> 63;
 163              		.loc 1 49 5 is_stmt 1
 164              		.loc 1 49 12 is_stmt 0
 165 0080 13D7F403 		srli	a4,s1,63
 166              	.LVL6:
  50:src/Riscv.cpp ****     uint64 cause = scause & 0x7FFFFFFFFFFFFFFF;
 167              		.loc 1 50 5 is_stmt 1
 168              		.loc 1 50 12 is_stmt 0
 169 0084 9307F0FF 		li	a5,-1
 170 0088 93D71700 		srli	a5,a5,1
 171 008c B3F7F400 		and	a5,s1,a5
 172              	.LVL7:
  51:src/Riscv.cpp **** 
  52:src/Riscv.cpp ****     if (interrupt == 0 && (cause == 8 || cause == 9)) {
 173              		.loc 1 52 5 is_stmt 1
 174              	.LBB41:
 175 0090 63C80400 		bltz	s1,.L6
 176              		.loc 1 52 39 is_stmt 0 discriminator 1
 177 0094 938687FF 		addi	a3,a5,-8
 178              		.loc 1 52 24 discriminator 1
 179 0098 13061000 		li	a2,1
 180 009c 6372D606 		bleu	a3,a2,.L34
 181              	.L6:
  53:src/Riscv.cpp ****         uint64 sstatus = r_sstatus();
  54:src/Riscv.cpp ****         uint64 code;
  55:src/Riscv.cpp ****         asm volatile("mv %0, a0" : "=r"(code));
  56:src/Riscv.cpp **** 
  57:src/Riscv.cpp ****         switch (code) {
  58:src/Riscv.cpp ****             case MEM_ALLOC: {
  59:src/Riscv.cpp ****                 size_t size;
  60:src/Riscv.cpp ****                 asm volatile("ld a1, 11*8(%0)" :: "r"(framePointer));
  61:src/Riscv.cpp ****                 asm volatile("mv %0, a1" : "=r"(size));
  62:src/Riscv.cpp ****                 void* ptr = MemoryAllocator::mem_alloc(size);
  63:src/Riscv.cpp ****                 asm volatile("mv a0, %0" :: "r"(ptr));
  64:src/Riscv.cpp ****                 asm volatile("sd a0, 10*8(%0)" :: "r"(framePointer));
  65:src/Riscv.cpp ****                 break;
  66:src/Riscv.cpp ****             }
  67:src/Riscv.cpp ****             case MEM_FREE: {
  68:src/Riscv.cpp ****                 void* addr;
  69:src/Riscv.cpp ****                 asm volatile("ld a1, 11*8(%0)" :: "r"(framePointer));
  70:src/Riscv.cpp ****                 asm volatile("mv %0, a1" : "=r"(addr));
  71:src/Riscv.cpp ****                 int status = MemoryAllocator::mem_free(addr);
  72:src/Riscv.cpp ****                 asm volatile("mv a0, %0" :: "r"(status));
  73:src/Riscv.cpp ****                 asm volatile("sd a0, 10*8(%0)" :: "r"(framePointer));
  74:src/Riscv.cpp ****                 break;
  75:src/Riscv.cpp ****             }
  76:src/Riscv.cpp ****             case MEM_GET_FREE_SPACE: {
  77:src/Riscv.cpp ****                 size_t freeSpace = MemoryAllocator::mem_get_free_space();
  78:src/Riscv.cpp ****                 asm volatile("mv a0, %0" :: "r"(freeSpace));
  79:src/Riscv.cpp ****                 asm volatile("sd a0, 10*8(%0)" :: "r"(framePointer));
  80:src/Riscv.cpp ****                 break;
  81:src/Riscv.cpp ****             }
  82:src/Riscv.cpp ****             case MEM_GET_LARGEST_FREE_BLOCK: {
  83:src/Riscv.cpp ****                 size_t largest = MemoryAllocator::mem_get_largest_free_block();
  84:src/Riscv.cpp ****                 asm volatile("mv a0, %0" :: "r"(largest));
  85:src/Riscv.cpp ****                 asm volatile("sd a0, 10*8(%0)" :: "r"(framePointer));
  86:src/Riscv.cpp ****                 break;
GAS LISTING /tmp/ccMShde4.s 			page 8


  87:src/Riscv.cpp ****             }
  88:src/Riscv.cpp ****             case THREAD_CREATE: {
  89:src/Riscv.cpp ****                 KThread** handle = nullptr;
  90:src/Riscv.cpp ****                 void (*start_routine)(void*) = nullptr;
  91:src/Riscv.cpp ****                 void* args = nullptr;
  92:src/Riscv.cpp ****                 void* stack = nullptr;
  93:src/Riscv.cpp **** 
  94:src/Riscv.cpp ****                 asm volatile("ld a1, 11*8(%0)" :: "r"(framePointer));
  95:src/Riscv.cpp ****                 asm volatile("mv %0, a1" : "=r"(handle));
  96:src/Riscv.cpp ****                 asm volatile("ld a2, 12*8(%0)" :: "r"(framePointer));
  97:src/Riscv.cpp ****                 asm volatile("mv %0, a2" : "=r"(start_routine));
  98:src/Riscv.cpp ****                 asm volatile("ld a3, 13*8(%0)" :: "r"(framePointer));
  99:src/Riscv.cpp ****                 asm volatile("mv %0, a3" : "=r"(args));
 100:src/Riscv.cpp ****                 asm volatile("ld a4, 14*8(%0)" :: "r"(framePointer));
 101:src/Riscv.cpp ****                 asm volatile("mv %0, a4" : "=r"(stack));
 102:src/Riscv.cpp **** 
 103:src/Riscv.cpp ****                 *handle = KThread::createThread(start_routine, args, stack);
 104:src/Riscv.cpp **** 
 105:src/Riscv.cpp ****                 if (*handle != nullptr) {
 106:src/Riscv.cpp ****                     (*handle)->start();
 107:src/Riscv.cpp ****                     asm volatile("li a0, 0");
 108:src/Riscv.cpp ****                 }
 109:src/Riscv.cpp ****                 else asm volatile("li a0, -1");
 110:src/Riscv.cpp **** 
 111:src/Riscv.cpp ****                 asm volatile("sd a0, 10*8(%0)" :: "r"(framePointer));
 112:src/Riscv.cpp **** 
 113:src/Riscv.cpp ****                 break;
 114:src/Riscv.cpp ****             }
 115:src/Riscv.cpp ****             case THREAD_EXIT: {
 116:src/Riscv.cpp ****                 if (KThread::running) {
 117:src/Riscv.cpp ****                     KThread::running->exit();
 118:src/Riscv.cpp ****                 }
 119:src/Riscv.cpp ****                 KThread::dispatch();
 120:src/Riscv.cpp **** 
 121:src/Riscv.cpp ****                 asm volatile("li a0, 0");
 122:src/Riscv.cpp **** 
 123:src/Riscv.cpp ****                 break;
 124:src/Riscv.cpp ****             }
 125:src/Riscv.cpp ****             case THREAD_DISPATCH: {
 126:src/Riscv.cpp ****                 KThread::dispatch();
 127:src/Riscv.cpp **** 
 128:src/Riscv.cpp ****                 break;
 129:src/Riscv.cpp ****             }
 130:src/Riscv.cpp ****             case SEM_OPEN: {
 131:src/Riscv.cpp ****                 KSemaphore** handle = nullptr;
 132:src/Riscv.cpp ****                 unsigned init;
 133:src/Riscv.cpp **** 
 134:src/Riscv.cpp ****                 asm volatile("ld a1, 11*8(%0)" :: "r"(framePointer));
 135:src/Riscv.cpp ****                 asm volatile("mv %0, a1" : "=r"(handle));
 136:src/Riscv.cpp ****                 asm volatile("ld a2, 12*8(%0)" :: "r"(framePointer));
 137:src/Riscv.cpp ****                 asm volatile("mv %0, a2" : "=r"(init));
 138:src/Riscv.cpp **** 
 139:src/Riscv.cpp ****                 *handle = KSemaphore::createSemaphore(init);
 140:src/Riscv.cpp **** 
 141:src/Riscv.cpp ****                 if (*handle != nullptr) asm volatile("li a0, 0");
 142:src/Riscv.cpp ****                 else asm volatile("li a0, -1");
 143:src/Riscv.cpp **** 
GAS LISTING /tmp/ccMShde4.s 			page 9


 144:src/Riscv.cpp ****                 asm volatile("sd a0, 10*8(%0)" :: "r"(framePointer));
 145:src/Riscv.cpp **** 
 146:src/Riscv.cpp ****                 break;
 147:src/Riscv.cpp ****             }
 148:src/Riscv.cpp ****             case SEM_CLOSE: {
 149:src/Riscv.cpp ****                 KSemaphore* handle = nullptr;
 150:src/Riscv.cpp **** 
 151:src/Riscv.cpp ****                 asm volatile("ld a1, 11*8(%0)" :: "r"(framePointer));
 152:src/Riscv.cpp ****                 asm volatile("mv %0, a1" : "=r"(handle));
 153:src/Riscv.cpp **** 
 154:src/Riscv.cpp ****                 if (handle) {
 155:src/Riscv.cpp ****                     handle->close();
 156:src/Riscv.cpp ****                     asm volatile("li a0, 0");
 157:src/Riscv.cpp ****                 }
 158:src/Riscv.cpp ****                 else asm volatile("li a0, -1");
 159:src/Riscv.cpp **** 
 160:src/Riscv.cpp ****                 break;
 161:src/Riscv.cpp ****             }
 162:src/Riscv.cpp ****             case SEM_WAIT: {
 163:src/Riscv.cpp ****                 KSemaphore* handle = nullptr;
 164:src/Riscv.cpp **** 
 165:src/Riscv.cpp ****                 asm volatile("ld a1, 11*8(%0)" :: "r"(framePointer));
 166:src/Riscv.cpp ****                 asm volatile("mv %0, a1" : "=r"(handle));
 167:src/Riscv.cpp **** 
 168:src/Riscv.cpp ****                 if (handle) {
 169:src/Riscv.cpp ****                     handle->wait();
 170:src/Riscv.cpp ****                     asm volatile("li a0, 0");
 171:src/Riscv.cpp ****                 }
 172:src/Riscv.cpp ****                 else asm volatile("li a0, -1");
 173:src/Riscv.cpp **** 
 174:src/Riscv.cpp ****                 break;
 175:src/Riscv.cpp ****             }
 176:src/Riscv.cpp ****             case SEM_SIGNAL: {
 177:src/Riscv.cpp ****                 KSemaphore* handle = nullptr;
 178:src/Riscv.cpp **** 
 179:src/Riscv.cpp ****                 asm volatile("ld a1, 11*8(%0)" :: "r"(framePointer));
 180:src/Riscv.cpp ****                 asm volatile("mv %0, a1" : "=r"(handle));
 181:src/Riscv.cpp **** 
 182:src/Riscv.cpp ****                 if (handle) {
 183:src/Riscv.cpp ****                     handle->signal();
 184:src/Riscv.cpp ****                     asm volatile("li a0, 0");
 185:src/Riscv.cpp ****                 }
 186:src/Riscv.cpp ****                 else asm volatile("li a0, -1");
 187:src/Riscv.cpp **** 
 188:src/Riscv.cpp ****                 break;
 189:src/Riscv.cpp ****             }
 190:src/Riscv.cpp ****             case GETC: {
 191:src/Riscv.cpp ****                 int c = __getc();
 192:src/Riscv.cpp ****                 asm volatile("mv t0, %0" : : "r"(c));
 193:src/Riscv.cpp ****                 asm volatile("sw t0, 80(x8)");
 194:src/Riscv.cpp ****                 break;
 195:src/Riscv.cpp ****             }
 196:src/Riscv.cpp ****             case PUTC: {
 197:src/Riscv.cpp ****                 char c;
 198:src/Riscv.cpp ****                 asm volatile("mv %0, a1" : "=r" (c));
 199:src/Riscv.cpp ****                 __putc(c);
 200:src/Riscv.cpp ****                 break;
GAS LISTING /tmp/ccMShde4.s 			page 10


 201:src/Riscv.cpp ****             }
 202:src/Riscv.cpp ****             default:
 203:src/Riscv.cpp ****                 break;
 204:src/Riscv.cpp ****         }
 205:src/Riscv.cpp **** 
 206:src/Riscv.cpp ****         sepc += 4;
 207:src/Riscv.cpp ****         w_sepc(sepc);
 208:src/Riscv.cpp ****         w_sstatus(sstatus);
 209:src/Riscv.cpp ****     }
 210:src/Riscv.cpp ****     else if (interrupt == 1 && cause == 1) {
 182              		.loc 1 210 10 is_stmt 1
 183 00a0 631E072C 		bnez	a4,.L35
 184              	.L31:
 211:src/Riscv.cpp ****         mc_sip(SIP_SSIP);
 212:src/Riscv.cpp ****     }
 213:src/Riscv.cpp ****     else if (interrupt == 1 && cause == 9) {
 185              		.loc 1 213 10
 186 00a4 63060700 		beqz	a4,.L32
 187              		.loc 1 213 29 is_stmt 0 discriminator 1
 188 00a8 13079000 		li	a4,9
 189              	.LVL8:
 190 00ac 6382E72E 		beq	a5,a4,.L36
 191              	.L32:
 214:src/Riscv.cpp ****         console_handler();
 215:src/Riscv.cpp ****     }
 216:src/Riscv.cpp ****     else {
 217:src/Riscv.cpp ****         printString("ERROR! SCAUSE:");
 192              		.loc 1 217 9 is_stmt 1
 193              		.loc 1 217 20 is_stmt 0
 194 00b0 17050000 		lla	a0,.LC0
 194      13050500 
 195 00b8 97000000 		call	_Z11printStringPKc@plt
 195      E7800000 
 196              	.LVL9:
 218:src/Riscv.cpp ****         printInt(scause);
 197              		.loc 1 218 9 is_stmt 1
 198              		.loc 1 218 17 is_stmt 0
 199 00c0 13060000 		li	a2,0
 200 00c4 9305A000 		li	a1,10
 201 00c8 1B850400 		sext.w	a0,s1
 202 00cc 97000000 		call	_Z8printIntiii@plt
 202      E7800000 
 203              	.LVL10:
 219:src/Riscv.cpp ****         printString("\n");
 204              		.loc 1 219 9 is_stmt 1
 205              		.loc 1 219 20 is_stmt 0
 206 00d4 17050000 		lla	a0,.LC1
 206      13050500 
 207 00dc 97000000 		call	_Z11printStringPKc@plt
 207      E7800000 
 208              	.LVL11:
 209              	.L5:
 210              	.LBE41:
 220:src/Riscv.cpp ****     }
 221:src/Riscv.cpp **** }...
 211              		.loc 1 221 1
 212 00e4 83308104 		ld	ra,72(sp)
GAS LISTING /tmp/ccMShde4.s 			page 11


 213              		.cfi_remember_state
 214              		.cfi_restore 1
 215 00e8 03340104 		ld	s0,64(sp)
 216              		.cfi_restore 8
 217              		.cfi_def_cfa 2, 80
 218 00ec 83348103 		ld	s1,56(sp)
 219              		.cfi_restore 9
 220 00f0 03390103 		ld	s2,48(sp)
 221              		.cfi_restore 18
 222              	.LVL12:
 223 00f4 83398102 		ld	s3,40(sp)
 224              		.cfi_restore 19
 225 00f8 13010105 		addi	sp,sp,80
 226              		.cfi_def_cfa_offset 0
 227 00fc 67800000 		jr	ra
 228              	.LVL13:
 229              	.L34:
 230              		.cfi_restore_state
 231              	.LBB64:
 232              	.LBB42:
  53:src/Riscv.cpp ****         uint64 sstatus = r_sstatus();
 233              		.loc 1 53 9 is_stmt 1
 234              	.LBB43:
 235              	.LBB44:
 122:src/../h/Riscv.hpp **** 
 123:src/../h/Riscv.hpp **** inline uint64 Riscv::r_sstatus() {
 124:src/../h/Riscv.hpp ****     uint64 volatile sstatus;
 236              		.loc 2 124 5
 125:src/../h/Riscv.hpp ****     asm volatile("csrr %0, sstatus" : "=r"(sstatus));
 237              		.loc 2 125 5
 238              		.loc 2 125 53 is_stmt 0
 239              	#APP
 240              	# 125 "src/../h/Riscv.hpp" 1
 126              	    return sstatus;
 241              		csrr a5, sstatus
 242              	# 0 "" 2
 243              	.LVL14:
 244              	#NO_APP
 245 0104 2334F4FC 		sd	a5,-56(s0)
 246              		.loc 2 126 5 is_stmt 1
 247              		.loc 2 126 12 is_stmt 0
 248 0108 833484FC 		ld	s1,-56(s0)
 249              	.LVL15:
 250              	.LBE44:
 251              	.LBE43:
  54:src/Riscv.cpp ****         uint64 code;
 252              		.loc 1 54 9 is_stmt 1
  55:src/Riscv.cpp ****         asm volatile("mv %0, a0" : "=r"(code));
 253              		.loc 1 55 9
  55:src/Riscv.cpp ****         asm volatile("mv %0, a0" : "=r"(code));
 254              		.loc 1 55 47 is_stmt 0
 255              	#APP
 256              	# 55 "src/Riscv.cpp" 1
 257              		mv a5, a0
 258              	# 0 "" 2
 259              	.LVL16:
  57:src/Riscv.cpp ****         switch (code) {
GAS LISTING /tmp/ccMShde4.s 			page 12


 260              		.loc 1 57 9 is_stmt 1
 261              	#NO_APP
 262 0110 13072004 		li	a4,66
 263              	.LVL17:
 264 0114 6364F704 		bgtu	a5,a4,.L7
 265 0118 93972700 		slli	a5,a5,2
 266              	.LVL18:
 267 011c 17070000 		lla	a4,.L9
 267      13070700 
 268 0124 B387E700 		add	a5,a5,a4
 269 0128 83A70700 		lw	a5,0(a5)
 270 012c B387E700 		add	a5,a5,a4
 271 0130 67800700 		jr	a5
 272              		.section	.rodata
 273              		.align	2
 274              		.align	2
 275              	.L9:
 276 0000 00000000 		.word	.L7-.L9
 277 0004 00000000 		.word	.L21-.L9
 278 0008 00000000 		.word	.L20-.L9
 279 000c 00000000 		.word	.L19-.L9
 280 0010 00000000 		.word	.L18-.L9
 281 0014 00000000 		.word	.L7-.L9
 282 0018 00000000 		.word	.L7-.L9
 283 001c 00000000 		.word	.L7-.L9
 284 0020 00000000 		.word	.L7-.L9
 285 0024 00000000 		.word	.L7-.L9
 286 0028 00000000 		.word	.L7-.L9
 287 002c 00000000 		.word	.L7-.L9
 288 0030 00000000 		.word	.L7-.L9
 289 0034 00000000 		.word	.L7-.L9
 290 0038 00000000 		.word	.L7-.L9
 291 003c 00000000 		.word	.L7-.L9
 292 0040 00000000 		.word	.L7-.L9
 293 0044 00000000 		.word	.L17-.L9
 294 0048 00000000 		.word	.L16-.L9
 295 004c 00000000 		.word	.L15-.L9
 296 0050 00000000 		.word	.L7-.L9
 297 0054 00000000 		.word	.L7-.L9
 298 0058 00000000 		.word	.L7-.L9
 299 005c 00000000 		.word	.L7-.L9
 300 0060 00000000 		.word	.L7-.L9
 301 0064 00000000 		.word	.L7-.L9
 302 0068 00000000 		.word	.L7-.L9
 303 006c 00000000 		.word	.L7-.L9
 304 0070 00000000 		.word	.L7-.L9
 305 0074 00000000 		.word	.L7-.L9
 306 0078 00000000 		.word	.L7-.L9
 307 007c 00000000 		.word	.L7-.L9
 308 0080 00000000 		.word	.L7-.L9
 309 0084 00000000 		.word	.L14-.L9
 310 0088 00000000 		.word	.L13-.L9
 311 008c 00000000 		.word	.L12-.L9
 312 0090 00000000 		.word	.L11-.L9
 313 0094 00000000 		.word	.L7-.L9
 314 0098 00000000 		.word	.L7-.L9
 315 009c 00000000 		.word	.L7-.L9
GAS LISTING /tmp/ccMShde4.s 			page 13


 316 00a0 00000000 		.word	.L7-.L9
 317 00a4 00000000 		.word	.L7-.L9
 318 00a8 00000000 		.word	.L7-.L9
 319 00ac 00000000 		.word	.L7-.L9
 320 00b0 00000000 		.word	.L7-.L9
 321 00b4 00000000 		.word	.L7-.L9
 322 00b8 00000000 		.word	.L7-.L9
 323 00bc 00000000 		.word	.L7-.L9
 324 00c0 00000000 		.word	.L7-.L9
 325 00c4 00000000 		.word	.L7-.L9
 326 00c8 00000000 		.word	.L7-.L9
 327 00cc 00000000 		.word	.L7-.L9
 328 00d0 00000000 		.word	.L7-.L9
 329 00d4 00000000 		.word	.L7-.L9
 330 00d8 00000000 		.word	.L7-.L9
 331 00dc 00000000 		.word	.L7-.L9
 332 00e0 00000000 		.word	.L7-.L9
 333 00e4 00000000 		.word	.L7-.L9
 334 00e8 00000000 		.word	.L7-.L9
 335 00ec 00000000 		.word	.L7-.L9
 336 00f0 00000000 		.word	.L7-.L9
 337 00f4 00000000 		.word	.L7-.L9
 338 00f8 00000000 		.word	.L7-.L9
 339 00fc 00000000 		.word	.L7-.L9
 340 0100 00000000 		.word	.L7-.L9
 341 0104 00000000 		.word	.L10-.L9
 342 0108 00000000 		.word	.L8-.L9
 343              		.text
 344              	.L21:
 345              	.LBB45:
  58:src/Riscv.cpp ****             case MEM_ALLOC: {
 346              		.loc 1 58 13
  58:src/Riscv.cpp ****             case MEM_ALLOC: {
 347              		.loc 1 58 29
 348              	.LBB46:
  59:src/Riscv.cpp ****                 size_t size;
 349              		.loc 1 59 17
  60:src/Riscv.cpp ****                 asm volatile("ld a1, 11*8(%0)" :: "r"(framePointer));
 350              		.loc 1 60 17
  60:src/Riscv.cpp ****                 asm volatile("ld a1, 11*8(%0)" :: "r"(framePointer));
 351              		.loc 1 60 69 is_stmt 0
 352 0134 97090000 		la	s3,framePointer
 352      83B90900 
 353 013c 83B70900 		ld	a5,0(s3)
 354              	#APP
 355              	# 60 "src/Riscv.cpp" 1
  61:src/Riscv.cpp ****                 asm volatile("mv %0, a1" : "=r"(size));
 356              		ld a1, 11*8(a5)
 357              	# 0 "" 2
 358              		.loc 1 61 17 is_stmt 1
  61:src/Riscv.cpp ****                 asm volatile("mv %0, a1" : "=r"(size));
 359              		.loc 1 61 55 is_stmt 0
 360              	# 61 "src/Riscv.cpp" 1
 361              		mv a0, a1
 362              	# 0 "" 2
 363              	.LVL19:
  62:src/Riscv.cpp ****                 void* ptr = MemoryAllocator::mem_alloc(size);
GAS LISTING /tmp/ccMShde4.s 			page 14


 364              		.loc 1 62 17 is_stmt 1
  62:src/Riscv.cpp ****                 void* ptr = MemoryAllocator::mem_alloc(size);
 365              		.loc 1 62 55 is_stmt 0
 366              	#NO_APP
 367 0148 97000000 		call	_ZN15MemoryAllocator9mem_allocEm@plt
 367      E7800000 
 368              	.LVL20:
  63:src/Riscv.cpp ****                 asm volatile("mv a0, %0" :: "r"(ptr));
 369              		.loc 1 63 17 is_stmt 1
  63:src/Riscv.cpp ****                 asm volatile("mv a0, %0" :: "r"(ptr));
 370              		.loc 1 63 54 is_stmt 0
 371              	#APP
 372              	# 63 "src/Riscv.cpp" 1
  64:src/Riscv.cpp ****                 asm volatile("sd a0, 10*8(%0)" :: "r"(framePointer));
 373              		mv a0, a0
 374              	# 0 "" 2
 375              		.loc 1 64 17 is_stmt 1
  64:src/Riscv.cpp ****                 asm volatile("sd a0, 10*8(%0)" :: "r"(framePointer));
 376              		.loc 1 64 69 is_stmt 0
 377              	#NO_APP
 378 0154 83B70900 		ld	a5,0(s3)
 379              	#APP
 380              	# 64 "src/Riscv.cpp" 1
  65:src/Riscv.cpp ****                 break;
 381              		sd a0, 10*8(a5)
 382              	# 0 "" 2
 383              		.loc 1 65 17 is_stmt 1
 384              	.LVL21:
 385              	#NO_APP
 386              	.L7:
 387              	.LBE46:
 388              	.LBE45:
 206:src/Riscv.cpp ****         sepc += 4;
 389              		.loc 1 206 9
 206:src/Riscv.cpp ****         sepc += 4;
 390              		.loc 1 206 14 is_stmt 0
 391 015c 13094900 		addi	s2,s2,4
 392              	.LVL22:
 207:src/Riscv.cpp ****         w_sepc(sepc);
 393              		.loc 1 207 9 is_stmt 1
 394              	.LBB57:
 395              	.LBB58:
  74:src/../h/Riscv.hpp **** }
 396              		.loc 2 74 5
  74:src/../h/Riscv.hpp **** }
 397              		.loc 2 74 47 is_stmt 0
 398              	#APP
 399              	# 74 "src/../h/Riscv.hpp" 1
 400              		csrw sepc, s2
 401              	# 0 "" 2
 402              	.LVL23:
 403              	#NO_APP
 404              	.LBE58:
 405              	.LBE57:
 208:src/Riscv.cpp ****         w_sstatus(sstatus);
 406              		.loc 1 208 9 is_stmt 1
 407              	.LBB59:
GAS LISTING /tmp/ccMShde4.s 			page 15


 408              	.LBB60:
 127:src/../h/Riscv.hpp **** }
 128:src/../h/Riscv.hpp **** 
 129:src/../h/Riscv.hpp **** inline void Riscv::w_sstatus(uint64 sstatus) {
 130:src/../h/Riscv.hpp ****     asm volatile("csrw sstatus, %0" :: "r"(sstatus));
 409              		.loc 2 130 5
 410              		.loc 2 130 53 is_stmt 0
 411              	#APP
 412              	# 130 "src/../h/Riscv.hpp" 1
 131              	}
 413              		csrw sstatus, s1
 414              	# 0 "" 2
 415              		.loc 2 131 1
 416              	#NO_APP
 417 0168 6FF0DFF7 		j	.L5
 418              	.LVL24:
 419              	.L20:
 420              	.LBE60:
 421              	.LBE59:
 422              	.LBB61:
  67:src/Riscv.cpp ****             case MEM_FREE: {
 423              		.loc 1 67 13 is_stmt 1
  67:src/Riscv.cpp ****             case MEM_FREE: {
 424              		.loc 1 67 28
 425              	.LBB47:
  68:src/Riscv.cpp ****                 void* addr;
 426              		.loc 1 68 17
  69:src/Riscv.cpp ****                 asm volatile("ld a1, 11*8(%0)" :: "r"(framePointer));
 427              		.loc 1 69 17
  69:src/Riscv.cpp ****                 asm volatile("ld a1, 11*8(%0)" :: "r"(framePointer));
 428              		.loc 1 69 69 is_stmt 0
 429 016c 97090000 		la	s3,framePointer
 429      83B90900 
 430 0174 83B70900 		ld	a5,0(s3)
 431              	#APP
 432              	# 69 "src/Riscv.cpp" 1
  70:src/Riscv.cpp ****                 asm volatile("mv %0, a1" : "=r"(addr));
 433              		ld a1, 11*8(a5)
 434              	# 0 "" 2
 435              		.loc 1 70 17 is_stmt 1
  70:src/Riscv.cpp ****                 asm volatile("mv %0, a1" : "=r"(addr));
 436              		.loc 1 70 55 is_stmt 0
 437              	# 70 "src/Riscv.cpp" 1
 438              		mv a0, a1
 439              	# 0 "" 2
 440              	.LVL25:
  71:src/Riscv.cpp ****                 int status = MemoryAllocator::mem_free(addr);
 441              		.loc 1 71 17 is_stmt 1
  71:src/Riscv.cpp ****                 int status = MemoryAllocator::mem_free(addr);
 442              		.loc 1 71 55 is_stmt 0
 443              	#NO_APP
 444 0180 97000000 		call	_ZN15MemoryAllocator8mem_freeEPv@plt
 444      E7800000 
 445              	.LVL26:
  72:src/Riscv.cpp ****                 asm volatile("mv a0, %0" :: "r"(status));
 446              		.loc 1 72 17 is_stmt 1
  72:src/Riscv.cpp ****                 asm volatile("mv a0, %0" :: "r"(status));
GAS LISTING /tmp/ccMShde4.s 			page 16


 447              		.loc 1 72 57 is_stmt 0
 448              	#APP
 449              	# 72 "src/Riscv.cpp" 1
  73:src/Riscv.cpp ****                 asm volatile("sd a0, 10*8(%0)" :: "r"(framePointer));
 450              		mv a0, a0
 451              	# 0 "" 2
 452              		.loc 1 73 17 is_stmt 1
  73:src/Riscv.cpp ****                 asm volatile("sd a0, 10*8(%0)" :: "r"(framePointer));
 453              		.loc 1 73 69 is_stmt 0
 454              	#NO_APP
 455 018c 83B70900 		ld	a5,0(s3)
 456              	#APP
 457              	# 73 "src/Riscv.cpp" 1
  74:src/Riscv.cpp ****                 break;
 458              		sd a0, 10*8(a5)
 459              	# 0 "" 2
 460              		.loc 1 74 17 is_stmt 1
 461              	#NO_APP
 462 0194 6FF09FFC 		j	.L7
 463              	.LVL27:
 464              	.L19:
 465              	.LBE47:
  76:src/Riscv.cpp ****             case MEM_GET_FREE_SPACE: {
 466              		.loc 1 76 13
  76:src/Riscv.cpp ****             case MEM_GET_FREE_SPACE: {
 467              		.loc 1 76 38
 468              	.LBB48:
  77:src/Riscv.cpp ****                 size_t freeSpace = MemoryAllocator::mem_get_free_space();
 469              		.loc 1 77 17
  77:src/Riscv.cpp ****                 size_t freeSpace = MemoryAllocator::mem_get_free_space();
 470              		.loc 1 77 71 is_stmt 0
 471 0198 97000000 		call	_ZN15MemoryAllocator18mem_get_free_spaceEv@plt
 471      E7800000 
 472              	.LVL28:
  78:src/Riscv.cpp ****                 asm volatile("mv a0, %0" :: "r"(freeSpace));
 473              		.loc 1 78 17 is_stmt 1
  78:src/Riscv.cpp ****                 asm volatile("mv a0, %0" :: "r"(freeSpace));
 474              		.loc 1 78 60 is_stmt 0
 475              	#APP
 476              	# 78 "src/Riscv.cpp" 1
  79:src/Riscv.cpp ****                 asm volatile("sd a0, 10*8(%0)" :: "r"(framePointer));
 477              		mv a0, a0
 478              	# 0 "" 2
 479              		.loc 1 79 17 is_stmt 1
  79:src/Riscv.cpp ****                 asm volatile("sd a0, 10*8(%0)" :: "r"(framePointer));
 480              		.loc 1 79 69 is_stmt 0
 481              	#NO_APP
 482 01a4 97070000 		la	a5,framePointer
 482      83B70700 
 483 01ac 83B70700 		ld	a5,0(a5)
 484              	#APP
 485              	# 79 "src/Riscv.cpp" 1
  80:src/Riscv.cpp ****                 break;
 486              		sd a0, 10*8(a5)
 487              	# 0 "" 2
 488              		.loc 1 80 17 is_stmt 1
 489              	#NO_APP
GAS LISTING /tmp/ccMShde4.s 			page 17


 490 01b4 6FF09FFA 		j	.L7
 491              	.LVL29:
 492              	.L18:
 493              	.LBE48:
  82:src/Riscv.cpp ****             case MEM_GET_LARGEST_FREE_BLOCK: {
 494              		.loc 1 82 13
  82:src/Riscv.cpp ****             case MEM_GET_LARGEST_FREE_BLOCK: {
 495              		.loc 1 82 46
 496              	.LBB49:
  83:src/Riscv.cpp ****                 size_t largest = MemoryAllocator::mem_get_largest_free_block();
 497              		.loc 1 83 17
  83:src/Riscv.cpp ****                 size_t largest = MemoryAllocator::mem_get_largest_free_block();
 498              		.loc 1 83 77 is_stmt 0
 499 01b8 97000000 		call	_ZN15MemoryAllocator26mem_get_largest_free_blockEv@plt
 499      E7800000 
 500              	.LVL30:
  84:src/Riscv.cpp ****                 asm volatile("mv a0, %0" :: "r"(largest));
 501              		.loc 1 84 17 is_stmt 1
  84:src/Riscv.cpp ****                 asm volatile("mv a0, %0" :: "r"(largest));
 502              		.loc 1 84 58 is_stmt 0
 503              	#APP
 504              	# 84 "src/Riscv.cpp" 1
  85:src/Riscv.cpp ****                 asm volatile("sd a0, 10*8(%0)" :: "r"(framePointer));
 505              		mv a0, a0
 506              	# 0 "" 2
 507              		.loc 1 85 17 is_stmt 1
  85:src/Riscv.cpp ****                 asm volatile("sd a0, 10*8(%0)" :: "r"(framePointer));
 508              		.loc 1 85 69 is_stmt 0
 509              	#NO_APP
 510 01c4 97070000 		la	a5,framePointer
 510      83B70700 
 511 01cc 83B70700 		ld	a5,0(a5)
 512              	#APP
 513              	# 85 "src/Riscv.cpp" 1
  86:src/Riscv.cpp ****                 break;
 514              		sd a0, 10*8(a5)
 515              	# 0 "" 2
 516              		.loc 1 86 17 is_stmt 1
 517              	#NO_APP
 518 01d4 6FF09FF8 		j	.L7
 519              	.LVL31:
 520              	.L17:
 521              	.LBE49:
  88:src/Riscv.cpp ****             case THREAD_CREATE: {
 522              		.loc 1 88 13
  88:src/Riscv.cpp ****             case THREAD_CREATE: {
 523              		.loc 1 88 33
 524              	.LBB50:
  89:src/Riscv.cpp ****                 KThread** handle = nullptr;
 525              		.loc 1 89 17
  90:src/Riscv.cpp ****                 void (*start_routine)(void*) = nullptr;
 526              		.loc 1 90 17
  91:src/Riscv.cpp ****                 void* args = nullptr;
 527              		.loc 1 91 17
  92:src/Riscv.cpp ****                 void* stack = nullptr;
 528              		.loc 1 92 17
  94:src/Riscv.cpp ****                 asm volatile("ld a1, 11*8(%0)" :: "r"(framePointer));
GAS LISTING /tmp/ccMShde4.s 			page 18


 529              		.loc 1 94 17
  94:src/Riscv.cpp ****                 asm volatile("ld a1, 11*8(%0)" :: "r"(framePointer));
 530              		.loc 1 94 69 is_stmt 0
 531 01d8 97070000 		la	a5,framePointer
 531      83B70700 
 532 01e0 83B70700 		ld	a5,0(a5)
 533              	#APP
 534              	# 94 "src/Riscv.cpp" 1
  95:src/Riscv.cpp ****                 asm volatile("mv %0, a1" : "=r"(handle));
 535              		ld a1, 11*8(a5)
 536              	# 0 "" 2
 537              		.loc 1 95 17 is_stmt 1
  95:src/Riscv.cpp ****                 asm volatile("mv %0, a1" : "=r"(handle));
 538              		.loc 1 95 57 is_stmt 0
 539              	# 95 "src/Riscv.cpp" 1
 540              		mv s3, a1
 541              	# 0 "" 2
 542              	.LVL32:
  96:src/Riscv.cpp ****                 asm volatile("ld a2, 12*8(%0)" :: "r"(framePointer));
 543              		.loc 1 96 17 is_stmt 1
  96:src/Riscv.cpp ****                 asm volatile("ld a2, 12*8(%0)" :: "r"(framePointer));
 544              		.loc 1 96 69 is_stmt 0
 545              	# 96 "src/Riscv.cpp" 1
  97:src/Riscv.cpp ****                 asm volatile("mv %0, a2" : "=r"(start_routine));
 546              		ld a2, 12*8(a5)
 547              	# 0 "" 2
 548              		.loc 1 97 17 is_stmt 1
  97:src/Riscv.cpp ****                 asm volatile("mv %0, a2" : "=r"(start_routine));
 549              		.loc 1 97 64 is_stmt 0
 550              	# 97 "src/Riscv.cpp" 1
 551              		mv a0, a2
 552              	# 0 "" 2
 553              	.LVL33:
  98:src/Riscv.cpp ****                 asm volatile("ld a3, 13*8(%0)" :: "r"(framePointer));
 554              		.loc 1 98 17 is_stmt 1
  98:src/Riscv.cpp ****                 asm volatile("ld a3, 13*8(%0)" :: "r"(framePointer));
 555              		.loc 1 98 69 is_stmt 0
 556              	# 98 "src/Riscv.cpp" 1
  99:src/Riscv.cpp ****                 asm volatile("mv %0, a3" : "=r"(args));
 557              		ld a3, 13*8(a5)
 558              	# 0 "" 2
 559              		.loc 1 99 17 is_stmt 1
  99:src/Riscv.cpp ****                 asm volatile("mv %0, a3" : "=r"(args));
 560              		.loc 1 99 55 is_stmt 0
 561              	# 99 "src/Riscv.cpp" 1
 562              		mv a1, a3
 563              	# 0 "" 2
 564              	.LVL34:
 100:src/Riscv.cpp ****                 asm volatile("ld a4, 14*8(%0)" :: "r"(framePointer));
 565              		.loc 1 100 17 is_stmt 1
 100:src/Riscv.cpp ****                 asm volatile("ld a4, 14*8(%0)" :: "r"(framePointer));
 566              		.loc 1 100 69 is_stmt 0
 567              	# 100 "src/Riscv.cpp" 1
 101:src/Riscv.cpp ****                 asm volatile("mv %0, a4" : "=r"(stack));
 568              		ld a4, 14*8(a5)
 569              	# 0 "" 2
 570              		.loc 1 101 17 is_stmt 1
GAS LISTING /tmp/ccMShde4.s 			page 19


 101:src/Riscv.cpp ****                 asm volatile("mv %0, a4" : "=r"(stack));
 571              		.loc 1 101 56 is_stmt 0
 572              	# 101 "src/Riscv.cpp" 1
 573              		mv a2, a4
 574              	# 0 "" 2
 575              	.LVL35:
 103:src/Riscv.cpp ****                 *handle = KThread::createThread(start_routine, args, stack);
 576              		.loc 1 103 17 is_stmt 1
 103:src/Riscv.cpp ****                 *handle = KThread::createThread(start_routine, args, stack);
 577              		.loc 1 103 48 is_stmt 0
 578              	#NO_APP
 579 0204 97000000 		call	_ZN7KThread12createThreadEPFvPvES0_S0_@plt
 579      E7800000 
 580              	.LVL36:
 103:src/Riscv.cpp ****                 *handle = KThread::createThread(start_routine, args, stack);
 581              		.loc 1 103 25
 582 020c 23B0A900 		sd	a0,0(s3)
 105:src/Riscv.cpp ****                 if (*handle != nullptr) {
 583              		.loc 1 105 17 is_stmt 1
 584 0210 63020502 		beqz	a0,.L22
 106:src/Riscv.cpp ****                     (*handle)->start();
 585              		.loc 1 106 21
 106:src/Riscv.cpp ****                     (*handle)->start();
 586              		.loc 1 106 37 is_stmt 0
 587 0214 97000000 		call	_ZN7KThread5startEv@plt
 587      E7800000 
 588              	.LVL37:
 107:src/Riscv.cpp ****                     asm volatile("li a0, 0");
 589              		.loc 1 107 21 is_stmt 1
 107:src/Riscv.cpp ****                     asm volatile("li a0, 0");
 590              		.loc 1 107 45 is_stmt 0
 591              	#APP
 592              	# 107 "src/Riscv.cpp" 1
 593              		li a0, 0
 594              	# 0 "" 2
 595              	#NO_APP
 596              	.L23:
 111:src/Riscv.cpp ****                 asm volatile("sd a0, 10*8(%0)" :: "r"(framePointer));
 597              		.loc 1 111 17 is_stmt 1
 111:src/Riscv.cpp ****                 asm volatile("sd a0, 10*8(%0)" :: "r"(framePointer));
 598              		.loc 1 111 69 is_stmt 0
 599 0220 97070000 		la	a5,framePointer
 599      83B70700 
 600 0228 83B70700 		ld	a5,0(a5)
 601              	#APP
 602              	# 111 "src/Riscv.cpp" 1
 113:src/Riscv.cpp ****                 break;
 603              		sd a0, 10*8(a5)
 604              	# 0 "" 2
 605              		.loc 1 113 17 is_stmt 1
 606              	#NO_APP
 607 0230 6FF0DFF2 		j	.L7
 608              	.L22:
 109:src/Riscv.cpp ****                 else asm volatile("li a0, -1");
 609              		.loc 1 109 22
 109:src/Riscv.cpp ****                 else asm volatile("li a0, -1");
 610              		.loc 1 109 47 is_stmt 0
GAS LISTING /tmp/ccMShde4.s 			page 20


 611              	#APP
 612              	# 109 "src/Riscv.cpp" 1
 613              		li a0, -1
 614              	# 0 "" 2
 615              	#NO_APP
 616 0238 6FF09FFE 		j	.L23
 617              	.LVL38:
 618              	.L16:
 619              	.LBE50:
 115:src/Riscv.cpp ****             case THREAD_EXIT: {
 620              		.loc 1 115 13 is_stmt 1
 115:src/Riscv.cpp ****             case THREAD_EXIT: {
 621              		.loc 1 115 31
 116:src/Riscv.cpp ****                 if (KThread::running) {
 622              		.loc 1 116 17
 116:src/Riscv.cpp ****                 if (KThread::running) {
 623              		.loc 1 116 37 is_stmt 0
 624 023c 97070000 		la	a5,_ZN7KThread7runningE
 624      83B70700 
 625 0244 03B50700 		ld	a0,0(a5)
 116:src/Riscv.cpp ****                 if (KThread::running) {
 626              		.loc 1 116 17
 627 0248 63060500 		beqz	a0,.L24
 117:src/Riscv.cpp ****                     KThread::running->exit();
 628              		.loc 1 117 21 is_stmt 1
 117:src/Riscv.cpp ****                     KThread::running->exit();
 629              		.loc 1 117 43 is_stmt 0
 630 024c 97000000 		call	_ZN7KThread4exitEv@plt
 630      E7800000 
 631              	.LVL39:
 632              	.L24:
 119:src/Riscv.cpp ****                 KThread::dispatch();
 633              		.loc 1 119 17 is_stmt 1
 119:src/Riscv.cpp ****                 KThread::dispatch();
 634              		.loc 1 119 34 is_stmt 0
 635 0254 97000000 		call	_ZN7KThread8dispatchEv@plt
 635      E7800000 
 636              	.LVL40:
 121:src/Riscv.cpp ****                 asm volatile("li a0, 0");
 637              		.loc 1 121 17 is_stmt 1
 121:src/Riscv.cpp ****                 asm volatile("li a0, 0");
 638              		.loc 1 121 41 is_stmt 0
 639              	#APP
 640              	# 121 "src/Riscv.cpp" 1
 123:src/Riscv.cpp ****                 break;
 641              		li a0, 0
 642              	# 0 "" 2
 643              		.loc 1 123 17 is_stmt 1
 644              	#NO_APP
 645 0260 6FF0DFEF 		j	.L7
 646              	.LVL41:
 647              	.L15:
 125:src/Riscv.cpp ****             case THREAD_DISPATCH: {
 648              		.loc 1 125 13
 125:src/Riscv.cpp ****             case THREAD_DISPATCH: {
 649              		.loc 1 125 35
 126:src/Riscv.cpp ****                 KThread::dispatch();
GAS LISTING /tmp/ccMShde4.s 			page 21


 650              		.loc 1 126 17
 126:src/Riscv.cpp ****                 KThread::dispatch();
 651              		.loc 1 126 34 is_stmt 0
 652 0264 97000000 		call	_ZN7KThread8dispatchEv@plt
 652      E7800000 
 653              	.LVL42:
 128:src/Riscv.cpp ****                 break;
 654              		.loc 1 128 17 is_stmt 1
 655 026c 6FF01FEF 		j	.L7
 656              	.LVL43:
 657              	.L14:
 130:src/Riscv.cpp ****             case SEM_OPEN: {
 658              		.loc 1 130 13
 130:src/Riscv.cpp ****             case SEM_OPEN: {
 659              		.loc 1 130 28
 660              	.LBB51:
 131:src/Riscv.cpp ****                 KSemaphore** handle = nullptr;
 661              		.loc 1 131 17
 132:src/Riscv.cpp ****                 unsigned init;
 662              		.loc 1 132 17
 134:src/Riscv.cpp ****                 asm volatile("ld a1, 11*8(%0)" :: "r"(framePointer));
 663              		.loc 1 134 17
 134:src/Riscv.cpp ****                 asm volatile("ld a1, 11*8(%0)" :: "r"(framePointer));
 664              		.loc 1 134 69 is_stmt 0
 665 0270 97070000 		la	a5,framePointer
 665      83B70700 
 666 0278 83B70700 		ld	a5,0(a5)
 667              	#APP
 668              	# 134 "src/Riscv.cpp" 1
 135:src/Riscv.cpp ****                 asm volatile("mv %0, a1" : "=r"(handle));
 669              		ld a1, 11*8(a5)
 670              	# 0 "" 2
 671              		.loc 1 135 17 is_stmt 1
 135:src/Riscv.cpp ****                 asm volatile("mv %0, a1" : "=r"(handle));
 672              		.loc 1 135 57 is_stmt 0
 673              	# 135 "src/Riscv.cpp" 1
 674              		mv s3, a1
 675              	# 0 "" 2
 676              	.LVL44:
 136:src/Riscv.cpp ****                 asm volatile("ld a2, 12*8(%0)" :: "r"(framePointer));
 677              		.loc 1 136 17 is_stmt 1
 136:src/Riscv.cpp ****                 asm volatile("ld a2, 12*8(%0)" :: "r"(framePointer));
 678              		.loc 1 136 69 is_stmt 0
 679              	# 136 "src/Riscv.cpp" 1
 137:src/Riscv.cpp ****                 asm volatile("mv %0, a2" : "=r"(init));
 680              		ld a2, 12*8(a5)
 681              	# 0 "" 2
 682              		.loc 1 137 17 is_stmt 1
 137:src/Riscv.cpp ****                 asm volatile("mv %0, a2" : "=r"(init));
 683              		.loc 1 137 55 is_stmt 0
 684              	# 137 "src/Riscv.cpp" 1
 685              		mv a0, a2
 686              	# 0 "" 2
 687              	.LVL45:
 139:src/Riscv.cpp ****                 *handle = KSemaphore::createSemaphore(init);
 688              		.loc 1 139 17 is_stmt 1
 139:src/Riscv.cpp ****                 *handle = KSemaphore::createSemaphore(init);
GAS LISTING /tmp/ccMShde4.s 			page 22


 689              		.loc 1 139 54 is_stmt 0
 690              	#NO_APP
 691 028c 13150502 		slli	a0,a0,32
 692              	.LVL46:
 693 0290 13550502 		srli	a0,a0,32
 694 0294 97000000 		call	_ZN10KSemaphore15createSemaphoreEm@plt
 694      E7800000 
 695              	.LVL47:
 139:src/Riscv.cpp ****                 *handle = KSemaphore::createSemaphore(init);
 696              		.loc 1 139 25
 697 029c 23B0A900 		sd	a0,0(s3)
 141:src/Riscv.cpp ****                 if (*handle != nullptr) asm volatile("li a0, 0");
 698              		.loc 1 141 17 is_stmt 1
 699 02a0 630E0500 		beqz	a0,.L25
 141:src/Riscv.cpp ****                 if (*handle != nullptr) asm volatile("li a0, 0");
 700              		.loc 1 141 41 discriminator 1
 141:src/Riscv.cpp ****                 if (*handle != nullptr) asm volatile("li a0, 0");
 701              		.loc 1 141 65 is_stmt 0 discriminator 1
 702              	#APP
 703              	# 141 "src/Riscv.cpp" 1
 704              		li a0, 0
 705              	# 0 "" 2
 706              	#NO_APP
 707              	.L26:
 144:src/Riscv.cpp ****                 asm volatile("sd a0, 10*8(%0)" :: "r"(framePointer));
 708              		.loc 1 144 17 is_stmt 1
 144:src/Riscv.cpp ****                 asm volatile("sd a0, 10*8(%0)" :: "r"(framePointer));
 709              		.loc 1 144 69 is_stmt 0
 710 02a8 97070000 		la	a5,framePointer
 710      83B70700 
 711 02b0 83B70700 		ld	a5,0(a5)
 712              	#APP
 713              	# 144 "src/Riscv.cpp" 1
 146:src/Riscv.cpp ****                 break;
 714              		sd a0, 10*8(a5)
 715              	# 0 "" 2
 716              		.loc 1 146 17 is_stmt 1
 717              	#NO_APP
 718 02b8 6FF05FEA 		j	.L7
 719              	.L25:
 142:src/Riscv.cpp ****                 else asm volatile("li a0, -1");
 720              		.loc 1 142 22
 142:src/Riscv.cpp ****                 else asm volatile("li a0, -1");
 721              		.loc 1 142 47 is_stmt 0
 722              	#APP
 723              	# 142 "src/Riscv.cpp" 1
 724              		li a0, -1
 725              	# 0 "" 2
 726              	#NO_APP
 727 02c0 6FF09FFE 		j	.L26
 728              	.LVL48:
 729              	.L13:
 730              	.LBE51:
 148:src/Riscv.cpp ****             case SEM_CLOSE: {
 731              		.loc 1 148 13 is_stmt 1
 148:src/Riscv.cpp ****             case SEM_CLOSE: {
 732              		.loc 1 148 29
GAS LISTING /tmp/ccMShde4.s 			page 23


 733              	.LBB52:
 149:src/Riscv.cpp ****                 KSemaphore* handle = nullptr;
 734              		.loc 1 149 17
 151:src/Riscv.cpp ****                 asm volatile("ld a1, 11*8(%0)" :: "r"(framePointer));
 735              		.loc 1 151 17
 151:src/Riscv.cpp ****                 asm volatile("ld a1, 11*8(%0)" :: "r"(framePointer));
 736              		.loc 1 151 69 is_stmt 0
 737 02c4 97070000 		la	a5,framePointer
 737      83B70700 
 738 02cc 83B70700 		ld	a5,0(a5)
 739              	#APP
 740              	# 151 "src/Riscv.cpp" 1
 152:src/Riscv.cpp ****                 asm volatile("mv %0, a1" : "=r"(handle));
 741              		ld a1, 11*8(a5)
 742              	# 0 "" 2
 743              		.loc 1 152 17 is_stmt 1
 152:src/Riscv.cpp ****                 asm volatile("mv %0, a1" : "=r"(handle));
 744              		.loc 1 152 57 is_stmt 0
 745              	# 152 "src/Riscv.cpp" 1
 746              		mv a0, a1
 747              	# 0 "" 2
 748              	.LVL49:
 154:src/Riscv.cpp ****                 if (handle) {
 749              		.loc 1 154 17 is_stmt 1
 750              	#NO_APP
 751 02d8 630A0500 		beqz	a0,.L27
 155:src/Riscv.cpp ****                     handle->close();
 752              		.loc 1 155 21
 155:src/Riscv.cpp ****                     handle->close();
 753              		.loc 1 155 34 is_stmt 0
 754 02dc 97000000 		call	_ZN10KSemaphore5closeEv@plt
 754      E7800000 
 755              	.LVL50:
 156:src/Riscv.cpp ****                     asm volatile("li a0, 0");
 756              		.loc 1 156 21 is_stmt 1
 156:src/Riscv.cpp ****                     asm volatile("li a0, 0");
 757              		.loc 1 156 45 is_stmt 0
 758              	#APP
 759              	# 156 "src/Riscv.cpp" 1
 760              		li a0, 0
 761              	# 0 "" 2
 762              	#NO_APP
 763 02e8 6FF05FE7 		j	.L7
 764              	.LVL51:
 765              	.L27:
 158:src/Riscv.cpp ****                 else asm volatile("li a0, -1");
 766              		.loc 1 158 22 is_stmt 1
 158:src/Riscv.cpp ****                 else asm volatile("li a0, -1");
 767              		.loc 1 158 47 is_stmt 0
 768              	#APP
 769              	# 158 "src/Riscv.cpp" 1
 770              		li a0, -1
 771              	# 0 "" 2
 772              	#NO_APP
 773 02f0 6FF0DFE6 		j	.L7
 774              	.LVL52:
 775              	.L12:
GAS LISTING /tmp/ccMShde4.s 			page 24


 776              	.LBE52:
 162:src/Riscv.cpp ****             case SEM_WAIT: {
 777              		.loc 1 162 13 is_stmt 1
 162:src/Riscv.cpp ****             case SEM_WAIT: {
 778              		.loc 1 162 28
 779              	.LBB53:
 163:src/Riscv.cpp ****                 KSemaphore* handle = nullptr;
 780              		.loc 1 163 17
 165:src/Riscv.cpp ****                 asm volatile("ld a1, 11*8(%0)" :: "r"(framePointer));
 781              		.loc 1 165 17
 165:src/Riscv.cpp ****                 asm volatile("ld a1, 11*8(%0)" :: "r"(framePointer));
 782              		.loc 1 165 69 is_stmt 0
 783 02f4 97070000 		la	a5,framePointer
 783      83B70700 
 784 02fc 83B70700 		ld	a5,0(a5)
 785              	#APP
 786              	# 165 "src/Riscv.cpp" 1
 166:src/Riscv.cpp ****                 asm volatile("mv %0, a1" : "=r"(handle));
 787              		ld a1, 11*8(a5)
 788              	# 0 "" 2
 789              		.loc 1 166 17 is_stmt 1
 166:src/Riscv.cpp ****                 asm volatile("mv %0, a1" : "=r"(handle));
 790              		.loc 1 166 57 is_stmt 0
 791              	# 166 "src/Riscv.cpp" 1
 792              		mv a0, a1
 793              	# 0 "" 2
 794              	.LVL53:
 168:src/Riscv.cpp ****                 if (handle) {
 795              		.loc 1 168 17 is_stmt 1
 796              	#NO_APP
 797 0308 630A0500 		beqz	a0,.L28
 169:src/Riscv.cpp ****                     handle->wait();
 798              		.loc 1 169 21
 169:src/Riscv.cpp ****                     handle->wait();
 799              		.loc 1 169 33 is_stmt 0
 800 030c 97000000 		call	_ZN10KSemaphore4waitEv@plt
 800      E7800000 
 801              	.LVL54:
 170:src/Riscv.cpp ****                     asm volatile("li a0, 0");
 802              		.loc 1 170 21 is_stmt 1
 170:src/Riscv.cpp ****                     asm volatile("li a0, 0");
 803              		.loc 1 170 45 is_stmt 0
 804              	#APP
 805              	# 170 "src/Riscv.cpp" 1
 806              		li a0, 0
 807              	# 0 "" 2
 808              	#NO_APP
 809 0318 6FF05FE4 		j	.L7
 810              	.LVL55:
 811              	.L28:
 172:src/Riscv.cpp ****                 else asm volatile("li a0, -1");
 812              		.loc 1 172 22 is_stmt 1
 172:src/Riscv.cpp ****                 else asm volatile("li a0, -1");
 813              		.loc 1 172 47 is_stmt 0
 814              	#APP
 815              	# 172 "src/Riscv.cpp" 1
 816              		li a0, -1
GAS LISTING /tmp/ccMShde4.s 			page 25


 817              	# 0 "" 2
 818              	#NO_APP
 819 0320 6FF0DFE3 		j	.L7
 820              	.LVL56:
 821              	.L11:
 822              	.LBE53:
 176:src/Riscv.cpp ****             case SEM_SIGNAL: {
 823              		.loc 1 176 13 is_stmt 1
 176:src/Riscv.cpp ****             case SEM_SIGNAL: {
 824              		.loc 1 176 30
 825              	.LBB54:
 177:src/Riscv.cpp ****                 KSemaphore* handle = nullptr;
 826              		.loc 1 177 17
 179:src/Riscv.cpp ****                 asm volatile("ld a1, 11*8(%0)" :: "r"(framePointer));
 827              		.loc 1 179 17
 179:src/Riscv.cpp ****                 asm volatile("ld a1, 11*8(%0)" :: "r"(framePointer));
 828              		.loc 1 179 69 is_stmt 0
 829 0324 97070000 		la	a5,framePointer
 829      83B70700 
 830 032c 83B70700 		ld	a5,0(a5)
 831              	#APP
 832              	# 179 "src/Riscv.cpp" 1
 180:src/Riscv.cpp ****                 asm volatile("mv %0, a1" : "=r"(handle));
 833              		ld a1, 11*8(a5)
 834              	# 0 "" 2
 835              		.loc 1 180 17 is_stmt 1
 180:src/Riscv.cpp ****                 asm volatile("mv %0, a1" : "=r"(handle));
 836              		.loc 1 180 57 is_stmt 0
 837              	# 180 "src/Riscv.cpp" 1
 838              		mv a0, a1
 839              	# 0 "" 2
 840              	.LVL57:
 182:src/Riscv.cpp ****                 if (handle) {
 841              		.loc 1 182 17 is_stmt 1
 842              	#NO_APP
 843 0338 630A0500 		beqz	a0,.L29
 183:src/Riscv.cpp ****                     handle->signal();
 844              		.loc 1 183 21
 183:src/Riscv.cpp ****                     handle->signal();
 845              		.loc 1 183 35 is_stmt 0
 846 033c 97000000 		call	_ZN10KSemaphore6signalEv@plt
 846      E7800000 
 847              	.LVL58:
 184:src/Riscv.cpp ****                     asm volatile("li a0, 0");
 848              		.loc 1 184 21 is_stmt 1
 184:src/Riscv.cpp ****                     asm volatile("li a0, 0");
 849              		.loc 1 184 45 is_stmt 0
 850              	#APP
 851              	# 184 "src/Riscv.cpp" 1
 852              		li a0, 0
 853              	# 0 "" 2
 854              	#NO_APP
 855 0348 6FF05FE1 		j	.L7
 856              	.LVL59:
 857              	.L29:
 186:src/Riscv.cpp ****                 else asm volatile("li a0, -1");
 858              		.loc 1 186 22 is_stmt 1
GAS LISTING /tmp/ccMShde4.s 			page 26


 186:src/Riscv.cpp ****                 else asm volatile("li a0, -1");
 859              		.loc 1 186 47 is_stmt 0
 860              	#APP
 861              	# 186 "src/Riscv.cpp" 1
 862              		li a0, -1
 863              	# 0 "" 2
 864              	#NO_APP
 865 0350 6FF0DFE0 		j	.L7
 866              	.LVL60:
 867              	.L10:
 868              	.LBE54:
 190:src/Riscv.cpp ****             case GETC: {
 869              		.loc 1 190 13 is_stmt 1
 190:src/Riscv.cpp ****             case GETC: {
 870              		.loc 1 190 24
 871              	.LBB55:
 191:src/Riscv.cpp ****                 int c = __getc();
 872              		.loc 1 191 17
 191:src/Riscv.cpp ****                 int c = __getc();
 873              		.loc 1 191 31 is_stmt 0
 874 0354 97000000 		call	__getc@plt
 874      E7800000 
 875              	.LVL61:
 192:src/Riscv.cpp ****                 asm volatile("mv t0, %0" : : "r"(c));
 876              		.loc 1 192 17 is_stmt 1
 192:src/Riscv.cpp ****                 asm volatile("mv t0, %0" : : "r"(c));
 877              		.loc 1 192 53 is_stmt 0
 878              	#APP
 879              	# 192 "src/Riscv.cpp" 1
 193:src/Riscv.cpp ****                 asm volatile("sw t0, 80(x8)");
 880              		mv t0, a0
 881              	# 0 "" 2
 882              		.loc 1 193 17 is_stmt 1
 193:src/Riscv.cpp ****                 asm volatile("sw t0, 80(x8)");
 883              		.loc 1 193 46 is_stmt 0
 884              	# 193 "src/Riscv.cpp" 1
 194:src/Riscv.cpp ****                 break;
 885              		sw t0, 80(x8)
 886              	# 0 "" 2
 887              		.loc 1 194 17 is_stmt 1
 888              	#NO_APP
 889 0364 6FF09FDF 		j	.L7
 890              	.LVL62:
 891              	.L8:
 892              	.LBE55:
 196:src/Riscv.cpp ****             case PUTC: {
 893              		.loc 1 196 13
 196:src/Riscv.cpp ****             case PUTC: {
 894              		.loc 1 196 24
 895              	.LBB56:
 197:src/Riscv.cpp ****                 char c;
 896              		.loc 1 197 17
 198:src/Riscv.cpp ****                 asm volatile("mv %0, a1" : "=r" (c));
 897              		.loc 1 198 17
 198:src/Riscv.cpp ****                 asm volatile("mv %0, a1" : "=r" (c));
 898              		.loc 1 198 53 is_stmt 0
 899              	#APP
GAS LISTING /tmp/ccMShde4.s 			page 27


 900              	# 198 "src/Riscv.cpp" 1
 901              		mv a0, a1
 902              	# 0 "" 2
 903              	.LVL63:
 199:src/Riscv.cpp ****                 __putc(c);
 904              		.loc 1 199 17 is_stmt 1
 199:src/Riscv.cpp ****                 __putc(c);
 905              		.loc 1 199 23 is_stmt 0
 906              	#NO_APP
 907 036c 1375F50F 		andi	a0,a0,0xff
 908 0370 97000000 		call	__putc@plt
 908      E7800000 
 909              	.LVL64:
 200:src/Riscv.cpp ****                 break;
 910              		.loc 1 200 17 is_stmt 1
 911 0378 6FF05FDE 		j	.L7
 912              	.LVL65:
 913              	.L35:
 914              	.LBE56:
 915              	.LBE61:
 916              	.LBE42:
 210:src/Riscv.cpp ****     else if (interrupt == 1 && cause == 1) {
 917              		.loc 1 210 29 is_stmt 0 discriminator 1
 918 037c 93061000 		li	a3,1
 919 0380 E392D7D2 		bne	a5,a3,.L31
 211:src/Riscv.cpp ****         mc_sip(SIP_SSIP);
 920              		.loc 1 211 9 is_stmt 1
 921              	.LVL66:
 922              	.LBB62:
 923              	.LBB63:
 102:src/../h/Riscv.hpp **** }
 924              		.loc 2 102 5
 102:src/../h/Riscv.hpp **** }
 925              		.loc 2 102 46 is_stmt 0
 926 0384 93072000 		li	a5,2
 927              	.LVL67:
 928              	#APP
 929              	# 102 "src/../h/Riscv.hpp" 1
 103:src/../h/Riscv.hpp **** 
 930              		csrc sip, a5
 931              	# 0 "" 2
 932              		.loc 2 103 1
 933              	#NO_APP
 934 038c 6FF09FD5 		j	.L5
 935              	.LVL68:
 936              	.L36:
 937              	.LBE63:
 938              	.LBE62:
 214:src/Riscv.cpp ****         console_handler();
 939              		.loc 1 214 9 is_stmt 1
 214:src/Riscv.cpp ****         console_handler();
 940              		.loc 1 214 24 is_stmt 0
 941 0390 97000000 		call	console_handler@plt
 941      E7800000 
 942              	.LVL69:
 943 0398 6FF0DFD4 		j	.L5
 944              	.LBE64:
GAS LISTING /tmp/ccMShde4.s 			page 28


 945              		.cfi_endproc
 946              	.LFE31:
 948              	.Letext0:
 949              		.file 3 "src/../h/../lib/hw.h"
 950              		.file 4 "src/../h/MemoryAllocator.hpp"
 951              		.file 5 "src/../h/KThread.hpp"
 952              		.file 6 "src/../h/KSemaphore.hpp"
 953              		.file 7 "src/../lib/console.h"
 954              		.file 8 "src/../test/printing.hpp"
GAS LISTING /tmp/ccMShde4.s 			page 29


DEFINED SYMBOLS
                            *ABS*:0000000000000000 Riscv.cpp
     /tmp/ccMShde4.s:9      .text:0000000000000000 _ZN5Riscv10popSppSpieEv
     /tmp/ccMShde4.s:13     .text:0000000000000000 .L0 
     /tmp/ccMShde4.s:14     .text:0000000000000000 .L0 
     /tmp/ccMShde4.s:15     .text:0000000000000004 .L0 
     /tmp/ccMShde4.s:17     .text:0000000000000008 .L0 
     /tmp/ccMShde4.s:19     .text:000000000000000c .L0 
     /tmp/ccMShde4.s:25     .text:000000000000000c .L0 
     /tmp/ccMShde4.s:26     .text:000000000000000c .L0 
     /tmp/ccMShde4.s:27     .text:000000000000000c .L0 
     /tmp/ccMShde4.s:37     .text:0000000000000014 .L0 
       src/Riscv.cpp:35     .text:0000000000000014 .L0 
     /tmp/ccMShde4.s:43     .text:0000000000000018 .L0 
       src/Riscv.cpp:36     .text:0000000000000018 .L0 
     /tmp/ccMShde4.s:49     .text:000000000000001c .L0 
     /tmp/ccMShde4.s:50     .text:0000000000000020 .L0 
     /tmp/ccMShde4.s:51     .text:0000000000000020 .L0 
     /tmp/ccMShde4.s:53     .text:0000000000000024 .L0 
     /tmp/ccMShde4.s:55     .text:0000000000000028 .L0 
     /tmp/ccMShde4.s:61     .text:0000000000000028 _ZN5Riscv16setupTrapHandlerEv
     /tmp/ccMShde4.s:64     .text:0000000000000028 .L0 
     /tmp/ccMShde4.s:65     .text:0000000000000028 .L0 
     /tmp/ccMShde4.s:66     .text:000000000000002c .L0 
     /tmp/ccMShde4.s:68     .text:0000000000000030 .L0 
     /tmp/ccMShde4.s:70     .text:0000000000000034 .L0 
     /tmp/ccMShde4.s:72     .text:0000000000000034 .L0 
     /tmp/ccMShde4.s:73     .text:0000000000000034 .L0 
     /tmp/ccMShde4.s:78     .text:000000000000003c .L0 
     /tmp/ccMShde4.s:79     .text:000000000000003c .L0 
  src/../h/Riscv.hpp:84     .text:000000000000003c .L0 
     /tmp/ccMShde4.s:89     .text:0000000000000040 .L0 
     /tmp/ccMShde4.s:90     .text:0000000000000044 .L0 
     /tmp/ccMShde4.s:91     .text:0000000000000044 .L0 
     /tmp/ccMShde4.s:93     .text:0000000000000048 .L0 
     /tmp/ccMShde4.s:95     .text:000000000000004c .L0 
     /tmp/ccMShde4.s:109    .text:000000000000004c _ZN5Riscv11trapHandlerEv
     /tmp/ccMShde4.s:112    .text:000000000000004c .L0 
     /tmp/ccMShde4.s:113    .text:000000000000004c .L0 
     /tmp/ccMShde4.s:114    .text:0000000000000050 .L0 
     /tmp/ccMShde4.s:120    .text:0000000000000064 .L0 
     /tmp/ccMShde4.s:121    .text:0000000000000064 .L0 
     /tmp/ccMShde4.s:122    .text:0000000000000064 .L0 
     /tmp/ccMShde4.s:123    .text:0000000000000064 .L0 
     /tmp/ccMShde4.s:124    .text:0000000000000064 .L0 
     /tmp/ccMShde4.s:126    .text:0000000000000068 .L0 
     /tmp/ccMShde4.s:130    .text:0000000000000068 .L0 
     /tmp/ccMShde4.s:131    .text:0000000000000068 .L0 
     /tmp/ccMShde4.s:132    .text:0000000000000068 .L0 
  src/../h/Riscv.hpp:59     .text:0000000000000068 .L0 
     /tmp/ccMShde4.s:140    .text:0000000000000070 .L0 
     /tmp/ccMShde4.s:141    .text:0000000000000070 .L0 
     /tmp/ccMShde4.s:148    .text:0000000000000074 .L0 
     /tmp/ccMShde4.s:149    .text:0000000000000074 .L0 
     /tmp/ccMShde4.s:150    .text:0000000000000074 .L0 
  src/../h/Riscv.hpp:69     .text:0000000000000074 .L0 
     /tmp/ccMShde4.s:158    .text:000000000000007c .L0 
GAS LISTING /tmp/ccMShde4.s 			page 30


     /tmp/ccMShde4.s:159    .text:000000000000007c .L0 
     /tmp/ccMShde4.s:164    .text:0000000000000080 .L0 
     /tmp/ccMShde4.s:165    .text:0000000000000080 .L0 
     /tmp/ccMShde4.s:168    .text:0000000000000084 .L0 
     /tmp/ccMShde4.s:169    .text:0000000000000084 .L0 
     /tmp/ccMShde4.s:175    .text:0000000000000090 .L0 
     /tmp/ccMShde4.s:177    .text:0000000000000094 .L0 
     /tmp/ccMShde4.s:179    .text:0000000000000098 .L0 
     /tmp/ccMShde4.s:183    .text:00000000000000a0 .L0 
     /tmp/ccMShde4.s:186    .text:00000000000000a4 .L0 
     /tmp/ccMShde4.s:188    .text:00000000000000a8 .L0 
     /tmp/ccMShde4.s:193    .text:00000000000000b0 .L0 
     /tmp/ccMShde4.s:194    .text:00000000000000b0 .L0 
     /tmp/ccMShde4.s:198    .text:00000000000000c0 .L0 
     /tmp/ccMShde4.s:199    .text:00000000000000c0 .L0 
     /tmp/ccMShde4.s:205    .text:00000000000000d4 .L0 
     /tmp/ccMShde4.s:206    .text:00000000000000d4 .L0 
     /tmp/ccMShde4.s:212    .text:00000000000000e4 .L0 
     /tmp/ccMShde4.s:213    .text:00000000000000e8 .L0 
     /tmp/ccMShde4.s:214    .text:00000000000000e8 .L0 
     /tmp/ccMShde4.s:216    .text:00000000000000ec .L0 
     /tmp/ccMShde4.s:217    .text:00000000000000ec .L0 
     /tmp/ccMShde4.s:219    .text:00000000000000f0 .L0 
     /tmp/ccMShde4.s:221    .text:00000000000000f4 .L0 
     /tmp/ccMShde4.s:224    .text:00000000000000f8 .L0 
     /tmp/ccMShde4.s:226    .text:00000000000000fc .L0 
     /tmp/ccMShde4.s:230    .text:0000000000000100 .L0 
     /tmp/ccMShde4.s:236    .text:0000000000000100 .L0 
     /tmp/ccMShde4.s:237    .text:0000000000000100 .L0 
     /tmp/ccMShde4.s:238    .text:0000000000000100 .L0 
  src/../h/Riscv.hpp:125    .text:0000000000000100 .L0 
     /tmp/ccMShde4.s:247    .text:0000000000000108 .L0 
     /tmp/ccMShde4.s:248    .text:0000000000000108 .L0 
     /tmp/ccMShde4.s:253    .text:000000000000010c .L0 
     /tmp/ccMShde4.s:254    .text:000000000000010c .L0 
       src/Riscv.cpp:55     .text:000000000000010c .L0 
     /tmp/ccMShde4.s:262    .text:0000000000000110 .L0 
     /tmp/ccMShde4.s:347    .text:0000000000000134 .L0 
     /tmp/ccMShde4.s:349    .text:0000000000000134 .L0 
     /tmp/ccMShde4.s:350    .text:0000000000000134 .L0 
     /tmp/ccMShde4.s:351    .text:0000000000000134 .L0 
     /tmp/ccMShde4.s:352    .text:0000000000000134 .L0 
     /tmp/ccMShde4.s:359    .text:0000000000000144 .L0 
       src/Riscv.cpp:61     .text:0000000000000144 .L0 
     /tmp/ccMShde4.s:365    .text:0000000000000148 .L0 
     /tmp/ccMShde4.s:367    .text:0000000000000148 .L0 
     /tmp/ccMShde4.s:370    .text:0000000000000150 .L0 
       src/Riscv.cpp:63     .text:0000000000000150 .L0 
     /tmp/ccMShde4.s:376    .text:0000000000000154 .L0 
     /tmp/ccMShde4.s:378    .text:0000000000000154 .L0 
     /tmp/ccMShde4.s:389    .text:000000000000015c .L0 
     /tmp/ccMShde4.s:390    .text:000000000000015c .L0 
     /tmp/ccMShde4.s:391    .text:000000000000015c .L0 
     /tmp/ccMShde4.s:396    .text:0000000000000160 .L0 
     /tmp/ccMShde4.s:397    .text:0000000000000160 .L0 
  src/../h/Riscv.hpp:74     .text:0000000000000160 .L0 
     /tmp/ccMShde4.s:409    .text:0000000000000164 .L0 
GAS LISTING /tmp/ccMShde4.s 			page 31


     /tmp/ccMShde4.s:410    .text:0000000000000164 .L0 
  src/../h/Riscv.hpp:130    .text:0000000000000164 .L0 
     /tmp/ccMShde4.s:417    .text:0000000000000168 .L0 
     /tmp/ccMShde4.s:424    .text:000000000000016c .L0 
     /tmp/ccMShde4.s:426    .text:000000000000016c .L0 
     /tmp/ccMShde4.s:427    .text:000000000000016c .L0 
     /tmp/ccMShde4.s:428    .text:000000000000016c .L0 
     /tmp/ccMShde4.s:429    .text:000000000000016c .L0 
     /tmp/ccMShde4.s:436    .text:000000000000017c .L0 
       src/Riscv.cpp:70     .text:000000000000017c .L0 
     /tmp/ccMShde4.s:442    .text:0000000000000180 .L0 
     /tmp/ccMShde4.s:444    .text:0000000000000180 .L0 
     /tmp/ccMShde4.s:447    .text:0000000000000188 .L0 
       src/Riscv.cpp:72     .text:0000000000000188 .L0 
     /tmp/ccMShde4.s:453    .text:000000000000018c .L0 
     /tmp/ccMShde4.s:455    .text:000000000000018c .L0 
     /tmp/ccMShde4.s:462    .text:0000000000000194 .L0 
     /tmp/ccMShde4.s:467    .text:0000000000000198 .L0 
     /tmp/ccMShde4.s:469    .text:0000000000000198 .L0 
     /tmp/ccMShde4.s:470    .text:0000000000000198 .L0 
     /tmp/ccMShde4.s:471    .text:0000000000000198 .L0 
     /tmp/ccMShde4.s:474    .text:00000000000001a0 .L0 
       src/Riscv.cpp:78     .text:00000000000001a0 .L0 
     /tmp/ccMShde4.s:480    .text:00000000000001a4 .L0 
     /tmp/ccMShde4.s:482    .text:00000000000001a4 .L0 
     /tmp/ccMShde4.s:490    .text:00000000000001b4 .L0 
     /tmp/ccMShde4.s:495    .text:00000000000001b8 .L0 
     /tmp/ccMShde4.s:497    .text:00000000000001b8 .L0 
     /tmp/ccMShde4.s:498    .text:00000000000001b8 .L0 
     /tmp/ccMShde4.s:499    .text:00000000000001b8 .L0 
     /tmp/ccMShde4.s:502    .text:00000000000001c0 .L0 
       src/Riscv.cpp:84     .text:00000000000001c0 .L0 
     /tmp/ccMShde4.s:508    .text:00000000000001c4 .L0 
     /tmp/ccMShde4.s:510    .text:00000000000001c4 .L0 
     /tmp/ccMShde4.s:518    .text:00000000000001d4 .L0 
     /tmp/ccMShde4.s:523    .text:00000000000001d8 .L0 
     /tmp/ccMShde4.s:525    .text:00000000000001d8 .L0 
     /tmp/ccMShde4.s:526    .text:00000000000001d8 .L0 
     /tmp/ccMShde4.s:527    .text:00000000000001d8 .L0 
     /tmp/ccMShde4.s:528    .text:00000000000001d8 .L0 
     /tmp/ccMShde4.s:529    .text:00000000000001d8 .L0 
     /tmp/ccMShde4.s:530    .text:00000000000001d8 .L0 
     /tmp/ccMShde4.s:531    .text:00000000000001d8 .L0 
     /tmp/ccMShde4.s:538    .text:00000000000001e8 .L0 
       src/Riscv.cpp:95     .text:00000000000001e8 .L0 
     /tmp/ccMShde4.s:544    .text:00000000000001ec .L0 
       src/Riscv.cpp:96     .text:00000000000001ec .L0 
     /tmp/ccMShde4.s:549    .text:00000000000001f0 .L0 
       src/Riscv.cpp:97     .text:00000000000001f0 .L0 
     /tmp/ccMShde4.s:555    .text:00000000000001f4 .L0 
       src/Riscv.cpp:98     .text:00000000000001f4 .L0 
     /tmp/ccMShde4.s:560    .text:00000000000001f8 .L0 
       src/Riscv.cpp:99     .text:00000000000001f8 .L0 
     /tmp/ccMShde4.s:566    .text:00000000000001fc .L0 
       src/Riscv.cpp:100    .text:00000000000001fc .L0 
     /tmp/ccMShde4.s:571    .text:0000000000000200 .L0 
       src/Riscv.cpp:101    .text:0000000000000200 .L0 
GAS LISTING /tmp/ccMShde4.s 			page 32


     /tmp/ccMShde4.s:577    .text:0000000000000204 .L0 
     /tmp/ccMShde4.s:579    .text:0000000000000204 .L0 
     /tmp/ccMShde4.s:582    .text:000000000000020c .L0 
     /tmp/ccMShde4.s:584    .text:0000000000000210 .L0 
     /tmp/ccMShde4.s:586    .text:0000000000000214 .L0 
     /tmp/ccMShde4.s:587    .text:0000000000000214 .L0 
     /tmp/ccMShde4.s:590    .text:000000000000021c .L0 
       src/Riscv.cpp:107    .text:000000000000021c .L0 
     /tmp/ccMShde4.s:598    .text:0000000000000220 .L0 
     /tmp/ccMShde4.s:599    .text:0000000000000220 .L0 
     /tmp/ccMShde4.s:607    .text:0000000000000230 .L0 
     /tmp/ccMShde4.s:610    .text:0000000000000234 .L0 
       src/Riscv.cpp:109    .text:0000000000000234 .L0 
     /tmp/ccMShde4.s:621    .text:000000000000023c .L0 
     /tmp/ccMShde4.s:622    .text:000000000000023c .L0 
     /tmp/ccMShde4.s:623    .text:000000000000023c .L0 
     /tmp/ccMShde4.s:624    .text:000000000000023c .L0 
     /tmp/ccMShde4.s:627    .text:0000000000000248 .L0 
     /tmp/ccMShde4.s:629    .text:000000000000024c .L0 
     /tmp/ccMShde4.s:630    .text:000000000000024c .L0 
     /tmp/ccMShde4.s:634    .text:0000000000000254 .L0 
     /tmp/ccMShde4.s:635    .text:0000000000000254 .L0 
     /tmp/ccMShde4.s:638    .text:000000000000025c .L0 
       src/Riscv.cpp:121    .text:000000000000025c .L0 
     /tmp/ccMShde4.s:645    .text:0000000000000260 .L0 
     /tmp/ccMShde4.s:649    .text:0000000000000264 .L0 
     /tmp/ccMShde4.s:650    .text:0000000000000264 .L0 
     /tmp/ccMShde4.s:651    .text:0000000000000264 .L0 
     /tmp/ccMShde4.s:652    .text:0000000000000264 .L0 
     /tmp/ccMShde4.s:655    .text:000000000000026c .L0 
     /tmp/ccMShde4.s:659    .text:0000000000000270 .L0 
     /tmp/ccMShde4.s:661    .text:0000000000000270 .L0 
     /tmp/ccMShde4.s:662    .text:0000000000000270 .L0 
     /tmp/ccMShde4.s:663    .text:0000000000000270 .L0 
     /tmp/ccMShde4.s:664    .text:0000000000000270 .L0 
     /tmp/ccMShde4.s:665    .text:0000000000000270 .L0 
     /tmp/ccMShde4.s:672    .text:0000000000000280 .L0 
       src/Riscv.cpp:135    .text:0000000000000280 .L0 
     /tmp/ccMShde4.s:678    .text:0000000000000284 .L0 
       src/Riscv.cpp:136    .text:0000000000000284 .L0 
     /tmp/ccMShde4.s:683    .text:0000000000000288 .L0 
       src/Riscv.cpp:137    .text:0000000000000288 .L0 
     /tmp/ccMShde4.s:689    .text:000000000000028c .L0 
     /tmp/ccMShde4.s:691    .text:000000000000028c .L0 
     /tmp/ccMShde4.s:697    .text:000000000000029c .L0 
     /tmp/ccMShde4.s:699    .text:00000000000002a0 .L0 
     /tmp/ccMShde4.s:701    .text:00000000000002a4 .L0 
       src/Riscv.cpp:141    .text:00000000000002a4 .L0 
     /tmp/ccMShde4.s:709    .text:00000000000002a8 .L0 
     /tmp/ccMShde4.s:710    .text:00000000000002a8 .L0 
     /tmp/ccMShde4.s:718    .text:00000000000002b8 .L0 
     /tmp/ccMShde4.s:721    .text:00000000000002bc .L0 
       src/Riscv.cpp:142    .text:00000000000002bc .L0 
     /tmp/ccMShde4.s:732    .text:00000000000002c4 .L0 
     /tmp/ccMShde4.s:734    .text:00000000000002c4 .L0 
     /tmp/ccMShde4.s:735    .text:00000000000002c4 .L0 
     /tmp/ccMShde4.s:736    .text:00000000000002c4 .L0 
GAS LISTING /tmp/ccMShde4.s 			page 33


     /tmp/ccMShde4.s:737    .text:00000000000002c4 .L0 
     /tmp/ccMShde4.s:744    .text:00000000000002d4 .L0 
       src/Riscv.cpp:152    .text:00000000000002d4 .L0 
     /tmp/ccMShde4.s:751    .text:00000000000002d8 .L0 
     /tmp/ccMShde4.s:753    .text:00000000000002dc .L0 
     /tmp/ccMShde4.s:754    .text:00000000000002dc .L0 
     /tmp/ccMShde4.s:757    .text:00000000000002e4 .L0 
       src/Riscv.cpp:156    .text:00000000000002e4 .L0 
     /tmp/ccMShde4.s:767    .text:00000000000002ec .L0 
       src/Riscv.cpp:158    .text:00000000000002ec .L0 
     /tmp/ccMShde4.s:778    .text:00000000000002f4 .L0 
     /tmp/ccMShde4.s:780    .text:00000000000002f4 .L0 
     /tmp/ccMShde4.s:781    .text:00000000000002f4 .L0 
     /tmp/ccMShde4.s:782    .text:00000000000002f4 .L0 
     /tmp/ccMShde4.s:783    .text:00000000000002f4 .L0 
     /tmp/ccMShde4.s:790    .text:0000000000000304 .L0 
       src/Riscv.cpp:166    .text:0000000000000304 .L0 
     /tmp/ccMShde4.s:797    .text:0000000000000308 .L0 
     /tmp/ccMShde4.s:799    .text:000000000000030c .L0 
     /tmp/ccMShde4.s:800    .text:000000000000030c .L0 
     /tmp/ccMShde4.s:803    .text:0000000000000314 .L0 
       src/Riscv.cpp:170    .text:0000000000000314 .L0 
     /tmp/ccMShde4.s:813    .text:000000000000031c .L0 
       src/Riscv.cpp:172    .text:000000000000031c .L0 
     /tmp/ccMShde4.s:824    .text:0000000000000324 .L0 
     /tmp/ccMShde4.s:826    .text:0000000000000324 .L0 
     /tmp/ccMShde4.s:827    .text:0000000000000324 .L0 
     /tmp/ccMShde4.s:828    .text:0000000000000324 .L0 
     /tmp/ccMShde4.s:829    .text:0000000000000324 .L0 
     /tmp/ccMShde4.s:836    .text:0000000000000334 .L0 
       src/Riscv.cpp:180    .text:0000000000000334 .L0 
     /tmp/ccMShde4.s:843    .text:0000000000000338 .L0 
     /tmp/ccMShde4.s:845    .text:000000000000033c .L0 
     /tmp/ccMShde4.s:846    .text:000000000000033c .L0 
     /tmp/ccMShde4.s:849    .text:0000000000000344 .L0 
       src/Riscv.cpp:184    .text:0000000000000344 .L0 
     /tmp/ccMShde4.s:859    .text:000000000000034c .L0 
       src/Riscv.cpp:186    .text:000000000000034c .L0 
     /tmp/ccMShde4.s:870    .text:0000000000000354 .L0 
     /tmp/ccMShde4.s:872    .text:0000000000000354 .L0 
     /tmp/ccMShde4.s:873    .text:0000000000000354 .L0 
     /tmp/ccMShde4.s:874    .text:0000000000000354 .L0 
     /tmp/ccMShde4.s:877    .text:000000000000035c .L0 
       src/Riscv.cpp:192    .text:000000000000035c .L0 
     /tmp/ccMShde4.s:883    .text:0000000000000360 .L0 
       src/Riscv.cpp:193    .text:0000000000000360 .L0 
     /tmp/ccMShde4.s:889    .text:0000000000000364 .L0 
     /tmp/ccMShde4.s:894    .text:0000000000000368 .L0 
     /tmp/ccMShde4.s:896    .text:0000000000000368 .L0 
     /tmp/ccMShde4.s:897    .text:0000000000000368 .L0 
     /tmp/ccMShde4.s:898    .text:0000000000000368 .L0 
       src/Riscv.cpp:198    .text:0000000000000368 .L0 
     /tmp/ccMShde4.s:905    .text:000000000000036c .L0 
     /tmp/ccMShde4.s:907    .text:000000000000036c .L0 
     /tmp/ccMShde4.s:911    .text:0000000000000378 .L0 
     /tmp/ccMShde4.s:918    .text:000000000000037c .L0 
     /tmp/ccMShde4.s:924    .text:0000000000000384 .L0 
GAS LISTING /tmp/ccMShde4.s 			page 34


     /tmp/ccMShde4.s:925    .text:0000000000000384 .L0 
     /tmp/ccMShde4.s:926    .text:0000000000000384 .L0 
     /tmp/ccMShde4.s:934    .text:000000000000038c .L0 
     /tmp/ccMShde4.s:940    .text:0000000000000390 .L0 
     /tmp/ccMShde4.s:941    .text:0000000000000390 .L0 
     /tmp/ccMShde4.s:945    .text:000000000000039c .L0 
     /tmp/ccMShde4.s:955    .text:000000000000039c .L0 
     /tmp/ccMShde4.s:73     .text:0000000000000034 .L0 
     /tmp/ccMShde4.s:100    .rodata.str1.8:0000000000000000 .LC0
     /tmp/ccMShde4.s:194    .text:00000000000000b0 .L0 
     /tmp/ccMShde4.s:103    .rodata.str1.8:0000000000000010 .LC1
     /tmp/ccMShde4.s:206    .text:00000000000000d4 .L0 
     /tmp/ccMShde4.s:275    .rodata:0000000000000000 .L9
     /tmp/ccMShde4.s:267    .text:000000000000011c .L0 
     /tmp/ccMShde4.s:352    .text:0000000000000134 .L0 
     /tmp/ccMShde4.s:429    .text:000000000000016c .L0 
     /tmp/ccMShde4.s:482    .text:00000000000001a4 .L0 
     /tmp/ccMShde4.s:510    .text:00000000000001c4 .L0 
     /tmp/ccMShde4.s:531    .text:00000000000001d8 .L0 
     /tmp/ccMShde4.s:599    .text:0000000000000220 .L0 
     /tmp/ccMShde4.s:624    .text:000000000000023c .L0 
     /tmp/ccMShde4.s:665    .text:0000000000000270 .L0 
     /tmp/ccMShde4.s:710    .text:00000000000002a8 .L0 
     /tmp/ccMShde4.s:737    .text:00000000000002c4 .L0 
     /tmp/ccMShde4.s:783    .text:00000000000002f4 .L0 
     /tmp/ccMShde4.s:829    .text:0000000000000324 .L0 
     /tmp/ccMShde4.s:181    .text:00000000000000a0 .L6
     /tmp/ccMShde4.s:229    .text:0000000000000100 .L34
     /tmp/ccMShde4.s:913    .text:000000000000037c .L35
     /tmp/ccMShde4.s:191    .text:00000000000000b0 .L32
     /tmp/ccMShde4.s:936    .text:0000000000000390 .L36
     /tmp/ccMShde4.s:386    .text:000000000000015c .L7
     /tmp/ccMShde4.s:209    .text:00000000000000e4 .L5
     /tmp/ccMShde4.s:608    .text:0000000000000234 .L22
     /tmp/ccMShde4.s:596    .text:0000000000000220 .L23
     /tmp/ccMShde4.s:632    .text:0000000000000254 .L24
     /tmp/ccMShde4.s:719    .text:00000000000002bc .L25
     /tmp/ccMShde4.s:707    .text:00000000000002a8 .L26
     /tmp/ccMShde4.s:765    .text:00000000000002ec .L27
     /tmp/ccMShde4.s:811    .text:000000000000031c .L28
     /tmp/ccMShde4.s:857    .text:000000000000034c .L29
     /tmp/ccMShde4.s:184    .text:00000000000000a4 .L31
     /tmp/ccMShde4.s:344    .text:0000000000000134 .L21
     /tmp/ccMShde4.s:419    .text:000000000000016c .L20
     /tmp/ccMShde4.s:464    .text:0000000000000198 .L19
     /tmp/ccMShde4.s:492    .text:00000000000001b8 .L18
     /tmp/ccMShde4.s:520    .text:00000000000001d8 .L17
     /tmp/ccMShde4.s:618    .text:000000000000023c .L16
     /tmp/ccMShde4.s:647    .text:0000000000000264 .L15
     /tmp/ccMShde4.s:657    .text:0000000000000270 .L14
     /tmp/ccMShde4.s:729    .text:00000000000002c4 .L13
     /tmp/ccMShde4.s:775    .text:00000000000002f4 .L12
     /tmp/ccMShde4.s:821    .text:0000000000000324 .L11
     /tmp/ccMShde4.s:867    .text:0000000000000354 .L10
     /tmp/ccMShde4.s:891    .text:0000000000000368 .L8
     /tmp/ccMShde4.s:2644   .debug_abbrev:0000000000000000 .Ldebug_abbrev0
     /tmp/ccMShde4.s:4255   .debug_str:00000000000008ff .LASF179
GAS LISTING /tmp/ccMShde4.s 			page 35


     /tmp/ccMShde4.s:3993   .debug_str:000000000000012c .LASF180
     /tmp/ccMShde4.s:4043   .debug_str:00000000000002aa .LASF181
     /tmp/ccMShde4.s:5      .text:0000000000000000 .Ltext0
     /tmp/ccMShde4.s:948    .text:000000000000039c .Letext0
     /tmp/ccMShde4.s:3945   .debug_line:0000000000000000 .Ldebug_line0
     /tmp/ccMShde4.s:4063   .debug_str:000000000000035c .LASF0
     /tmp/ccMShde4.s:4089   .debug_str:0000000000000417 .LASF1
     /tmp/ccMShde4.s:4183   .debug_str:000000000000070f .LASF2
     /tmp/ccMShde4.s:4195   .debug_str:0000000000000780 .LASF4
     /tmp/ccMShde4.s:4075   .debug_str:00000000000003ac .LASF3
     /tmp/ccMShde4.s:3953   .debug_str:000000000000001f .LASF5
     /tmp/ccMShde4.s:4151   .debug_str:0000000000000611 .LASF6
     /tmp/ccMShde4.s:4079   .debug_str:00000000000003c3 .LASF7
     /tmp/ccMShde4.s:4041   .debug_str:000000000000029a .LASF8
     /tmp/ccMShde4.s:4047   .debug_str:00000000000002d8 .LASF9
     /tmp/ccMShde4.s:3979   .debug_str:00000000000000c8 .LASF10
     /tmp/ccMShde4.s:4031   .debug_str:0000000000000248 .LASF11
     /tmp/ccMShde4.s:3995   .debug_str:000000000000013a .LASF12
     /tmp/ccMShde4.s:3977   .debug_str:00000000000000b8 .LASF13
     /tmp/ccMShde4.s:4233   .debug_str:000000000000087f .LASF14
     /tmp/ccMShde4.s:4017   .debug_str:00000000000001d2 .LASF15
     /tmp/ccMShde4.s:4217   .debug_str:0000000000000802 .LASF16
     /tmp/ccMShde4.s:3961   .debug_str:000000000000005f .LASF17
     /tmp/ccMShde4.s:4283   .debug_str:0000000000000a7c .LASF65
     /tmp/ccMShde4.s:4175   .debug_str:00000000000006e5 .LASF21
     /tmp/ccMShde4.s:4095   .debug_str:0000000000000437 .LASF18
     /tmp/ccMShde4.s:4025   .debug_str:000000000000021b .LASF19
     /tmp/ccMShde4.s:4295   .debug_str:0000000000000ade .LASF20
     /tmp/ccMShde4.s:4275   .debug_str:0000000000000a57 .LASF22
     /tmp/ccMShde4.s:4027   .debug_str:0000000000000224 .LASF23
     /tmp/ccMShde4.s:4253   .debug_str:00000000000008f2 .LASF24
     /tmp/ccMShde4.s:4001   .debug_str:000000000000015e .LASF25
     /tmp/ccMShde4.s:4269   .debug_str:0000000000000a29 .LASF26
     /tmp/ccMShde4.s:4297   .debug_str:0000000000000ae7 .LASF28
     /tmp/ccMShde4.s:4309   .debug_str:0000000000000b57 .LASF27
     /tmp/ccMShde4.s:4261   .debug_str:00000000000009eb .LASF29
     /tmp/ccMShde4.s:4053   .debug_str:0000000000000302 .LASF30
     /tmp/ccMShde4.s:4061   .debug_str:0000000000000344 .LASF31
     /tmp/ccMShde4.s:4271   .debug_str:0000000000000a3a .LASF32
     /tmp/ccMShde4.s:4265   .debug_str:0000000000000a0c .LASF34
     /tmp/ccMShde4.s:4179   .debug_str:00000000000006fb .LASF36
     /tmp/ccMShde4.s:4141   .debug_str:000000000000059b .LASF38
     /tmp/ccMShde4.s:4167   .debug_str:00000000000006a7 .LASF33
     /tmp/ccMShde4.s:4171   .debug_str:00000000000006be .LASF35
     /tmp/ccMShde4.s:4135   .debug_str:0000000000000569 .LASF37
     /tmp/ccMShde4.s:4081   .debug_str:00000000000003d6 .LASF39
     /tmp/ccMShde4.s:4291   .debug_str:0000000000000ac8 .LASF40
     /tmp/ccMShde4.s:4229   .debug_str:000000000000085e .LASF41
     /tmp/ccMShde4.s:4129   .debug_str:000000000000052e .LASF42
     /tmp/ccMShde4.s:4139   .debug_str:0000000000000587 .LASF43
     /tmp/ccMShde4.s:4099   .debug_str:0000000000000448 .LASF44
     /tmp/ccMShde4.s:4173   .debug_str:00000000000006d1 .LASF45
     /tmp/ccMShde4.s:4319   .debug_str:0000000000000b96 .LASF46
     /tmp/ccMShde4.s:4069   .debug_str:0000000000000380 .LASF47
     /tmp/ccMShde4.s:4227   .debug_str:0000000000000857 .LASF48
     /tmp/ccMShde4.s:4197   .debug_str:0000000000000787 .LASF49
     /tmp/ccMShde4.s:4199   .debug_str:000000000000079a .LASF50
GAS LISTING /tmp/ccMShde4.s 			page 36


     /tmp/ccMShde4.s:3985   .debug_str:00000000000000e5 .LASF51
     /tmp/ccMShde4.s:4015   .debug_str:00000000000001cc .LASF52
     /tmp/ccMShde4.s:4059   .debug_str:0000000000000332 .LASF53
     /tmp/ccMShde4.s:4067   .debug_str:000000000000037a .LASF54
     /tmp/ccMShde4.s:4005   .debug_str:000000000000017a .LASF55
     /tmp/ccMShde4.s:3955   .debug_str:0000000000000026 .LASF56
     /tmp/ccMShde4.s:4187   .debug_str:0000000000000733 .LASF57
     /tmp/ccMShde4.s:4181   .debug_str:0000000000000704 .LASF58
     /tmp/ccMShde4.s:4313   .debug_str:0000000000000b68 .LASF59
     /tmp/ccMShde4.s:4285   .debug_str:0000000000000a82 .LASF60
     /tmp/ccMShde4.s:4299   .debug_str:0000000000000b05 .LASF61
     /tmp/ccMShde4.s:4281   .debug_str:0000000000000a72 .LASF119
     /tmp/ccMShde4.s:4115   .debug_str:00000000000004c0 .LASF121
     /tmp/ccMShde4.s:4207   .debug_str:00000000000007c1 .LASF64
     /tmp/ccMShde4.s:3981   .debug_str:00000000000000d7 .LASF62
     /tmp/ccMShde4.s:4087   .debug_str:0000000000000412 .LASF63
     /tmp/ccMShde4.s:4149   .debug_str:0000000000000601 .LASF66
     /tmp/ccMShde4.s:4315   .debug_str:0000000000000b80 .LASF67
     /tmp/ccMShde4.s:4219   .debug_str:0000000000000818 .LASF68
     /tmp/ccMShde4.s:4117   .debug_str:00000000000004d6 .LASF69
     /tmp/ccMShde4.s:3957   .debug_str:0000000000000031 .LASF71
     /tmp/ccMShde4.s:4239   .debug_str:000000000000089b .LASF70
     /tmp/ccMShde4.s:4119   .debug_str:00000000000004e0 .LASF72
     /tmp/ccMShde4.s:4125   .debug_str:0000000000000512 .LASF73
     /tmp/ccMShde4.s:4009   .debug_str:0000000000000196 .LASF74
     /tmp/ccMShde4.s:4083   .debug_str:00000000000003e9 .LASF75
     /tmp/ccMShde4.s:4287   .debug_str:0000000000000a8c .LASF76
     /tmp/ccMShde4.s:3959   .debug_str:0000000000000052 .LASF182
     /tmp/ccMShde4.s:4073   .debug_str:00000000000003a2 .LASF123
     /tmp/ccMShde4.s:4147   .debug_str:00000000000005d3 .LASF125
     /tmp/ccMShde4.s:4121   .debug_str:0000000000000501 .LASF183
     /tmp/ccMShde4.s:3975   .debug_str:00000000000000b2 .LASF77
     /tmp/ccMShde4.s:4205   .debug_str:00000000000007b9 .LASF78
     /tmp/ccMShde4.s:4107   .debug_str:0000000000000471 .LASF79
     /tmp/ccMShde4.s:3969   .debug_str:0000000000000094 .LASF80
     /tmp/ccMShde4.s:4163   .debug_str:0000000000000693 .LASF81
     /tmp/ccMShde4.s:3987   .debug_str:00000000000000f8 .LASF82
     /tmp/ccMShde4.s:4235   .debug_str:000000000000088b .LASF83
     /tmp/ccMShde4.s:4251   .debug_str:00000000000008ea .LASF84
     /tmp/ccMShde4.s:4023   .debug_str:0000000000000212 .LASF85
     /tmp/ccMShde4.s:3967   .debug_str:0000000000000084 .LASF86
     /tmp/ccMShde4.s:4231   .debug_str:0000000000000872 .LASF87
     /tmp/ccMShde4.s:4113   .debug_str:0000000000000499 .LASF88
     /tmp/ccMShde4.s:4143   .debug_str:00000000000005b0 .LASF184
     /tmp/ccMShde4.s:4189   .debug_str:000000000000074b .LASF89
     /tmp/ccMShde4.s:4305   .debug_str:0000000000000b3b .LASF90
     /tmp/ccMShde4.s:4303   .debug_str:0000000000000b27 .LASF91
     /tmp/ccMShde4.s:4213   .debug_str:00000000000007ea .LASF92
     /tmp/ccMShde4.s:3963   .debug_str:000000000000006c .LASF93
     /tmp/ccMShde4.s:4097   .debug_str:0000000000000440 .LASF94
     /tmp/ccMShde4.s:4307   .debug_str:0000000000000b41 .LASF95
     /tmp/ccMShde4.s:4201   .debug_str:00000000000007a1 .LASF185
     /tmp/ccMShde4.s:4247   .debug_str:00000000000008cc .LASF186
     /tmp/ccMShde4.s:4191   .debug_str:000000000000076c .LASF96
     /tmp/ccMShde4.s:4259   .debug_str:00000000000009c8 .LASF97
     /tmp/ccMShde4.s:4091   .debug_str:000000000000042a .LASF98
     /tmp/ccMShde4.s:4273   .debug_str:0000000000000a43 .LASF99
GAS LISTING /tmp/ccMShde4.s 			page 37


     /tmp/ccMShde4.s:3989   .debug_str:0000000000000100 .LASF100
     /tmp/ccMShde4.s:4137   .debug_str:0000000000000570 .LASF101
     /tmp/ccMShde4.s:4317   .debug_str:0000000000000b89 .LASF102
     /tmp/ccMShde4.s:4169   .debug_str:00000000000006ae .LASF103
     /tmp/ccMShde4.s:3949   .debug_str:0000000000000005 .LASF104
     /tmp/ccMShde4.s:4065   .debug_str:0000000000000369 .LASF105
     /tmp/ccMShde4.s:3971   .debug_str:000000000000009d .LASF106
     /tmp/ccMShde4.s:4057   .debug_str:0000000000000322 .LASF107
     /tmp/ccMShde4.s:4215   .debug_str:00000000000007ef .LASF108
     /tmp/ccMShde4.s:4021   .debug_str:0000000000000201 .LASF109
     /tmp/ccMShde4.s:4035   .debug_str:0000000000000260 .LASF110
     /tmp/ccMShde4.s:4039   .debug_str:0000000000000285 .LASF111
     /tmp/ccMShde4.s:3947   .debug_str:0000000000000000 .LASF112
     /tmp/ccMShde4.s:4311   .debug_str:0000000000000b63 .LASF113
     /tmp/ccMShde4.s:4211   .debug_str:00000000000007e4 .LASF114
     /tmp/ccMShde4.s:4263   .debug_str:0000000000000a04 .LASF115
     /tmp/ccMShde4.s:4013   .debug_str:00000000000001c6 .LASF116
     /tmp/ccMShde4.s:4071   .debug_str:0000000000000394 .LASF117
     /tmp/ccMShde4.s:4293   .debug_str:0000000000000ad0 .LASF118
     /tmp/ccMShde4.s:3999   .debug_str:0000000000000150 .LASF120
     /tmp/ccMShde4.s:4159   .debug_str:000000000000064c .LASF122
     /tmp/ccMShde4.s:4111   .debug_str:000000000000048d .LASF124
     /tmp/ccMShde4.s:4133   .debug_str:000000000000053b .LASF126
     /tmp/ccMShde4.s:4245   .debug_str:00000000000008c7 .LASF127
     /tmp/ccMShde4.s:4177   .debug_str:00000000000006f0 .LASF128
     /tmp/ccMShde4.s:4157   .debug_str:000000000000063c .LASF129
     /tmp/ccMShde4.s:3991   .debug_str:0000000000000109 .LASF130
     /tmp/ccMShde4.s:4011   .debug_str:00000000000001c1 .LASF131
     /tmp/ccMShde4.s:4209   .debug_str:00000000000007cd .LASF132
     /tmp/ccMShde4.s:4237   .debug_str:0000000000000894 .LASF133
     /tmp/ccMShde4.s:4019   .debug_str:00000000000001e8 .LASF134
     /tmp/ccMShde4.s:3997   .debug_str:000000000000014a .LASF135
     /tmp/ccMShde4.s:4029   .debug_str:0000000000000230 .LASF136
     /tmp/ccMShde4.s:4109   .debug_str:0000000000000479 .LASF137
     /tmp/ccMShde4.s:4055   .debug_str:000000000000030d .LASF138
     /tmp/ccMShde4.s:4103   .debug_str:0000000000000456 .LASF139
     /tmp/ccMShde4.s:4241   .debug_str:00000000000008a4 .LASF140
     /tmp/ccMShde4.s:4049   .debug_str:00000000000002e6 .LASF141
     /tmp/ccMShde4.s:4225   .debug_str:0000000000000852 .LASF142
     /tmp/ccMShde4.s:4131   .debug_str:0000000000000536 .LASF143
     /tmp/ccMShde4.s:4185   .debug_str:000000000000071d .LASF187
     /tmp/ccMShde4.s:4145   .debug_str:00000000000005b5 .LASF188
     /tmp/ccMShde4.s:4321   .debug_str:0000000000000b9e .LASF144
     /tmp/ccMShde4.s:4033   .debug_str:0000000000000257 .LASF145
     /tmp/ccMShde4.s:4221   .debug_str:0000000000000838 .LASF146
     /tmp/ccMShde4.s:4161   .debug_str:0000000000000678 .LASF147
     /tmp/ccMShde4.s:4243   .debug_str:00000000000008b9 .LASF148
     /tmp/ccMShde4.s:4165   .debug_str:000000000000069b .LASF149
     /tmp/ccMShde4.s:4003   .debug_str:000000000000016a .LASF150
     /tmp/ccMShde4.s:3983   .debug_str:00000000000000dc .LASF151
     /tmp/ccMShde4.s:3951   .debug_str:0000000000000015 .LASF152
     /tmp/ccMShde4.s:4127   .debug_str:0000000000000525 .LASF153
     /tmp/ccMShde4.s:4193   .debug_str:0000000000000775 .LASF154
     /tmp/ccMShde4.s:4077   .debug_str:00000000000003be .LASF155
     /tmp/ccMShde4.s:4123   .debug_str:000000000000050d .LASF156
     /tmp/ccMShde4.s:110    .text:000000000000004c .LFB31
     /tmp/ccMShde4.s:946    .text:000000000000039c .LFE31
GAS LISTING /tmp/ccMShde4.s 			page 38


     /tmp/ccMShde4.s:4223   .debug_str:000000000000084b .LASF157
     /tmp/ccMShde4.s:3533   .debug_loc:0000000000000000 .LLST1
     /tmp/ccMShde4.s:4257   .debug_str:00000000000009c3 .LASF158
     /tmp/ccMShde4.s:3548   .debug_loc:0000000000000049 .LLST2
     /tmp/ccMShde4.s:4037   .debug_str:000000000000027b .LASF159
     /tmp/ccMShde4.s:3559   .debug_loc:000000000000007f .LLST3
     /tmp/ccMShde4.s:4249   .debug_str:00000000000008e4 .LASF160
     /tmp/ccMShde4.s:3592   .debug_loc:00000000000000f8 .LLST4
     /tmp/ccMShde4.s:232    .text:0000000000000100 .LBB42
     /tmp/ccMShde4.s:916    .text:000000000000037c .LBE42
     /tmp/ccMShde4.s:4051   .debug_str:00000000000002fa .LASF161
     /tmp/ccMShde4.s:3716   .debug_loc:00000000000002c5 .LLST5
     /tmp/ccMShde4.s:4153   .debug_str:0000000000000624 .LASF162
     /tmp/ccMShde4.s:3723   .debug_loc:00000000000002e8 .LLST6
     /tmp/ccMShde4.s:348    .text:0000000000000134 .LBB46
     /tmp/ccMShde4.s:387    .text:000000000000015c .LBE46
     /tmp/ccMShde4.s:3730   .debug_loc:000000000000030b .LLST7
     /tmp/ccMShde4.s:3737   .debug_loc:000000000000032e .LLST8
     /tmp/ccMShde4.s:368    .text:0000000000000150 .LVL20
     /tmp/ccMShde4.s:425    .text:000000000000016c .LBB47
     /tmp/ccMShde4.s:465    .text:0000000000000198 .LBE47
     /tmp/ccMShde4.s:3973   .debug_str:00000000000000ad .LASF163
     /tmp/ccMShde4.s:3744   .debug_loc:0000000000000351 .LLST9
     /tmp/ccMShde4.s:4279   .debug_str:0000000000000a6b .LASF164
     /tmp/ccMShde4.s:3751   .debug_loc:0000000000000374 .LLST10
     /tmp/ccMShde4.s:445    .text:0000000000000188 .LVL26
     /tmp/ccMShde4.s:468    .text:0000000000000198 .LBB48
     /tmp/ccMShde4.s:493    .text:00000000000001b8 .LBE48
     /tmp/ccMShde4.s:4007   .debug_str:000000000000018c .LASF165
     /tmp/ccMShde4.s:3758   .debug_loc:0000000000000397 .LLST11
     /tmp/ccMShde4.s:472    .text:00000000000001a0 .LVL28
     /tmp/ccMShde4.s:496    .text:00000000000001b8 .LBB49
     /tmp/ccMShde4.s:521    .text:00000000000001d8 .LBE49
     /tmp/ccMShde4.s:4267   .debug_str:0000000000000a21 .LASF166
     /tmp/ccMShde4.s:3765   .debug_loc:00000000000003ba .LLST12
     /tmp/ccMShde4.s:500    .text:00000000000001c0 .LVL30
     /tmp/ccMShde4.s:524    .text:00000000000001d8 .LBB50
     /tmp/ccMShde4.s:619    .text:000000000000023c .LBE50
     /tmp/ccMShde4.s:4323   .debug_str:0000000000000ba8 .LASF167
     /tmp/ccMShde4.s:3772   .debug_loc:00000000000003dd .LLST13
     /tmp/ccMShde4.s:4085   .debug_str:0000000000000404 .LASF168
     /tmp/ccMShde4.s:3784   .debug_loc:0000000000000414 .LLST14
     /tmp/ccMShde4.s:3796   .debug_loc:000000000000044b .LLST15
     /tmp/ccMShde4.s:3808   .debug_loc:0000000000000482 .LLST16
     /tmp/ccMShde4.s:580    .text:000000000000020c .LVL36
     /tmp/ccMShde4.s:588    .text:000000000000021c .LVL37
     /tmp/ccMShde4.s:660    .text:0000000000000270 .LBB51
     /tmp/ccMShde4.s:730    .text:00000000000002c4 .LBE51
     /tmp/ccMShde4.s:3820   .debug_loc:00000000000004b9 .LLST17
     /tmp/ccMShde4.s:3965   .debug_str:000000000000007f .LASF169
     /tmp/ccMShde4.s:3832   .debug_loc:00000000000004f0 .LLST18
     /tmp/ccMShde4.s:695    .text:000000000000029c .LVL47
     /tmp/ccMShde4.s:733    .text:00000000000002c4 .LBB52
     /tmp/ccMShde4.s:776    .text:00000000000002f4 .LBE52
     /tmp/ccMShde4.s:3839   .debug_loc:0000000000000513 .LLST19
     /tmp/ccMShde4.s:755    .text:00000000000002e4 .LVL50
     /tmp/ccMShde4.s:779    .text:00000000000002f4 .LBB53
GAS LISTING /tmp/ccMShde4.s 			page 39


     /tmp/ccMShde4.s:822    .text:0000000000000324 .LBE53
     /tmp/ccMShde4.s:3855   .debug_loc:000000000000055d .LLST20
     /tmp/ccMShde4.s:801    .text:0000000000000314 .LVL54
     /tmp/ccMShde4.s:825    .text:0000000000000324 .LBB54
     /tmp/ccMShde4.s:868    .text:0000000000000354 .LBE54
     /tmp/ccMShde4.s:3871   .debug_loc:00000000000005a7 .LLST21
     /tmp/ccMShde4.s:847    .text:0000000000000344 .LVL58
     /tmp/ccMShde4.s:871    .text:0000000000000354 .LBB55
     /tmp/ccMShde4.s:892    .text:0000000000000368 .LBE55
     /tmp/ccMShde4.s:3887   .debug_loc:00000000000005f1 .LLST22
     /tmp/ccMShde4.s:875    .text:000000000000035c .LVL61
     /tmp/ccMShde4.s:895    .text:0000000000000368 .LBB56
     /tmp/ccMShde4.s:914    .text:000000000000037c .LBE56
     /tmp/ccMShde4.s:3894   .debug_loc:0000000000000614 .LLST23
     /tmp/ccMShde4.s:909    .text:0000000000000378 .LVL64
     /tmp/ccMShde4.s:234    .text:0000000000000100 .LBB43
     /tmp/ccMShde4.s:251    .text:000000000000010c .LBE43
     /tmp/ccMShde4.s:394    .text:0000000000000160 .LBB57
     /tmp/ccMShde4.s:405    .text:0000000000000164 .LBE57
     /tmp/ccMShde4.s:3901   .debug_loc:0000000000000637 .LLST24
     /tmp/ccMShde4.s:407    .text:0000000000000164 .LBB59
     /tmp/ccMShde4.s:421    .text:000000000000016c .LBE59
     /tmp/ccMShde4.s:3908   .debug_loc:000000000000065a .LLST25
     /tmp/ccMShde4.s:631    .text:0000000000000254 .LVL39
     /tmp/ccMShde4.s:636    .text:000000000000025c .LVL40
     /tmp/ccMShde4.s:653    .text:000000000000026c .LVL42
     /tmp/ccMShde4.s:128    .text:0000000000000068 .LBB37
     /tmp/ccMShde4.s:144    .text:0000000000000074 .LBE37
     /tmp/ccMShde4.s:146    .text:0000000000000074 .LBB39
     /tmp/ccMShde4.s:162    .text:0000000000000080 .LBE39
     /tmp/ccMShde4.s:922    .text:0000000000000384 .LBB62
     /tmp/ccMShde4.s:938    .text:0000000000000390 .LBE62
     /tmp/ccMShde4.s:3915   .debug_loc:000000000000067d .LLST26
     /tmp/ccMShde4.s:196    .text:00000000000000c0 .LVL9
     /tmp/ccMShde4.s:203    .text:00000000000000d4 .LVL10
     /tmp/ccMShde4.s:208    .text:00000000000000e4 .LVL11
     /tmp/ccMShde4.s:942    .text:0000000000000398 .LVL69
     /tmp/ccMShde4.s:62     .text:0000000000000028 .LFB30
     /tmp/ccMShde4.s:96     .text:000000000000004c .LFE30
     /tmp/ccMShde4.s:76     .text:000000000000003c .LBB35
     /tmp/ccMShde4.s:87     .text:0000000000000040 .LBE35
     /tmp/ccMShde4.s:10     .text:0000000000000000 .LFB29
     /tmp/ccMShde4.s:56     .text:0000000000000028 .LFE29
     /tmp/ccMShde4.s:22     .text:000000000000000c .LBB33
     /tmp/ccMShde4.s:35     .text:0000000000000014 .LBE33
     /tmp/ccMShde4.s:3923   .debug_loc:00000000000006a1 .LLST0
     /tmp/ccMShde4.s:4277   .debug_str:0000000000000a66 .LASF170
     /tmp/ccMShde4.s:4101   .debug_str:0000000000000450 .LASF171
     /tmp/ccMShde4.s:4093   .debug_str:0000000000000430 .LASF172
     /tmp/ccMShde4.s:4105   .debug_str:000000000000046a .LASF173
     /tmp/ccMShde4.s:4155   .debug_str:0000000000000629 .LASF174
     /tmp/ccMShde4.s:4301   .debug_str:0000000000000b1b .LASF175
     /tmp/ccMShde4.s:4203   .debug_str:00000000000007aa .LASF176
     /tmp/ccMShde4.s:4289   .debug_str:0000000000000abf .LASF177
     /tmp/ccMShde4.s:4045   .debug_str:00000000000002c8 .LASF178
     /tmp/ccMShde4.s:142    .text:0000000000000074 .LVL4
     /tmp/ccMShde4.s:228    .text:0000000000000100 .LVL13
GAS LISTING /tmp/ccMShde4.s 			page 40


     /tmp/ccMShde4.s:249    .text:000000000000010c .LVL15
     /tmp/ccMShde4.s:912    .text:000000000000037c .LVL65
     /tmp/ccMShde4.s:160    .text:0000000000000080 .LVL5
     /tmp/ccMShde4.s:222    .text:00000000000000f4 .LVL12
     /tmp/ccMShde4.s:166    .text:0000000000000084 .LVL6
     /tmp/ccMShde4.s:189    .text:00000000000000ac .LVL8
     /tmp/ccMShde4.s:263    .text:0000000000000114 .LVL17
     /tmp/ccMShde4.s:935    .text:0000000000000390 .LVL68
     /tmp/ccMShde4.s:172    .text:0000000000000090 .LVL7
     /tmp/ccMShde4.s:243    .text:0000000000000104 .LVL14
     /tmp/ccMShde4.s:418    .text:000000000000016c .LVL24
     /tmp/ccMShde4.s:463    .text:0000000000000198 .LVL27
     /tmp/ccMShde4.s:491    .text:00000000000001b8 .LVL29
     /tmp/ccMShde4.s:519    .text:00000000000001d8 .LVL31
     /tmp/ccMShde4.s:617    .text:000000000000023c .LVL38
     /tmp/ccMShde4.s:646    .text:0000000000000264 .LVL41
     /tmp/ccMShde4.s:656    .text:0000000000000270 .LVL43
     /tmp/ccMShde4.s:728    .text:00000000000002c4 .LVL48
     /tmp/ccMShde4.s:764    .text:00000000000002ec .LVL51
     /tmp/ccMShde4.s:810    .text:000000000000031c .LVL55
     /tmp/ccMShde4.s:856    .text:000000000000034c .LVL59
     /tmp/ccMShde4.s:890    .text:0000000000000368 .LVL62
     /tmp/ccMShde4.s:927    .text:0000000000000388 .LVL67
     /tmp/ccMShde4.s:259    .text:0000000000000110 .LVL16
     /tmp/ccMShde4.s:266    .text:000000000000011c .LVL18
     /tmp/ccMShde4.s:363    .text:0000000000000148 .LVL19
     /tmp/ccMShde4.s:384    .text:000000000000015c .LVL21
     /tmp/ccMShde4.s:440    .text:0000000000000180 .LVL25
     /tmp/ccMShde4.s:542    .text:00000000000001ec .LVL32
     /tmp/ccMShde4.s:553    .text:00000000000001f4 .LVL33
     /tmp/ccMShde4.s:564    .text:00000000000001fc .LVL34
     /tmp/ccMShde4.s:575    .text:0000000000000204 .LVL35
     /tmp/ccMShde4.s:676    .text:0000000000000284 .LVL44
     /tmp/ccMShde4.s:687    .text:000000000000028c .LVL45
     /tmp/ccMShde4.s:692    .text:0000000000000290 .LVL46
     /tmp/ccMShde4.s:748    .text:00000000000002d8 .LVL49
     /tmp/ccMShde4.s:774    .text:00000000000002f4 .LVL52
     /tmp/ccMShde4.s:794    .text:0000000000000308 .LVL53
     /tmp/ccMShde4.s:820    .text:0000000000000324 .LVL56
     /tmp/ccMShde4.s:840    .text:0000000000000338 .LVL57
     /tmp/ccMShde4.s:866    .text:0000000000000354 .LVL60
     /tmp/ccMShde4.s:903    .text:000000000000036c .LVL63
     /tmp/ccMShde4.s:392    .text:0000000000000160 .LVL22
     /tmp/ccMShde4.s:402    .text:0000000000000164 .LVL23
     /tmp/ccMShde4.s:921    .text:0000000000000384 .LVL66
     /tmp/ccMShde4.s:21     .text:000000000000000c .LVL0
     /tmp/ccMShde4.s:32     .text:0000000000000014 .LVL1
     /tmp/ccMShde4.s:956    .debug_info:0000000000000000 .Ldebug_info0

UNDEFINED SYMBOLS
trap_handler
_Z11printStringPKc
_Z8printIntiii
framePointer
_ZN15MemoryAllocator9mem_allocEm
_ZN15MemoryAllocator8mem_freeEPv
_ZN15MemoryAllocator18mem_get_free_spaceEv
GAS LISTING /tmp/ccMShde4.s 			page 41


_ZN15MemoryAllocator26mem_get_largest_free_blockEv
_ZN7KThread12createThreadEPFvPvES0_S0_
_ZN7KThread5startEv
_ZN7KThread7runningE
_ZN7KThread4exitEv
_ZN7KThread8dispatchEv
_ZN10KSemaphore15createSemaphoreEm
_ZN10KSemaphore5closeEv
_ZN10KSemaphore4waitEv
_ZN10KSemaphore6signalEv
__getc
__putc
console_handler
