GAS LISTING /tmp/ccb5iSUx.s 			page 1


   1              		.file	"Scheduler.cpp"
   2              		.option pic
   3              		.option norelax
   4              		.text
   5              	.Ltext0:
   6              		.align	2
   7              		.globl	_ZN9Scheduler3getEv
   9              	_ZN9Scheduler3getEv:
  10              	.LFB6:
  11              		.file 1 "src/Scheduler.cpp"
   1:src/Scheduler.cpp **** //
   2:src/Scheduler.cpp **** // Created by os on 10/8/25.
   3:src/Scheduler.cpp **** //
   4:src/Scheduler.cpp **** 
   5:src/Scheduler.cpp **** #include "../h/Scheduler.hpp"
   6:src/Scheduler.cpp **** #include "../h/Thread.hpp"
   7:src/Scheduler.cpp **** 
   8:src/Scheduler.cpp **** Thread* Scheduler::head = nullptr;
   9:src/Scheduler.cpp **** Thread* Scheduler::tail = nullptr;
  10:src/Scheduler.cpp **** 
  11:src/Scheduler.cpp **** Thread* Scheduler::get() {
  12              		.loc 1 11 26
  13              		.cfi_startproc
  14 0000 130101FF 		addi	sp,sp,-16
  15              		.cfi_def_cfa_offset 16
  16 0004 23348100 		sd	s0,8(sp)
  17              		.cfi_offset 8, -8
  18 0008 13040101 		addi	s0,sp,16
  19              		.cfi_def_cfa 8, 0
  12:src/Scheduler.cpp ****     if (!head) return nullptr;
  20              		.loc 1 12 5
  21              		.loc 1 12 9 is_stmt 0
  22 000c 17050000 		ld	a0,.LANCHOR0
  22      03350500 
  23              		.loc 1 12 5
  24 0014 630C0500 		beqz	a0,.L1
  13:src/Scheduler.cpp **** 
  14:src/Scheduler.cpp ****     Thread* thread = head;
  25              		.loc 1 14 5 is_stmt 1
  26              	.LVL0:
  15:src/Scheduler.cpp ****     head = head->next;
  27              		.loc 1 15 5
  28              		.loc 1 15 18 is_stmt 0
  29 0018 83370504 		ld	a5,64(a0)
  30              		.loc 1 15 10
  31 001c 17070000 		sd	a5,.LANCHOR0,a4
  31      2330F700 
  16:src/Scheduler.cpp **** 
  17:src/Scheduler.cpp ****     if (!head) tail = nullptr;
  32              		.loc 1 17 5 is_stmt 1
  33 0024 638A0700 		beqz	a5,.L5
  34              	.L3:
  18:src/Scheduler.cpp ****     thread->next = nullptr;
  35              		.loc 1 18 5
  36              		.loc 1 18 18 is_stmt 0
  37 0028 23300504 		sd	zero,64(a0)
  19:src/Scheduler.cpp **** 
GAS LISTING /tmp/ccb5iSUx.s 			page 2


  20:src/Scheduler.cpp ****     return thread;
  38              		.loc 1 20 5 is_stmt 1
  39              	.LVL1:
  40              	.L1:
  21:src/Scheduler.cpp **** }
  41              		.loc 1 21 1 is_stmt 0
  42 002c 03348100 		ld	s0,8(sp)
  43              		.cfi_remember_state
  44              		.cfi_restore 8
  45              		.cfi_def_cfa 2, 16
  46 0030 13010101 		addi	sp,sp,16
  47              		.cfi_def_cfa_offset 0
  48 0034 67800000 		jr	ra
  49              	.LVL2:
  50              	.L5:
  51              		.cfi_restore_state
  17:src/Scheduler.cpp ****     thread->next = nullptr;
  52              		.loc 1 17 16 is_stmt 1 discriminator 1
  17:src/Scheduler.cpp ****     thread->next = nullptr;
  53              		.loc 1 17 21 is_stmt 0 discriminator 1
  54 0038 97070000 		sd	zero,.LANCHOR0+8,a5
  54      23B00700 
  55 0040 6FF09FFE 		j	.L3
  56              		.cfi_endproc
  57              	.LFE6:
  59              		.align	2
  60              		.globl	_ZN9Scheduler3putEP6Thread
  62              	_ZN9Scheduler3putEP6Thread:
  63              	.LFB7:
  22:src/Scheduler.cpp **** 
  23:src/Scheduler.cpp **** void Scheduler::put(Thread* thread) {
  64              		.loc 1 23 37 is_stmt 1
  65              		.cfi_startproc
  66              	.LVL3:
  67 0044 130101FF 		addi	sp,sp,-16
  68              		.cfi_def_cfa_offset 16
  69 0048 23348100 		sd	s0,8(sp)
  70              		.cfi_offset 8, -8
  71 004c 13040101 		addi	s0,sp,16
  72              		.cfi_def_cfa 8, 0
  24:src/Scheduler.cpp ****     if (!head) head = thread;
  73              		.loc 1 24 5
  74              		.loc 1 24 9 is_stmt 0
  75 0050 97070000 		ld	a5,.LANCHOR0
  75      83B70700 
  76              		.loc 1 24 5
  77 0058 63820702 		beqz	a5,.L10
  25:src/Scheduler.cpp ****     else tail->next = thread;
  78              		.loc 1 25 10 is_stmt 1
  79              		.loc 1 25 16 is_stmt 0
  80 005c 97070000 		ld	a5,.LANCHOR0+8
  80      83B70700 
  81              		.loc 1 25 21
  82 0064 23B0A704 		sd	a0,64(a5)
  83              	.L8:
  26:src/Scheduler.cpp ****     tail = thread;
  84              		.loc 1 26 5 is_stmt 1
GAS LISTING /tmp/ccb5iSUx.s 			page 3


  85              		.loc 1 26 10 is_stmt 0
  86 0068 97070000 		sd	a0,.LANCHOR0+8,a5
  86      23B0A700 
  27:src/Scheduler.cpp **** }
  87              		.loc 1 27 1
  88 0070 03348100 		ld	s0,8(sp)
  89              		.cfi_remember_state
  90              		.cfi_restore 8
  91              		.cfi_def_cfa 2, 16
  92 0074 13010101 		addi	sp,sp,16
  93              		.cfi_def_cfa_offset 0
  94 0078 67800000 		jr	ra
  95              	.L10:
  96              		.cfi_restore_state
  24:src/Scheduler.cpp ****     else tail->next = thread;
  97              		.loc 1 24 16 is_stmt 1 discriminator 1
  24:src/Scheduler.cpp ****     else tail->next = thread;
  98              		.loc 1 24 21 is_stmt 0 discriminator 1
  99 007c 97070000 		sd	a0,.LANCHOR0,a5
  99      23B0A700 
 100 0084 6FF05FFE 		j	.L8
 101              		.cfi_endproc
 102              	.LFE7:
 104              		.align	2
 105              		.globl	_ZN9Scheduler7isEmptyEv
 107              	_ZN9Scheduler7isEmptyEv:
 108              	.LFB8:
  28:src/Scheduler.cpp **** 
  29:src/Scheduler.cpp **** bool Scheduler::isEmpty() {
 109              		.loc 1 29 27 is_stmt 1
 110              		.cfi_startproc
 111 0088 130101FF 		addi	sp,sp,-16
 112              		.cfi_def_cfa_offset 16
 113 008c 23348100 		sd	s0,8(sp)
 114              		.cfi_offset 8, -8
 115 0090 13040101 		addi	s0,sp,16
 116              		.cfi_def_cfa 8, 0
  30:src/Scheduler.cpp ****     return head == nullptr;
 117              		.loc 1 30 5
  31:src/Scheduler.cpp **** }...
 118              		.loc 1 31 1 is_stmt 0
 119 0094 17050000 		ld	a0,.LANCHOR0
 119      03350500 
 120 009c 13351500 		seqz	a0,a0
 121 00a0 03348100 		ld	s0,8(sp)
 122              		.cfi_restore 8
 123              		.cfi_def_cfa 2, 16
 124 00a4 13010101 		addi	sp,sp,16
 125              		.cfi_def_cfa_offset 0
 126 00a8 67800000 		jr	ra
 127              		.cfi_endproc
 128              	.LFE8:
 130              		.globl	_ZN9Scheduler4tailE
 131              		.globl	_ZN9Scheduler4headE
 132              		.bss
 133              		.align	3
 134              		.set	.LANCHOR0,. + 0
GAS LISTING /tmp/ccb5iSUx.s 			page 4


 137              	_ZN9Scheduler4headE:
 138 0000 00000000 		.zero	8
 138      00000000 
 141              	_ZN9Scheduler4tailE:
 142 0008 00000000 		.zero	8
 142      00000000 
 143              		.text
 144              	.Letext0:
 145              		.file 2 "src/../h/Scheduler.hpp"
 146              		.file 3 "src/../h/Thread.hpp"
 147              		.file 4 "src/../h/../lib/hw.h"
GAS LISTING /tmp/ccb5iSUx.s 			page 5


DEFINED SYMBOLS
                            *ABS*:0000000000000000 Scheduler.cpp
     /tmp/ccb5iSUx.s:9      .text:0000000000000000 _ZN9Scheduler3getEv
     /tmp/ccb5iSUx.s:13     .text:0000000000000000 .L0 
     /tmp/ccb5iSUx.s:14     .text:0000000000000000 .L0 
     /tmp/ccb5iSUx.s:15     .text:0000000000000004 .L0 
     /tmp/ccb5iSUx.s:17     .text:0000000000000008 .L0 
     /tmp/ccb5iSUx.s:19     .text:000000000000000c .L0 
     /tmp/ccb5iSUx.s:21     .text:000000000000000c .L0 
     /tmp/ccb5iSUx.s:22     .text:000000000000000c .L0 
     /tmp/ccb5iSUx.s:24     .text:0000000000000014 .L0 
     /tmp/ccb5iSUx.s:27     .text:0000000000000018 .L0 
     /tmp/ccb5iSUx.s:28     .text:0000000000000018 .L0 
     /tmp/ccb5iSUx.s:29     .text:0000000000000018 .L0 
     /tmp/ccb5iSUx.s:31     .text:000000000000001c .L0 
     /tmp/ccb5iSUx.s:33     .text:0000000000000024 .L0 
     /tmp/ccb5iSUx.s:36     .text:0000000000000028 .L0 
     /tmp/ccb5iSUx.s:37     .text:0000000000000028 .L0 
     /tmp/ccb5iSUx.s:41     .text:000000000000002c .L0 
     /tmp/ccb5iSUx.s:42     .text:000000000000002c .L0 
     /tmp/ccb5iSUx.s:43     .text:0000000000000030 .L0 
     /tmp/ccb5iSUx.s:44     .text:0000000000000030 .L0 
     /tmp/ccb5iSUx.s:45     .text:0000000000000030 .L0 
     /tmp/ccb5iSUx.s:47     .text:0000000000000034 .L0 
     /tmp/ccb5iSUx.s:51     .text:0000000000000038 .L0 
     /tmp/ccb5iSUx.s:53     .text:0000000000000038 .L0 
     /tmp/ccb5iSUx.s:54     .text:0000000000000038 .L0 
     /tmp/ccb5iSUx.s:56     .text:0000000000000044 .L0 
     /tmp/ccb5iSUx.s:62     .text:0000000000000044 _ZN9Scheduler3putEP6Thread
     /tmp/ccb5iSUx.s:65     .text:0000000000000044 .L0 
     /tmp/ccb5iSUx.s:67     .text:0000000000000044 .L0 
     /tmp/ccb5iSUx.s:68     .text:0000000000000048 .L0 
     /tmp/ccb5iSUx.s:70     .text:000000000000004c .L0 
     /tmp/ccb5iSUx.s:72     .text:0000000000000050 .L0 
     /tmp/ccb5iSUx.s:74     .text:0000000000000050 .L0 
     /tmp/ccb5iSUx.s:75     .text:0000000000000050 .L0 
     /tmp/ccb5iSUx.s:77     .text:0000000000000058 .L0 
     /tmp/ccb5iSUx.s:79     .text:000000000000005c .L0 
     /tmp/ccb5iSUx.s:80     .text:000000000000005c .L0 
     /tmp/ccb5iSUx.s:82     .text:0000000000000064 .L0 
     /tmp/ccb5iSUx.s:85     .text:0000000000000068 .L0 
     /tmp/ccb5iSUx.s:86     .text:0000000000000068 .L0 
     /tmp/ccb5iSUx.s:88     .text:0000000000000070 .L0 
     /tmp/ccb5iSUx.s:89     .text:0000000000000074 .L0 
     /tmp/ccb5iSUx.s:90     .text:0000000000000074 .L0 
     /tmp/ccb5iSUx.s:91     .text:0000000000000074 .L0 
     /tmp/ccb5iSUx.s:93     .text:0000000000000078 .L0 
     /tmp/ccb5iSUx.s:96     .text:000000000000007c .L0 
     /tmp/ccb5iSUx.s:98     .text:000000000000007c .L0 
     /tmp/ccb5iSUx.s:99     .text:000000000000007c .L0 
     /tmp/ccb5iSUx.s:101    .text:0000000000000088 .L0 
     /tmp/ccb5iSUx.s:107    .text:0000000000000088 _ZN9Scheduler7isEmptyEv
     /tmp/ccb5iSUx.s:110    .text:0000000000000088 .L0 
     /tmp/ccb5iSUx.s:111    .text:0000000000000088 .L0 
     /tmp/ccb5iSUx.s:112    .text:000000000000008c .L0 
     /tmp/ccb5iSUx.s:114    .text:0000000000000090 .L0 
     /tmp/ccb5iSUx.s:116    .text:0000000000000094 .L0 
GAS LISTING /tmp/ccb5iSUx.s 			page 6


     /tmp/ccb5iSUx.s:118    .text:0000000000000094 .L0 
     /tmp/ccb5iSUx.s:119    .text:0000000000000094 .L0 
     /tmp/ccb5iSUx.s:122    .text:00000000000000a4 .L0 
     /tmp/ccb5iSUx.s:123    .text:00000000000000a4 .L0 
     /tmp/ccb5iSUx.s:125    .text:00000000000000a8 .L0 
     /tmp/ccb5iSUx.s:127    .text:00000000000000ac .L0 
     /tmp/ccb5iSUx.s:141    .bss:0000000000000008 _ZN9Scheduler4tailE
     /tmp/ccb5iSUx.s:137    .bss:0000000000000000 _ZN9Scheduler4headE
     /tmp/ccb5iSUx.s:134    .bss:0000000000000000 .LANCHOR0
     /tmp/ccb5iSUx.s:148    .text:00000000000000ac .L0 
     /tmp/ccb5iSUx.s:22     .text:000000000000000c .L0 
     /tmp/ccb5iSUx.s:31     .text:000000000000001c .L0 
     /tmp/ccb5iSUx.s:54     .text:0000000000000038 .L0 
     /tmp/ccb5iSUx.s:75     .text:0000000000000050 .L0 
     /tmp/ccb5iSUx.s:80     .text:000000000000005c .L0 
     /tmp/ccb5iSUx.s:86     .text:0000000000000068 .L0 
     /tmp/ccb5iSUx.s:99     .text:000000000000007c .L0 
     /tmp/ccb5iSUx.s:119    .text:0000000000000094 .L0 
     /tmp/ccb5iSUx.s:40     .text:000000000000002c .L1
     /tmp/ccb5iSUx.s:50     .text:0000000000000038 .L5
     /tmp/ccb5iSUx.s:34     .text:0000000000000028 .L3
     /tmp/ccb5iSUx.s:95     .text:000000000000007c .L10
     /tmp/ccb5iSUx.s:83     .text:0000000000000068 .L8
     /tmp/ccb5iSUx.s:789    .debug_abbrev:0000000000000000 .Ldebug_abbrev0
     /tmp/ccb5iSUx.s:1653   .debug_str:00000000000003d8 .LASF68
     /tmp/ccb5iSUx.s:1667   .debug_str:000000000000050f .LASF69
     /tmp/ccb5iSUx.s:1549   .debug_str:00000000000000ce .LASF70
     /tmp/ccb5iSUx.s:5      .text:0000000000000000 .Ltext0
     /tmp/ccb5iSUx.s:144    .text:00000000000000ac .Letext0
     /tmp/ccb5iSUx.s:1515   .debug_line:0000000000000000 .Ldebug_line0
     /tmp/ccb5iSUx.s:1631   .debug_str:000000000000032d .LASF3
     /tmp/ccb5iSUx.s:1593   .debug_str:0000000000000213 .LASF71
     /tmp/ccb5iSUx.s:1599   .debug_str:0000000000000248 .LASF72
     /tmp/ccb5iSUx.s:1623   .debug_str:0000000000000307 .LASF0
     /tmp/ccb5iSUx.s:1613   .debug_str:00000000000002b3 .LASF73
     /tmp/ccb5iSUx.s:1539   .debug_str:0000000000000092 .LASF1
     /tmp/ccb5iSUx.s:1591   .debug_str:000000000000020e .LASF2
     /tmp/ccb5iSUx.s:1659   .debug_str:00000000000004da .LASF4
     /tmp/ccb5iSUx.s:1519   .debug_str:0000000000000010 .LASF74
     /tmp/ccb5iSUx.s:1649   .debug_str:00000000000003a8 .LASF5
     /tmp/ccb5iSUx.s:1545   .debug_str:00000000000000c1 .LASF6
     /tmp/ccb5iSUx.s:1595   .debug_str:0000000000000227 .LASF7
     /tmp/ccb5iSUx.s:1527   .debug_str:0000000000000037 .LASF75
     /tmp/ccb5iSUx.s:1543   .debug_str:00000000000000a6 .LASF8
     /tmp/ccb5iSUx.s:1579   .debug_str:00000000000001b4 .LASF9
     /tmp/ccb5iSUx.s:1615   .debug_str:00000000000002cb .LASF10
     /tmp/ccb5iSUx.s:1581   .debug_str:00000000000001bc .LASF11
     /tmp/ccb5iSUx.s:1529   .debug_str:000000000000003c .LASF12
     /tmp/ccb5iSUx.s:1651   .debug_str:00000000000003b1 .LASF13
     /tmp/ccb5iSUx.s:1619   .debug_str:00000000000002ee .LASF14
     /tmp/ccb5iSUx.s:1559   .debug_str:0000000000000137 .LASF15
     /tmp/ccb5iSUx.s:1587   .debug_str:00000000000001fb .LASF16
     /tmp/ccb5iSUx.s:1523   .debug_str:000000000000001e .LASF17
     /tmp/ccb5iSUx.s:1681   .debug_str:0000000000000594 .LASF20
     /tmp/ccb5iSUx.s:1639   .debug_str:0000000000000355 .LASF22
     /tmp/ccb5iSUx.s:1569   .debug_str:0000000000000183 .LASF76
     /tmp/ccb5iSUx.s:1555   .debug_str:0000000000000110 .LASF77
GAS LISTING /tmp/ccb5iSUx.s 			page 7


     /tmp/ccb5iSUx.s:1597   .debug_str:000000000000023f .LASF18
     /tmp/ccb5iSUx.s:1583   .debug_str:00000000000001c9 .LASF19
     /tmp/ccb5iSUx.s:1641   .debug_str:000000000000036a .LASF21
     /tmp/ccb5iSUx.s:1563   .debug_str:0000000000000158 .LASF23
     /tmp/ccb5iSUx.s:1607   .debug_str:000000000000029f .LASF24
     /tmp/ccb5iSUx.s:1553   .debug_str:00000000000000fa .LASF25
     /tmp/ccb5iSUx.s:1671   .debug_str:000000000000052b .LASF26
     /tmp/ccb5iSUx.s:1531   .debug_str:0000000000000060 .LASF27
     /tmp/ccb5iSUx.s:1647   .debug_str:0000000000000398 .LASF28
     /tmp/ccb5iSUx.s:1661   .debug_str:00000000000004e1 .LASF32
     /tmp/ccb5iSUx.s:1557   .debug_str:0000000000000127 .LASF29
     /tmp/ccb5iSUx.s:1541   .debug_str:0000000000000097 .LASF30
     /tmp/ccb5iSUx.s:1573   .debug_str:0000000000000194 .LASF31
     /tmp/ccb5iSUx.s:1517   .debug_str:0000000000000000 .LASF33
     /tmp/ccb5iSUx.s:1609   .debug_str:00000000000002a8 .LASF34
     /tmp/ccb5iSUx.s:1669   .debug_str:0000000000000521 .LASF35
     /tmp/ccb5iSUx.s:1577   .debug_str:00000000000001ac .LASF36
     /tmp/ccb5iSUx.s:1575   .debug_str:00000000000001a7 .LASF37
     /tmp/ccb5iSUx.s:1611   .debug_str:00000000000002ae .LASF38
     /tmp/ccb5iSUx.s:1521   .debug_str:0000000000000018 .LASF39
     /tmp/ccb5iSUx.s:1677   .debug_str:000000000000057b .LASF40
     /tmp/ccb5iSUx.s:1551   .debug_str:00000000000000ec .LASF41
     /tmp/ccb5iSUx.s:1601   .debug_str:0000000000000263 .LASF42
     /tmp/ccb5iSUx.s:1665   .debug_str:0000000000000501 .LASF78
     /tmp/ccb5iSUx.s:1655   .debug_str:000000000000049c .LASF79
     /tmp/ccb5iSUx.s:1565   .debug_str:000000000000016b .LASF80
     /tmp/ccb5iSUx.s:1675   .debug_str:000000000000054e .LASF81
     /tmp/ccb5iSUx.s:1547   .debug_str:00000000000000c9 .LASF43
     /tmp/ccb5iSUx.s:1605   .debug_str:0000000000000292 .LASF44
     /tmp/ccb5iSUx.s:1621   .debug_str:00000000000002f4 .LASF45
     /tmp/ccb5iSUx.s:1589   .debug_str:0000000000000200 .LASF46
     /tmp/ccb5iSUx.s:1537   .debug_str:000000000000008b .LASF48
     /tmp/ccb5iSUx.s:1645   .debug_str:0000000000000386 .LASF47
     /tmp/ccb5iSUx.s:1525   .debug_str:0000000000000030 .LASF49
     /tmp/ccb5iSUx.s:1657   .debug_str:00000000000004c7 .LASF50
     /tmp/ccb5iSUx.s:1603   .debug_str:000000000000027f .LASF51
     /tmp/ccb5iSUx.s:1663   .debug_str:00000000000004f1 .LASF52
     /tmp/ccb5iSUx.s:1561   .debug_str:000000000000014a .LASF53
     /tmp/ccb5iSUx.s:1635   .debug_str:000000000000033d .LASF54
     /tmp/ccb5iSUx.s:1625   .debug_str:000000000000030f .LASF55
     /tmp/ccb5iSUx.s:1585   .debug_str:00000000000001eb .LASF56
     /tmp/ccb5iSUx.s:1533   .debug_str:000000000000006f .LASF57
     /tmp/ccb5iSUx.s:1535   .debug_str:000000000000007f .LASF58
     /tmp/ccb5iSUx.s:1643   .debug_str:0000000000000370 .LASF59
     /tmp/ccb5iSUx.s:1673   .debug_str:0000000000000538 .LASF60
     /tmp/ccb5iSUx.s:1567   .debug_str:0000000000000177 .LASF82
     /tmp/ccb5iSUx.s:1633   .debug_str:0000000000000337 .LASF61
     /tmp/ccb5iSUx.s:1629   .debug_str:0000000000000325 .LASF62
     /tmp/ccb5iSUx.s:1571   .debug_str:000000000000018c .LASF63
     /tmp/ccb5iSUx.s:1637   .debug_str:000000000000034c .LASF64
     /tmp/ccb5iSUx.s:1617   .debug_str:00000000000002da .LASF65
     /tmp/ccb5iSUx.s:1679   .debug_str:0000000000000580 .LASF66
     /tmp/ccb5iSUx.s:108    .text:0000000000000088 .LFB8
     /tmp/ccb5iSUx.s:128    .text:00000000000000ac .LFE8
     /tmp/ccb5iSUx.s:63     .text:0000000000000044 .LFB7
     /tmp/ccb5iSUx.s:102    .text:0000000000000088 .LFE7
     /tmp/ccb5iSUx.s:1627   .debug_str:000000000000031e .LASF67
GAS LISTING /tmp/ccb5iSUx.s 			page 8


     /tmp/ccb5iSUx.s:10     .text:0000000000000000 .LFB6
     /tmp/ccb5iSUx.s:57     .text:0000000000000044 .LFE6
     /tmp/ccb5iSUx.s:1491   .debug_loc:0000000000000000 .LLST0
     /tmp/ccb5iSUx.s:26     .text:0000000000000018 .LVL0
     /tmp/ccb5iSUx.s:39     .text:000000000000002c .LVL1
     /tmp/ccb5iSUx.s:49     .text:0000000000000038 .LVL2
     /tmp/ccb5iSUx.s:149    .debug_info:0000000000000000 .Ldebug_info0

NO UNDEFINED SYMBOLS
