GAS LISTING /tmp/ccbIqy3a.s 			page 1


   1              		.file	"Scheduler.cpp"
   2              		.option pic
   3              		.option norelax
   4              		.text
   5              	.Ltext0:
   6              		.align	2
   7              		.globl	_ZN9Scheduler3getEv
   9              	_ZN9Scheduler3getEv:
  10              	.LFB6:
  11              		.file 1 "src/Scheduler.cpp"
   1:src/Scheduler.cpp **** //
   2:src/Scheduler.cpp **** // Created by os on 10/8/25.
   3:src/Scheduler.cpp **** //
   4:src/Scheduler.cpp **** 
   5:src/Scheduler.cpp **** #include "../h/Scheduler.hpp"
   6:src/Scheduler.cpp **** #include "../h/KThread.hpp"
   7:src/Scheduler.cpp **** 
   8:src/Scheduler.cpp **** KThread* Scheduler::head = nullptr;
   9:src/Scheduler.cpp **** KThread* Scheduler::tail = nullptr;
  10:src/Scheduler.cpp **** 
  11:src/Scheduler.cpp **** KThread* Scheduler::get() {
  12              		.loc 1 11 27
  13              		.cfi_startproc
  14 0000 130101FF 		addi	sp,sp,-16
  15              		.cfi_def_cfa_offset 16
  16 0004 23348100 		sd	s0,8(sp)
  17              		.cfi_offset 8, -8
  18 0008 13040101 		addi	s0,sp,16
  19              		.cfi_def_cfa 8, 0
  12:src/Scheduler.cpp ****     if (!head) return nullptr;
  20              		.loc 1 12 5
  21              		.loc 1 12 9 is_stmt 0
  22 000c 17050000 		ld	a0,.LANCHOR0
  22      03350500 
  23              		.loc 1 12 5
  24 0014 630C0500 		beqz	a0,.L1
  13:src/Scheduler.cpp **** 
  14:src/Scheduler.cpp ****     KThread* thread = head;
  25              		.loc 1 14 5 is_stmt 1
  26              	.LVL0:
  15:src/Scheduler.cpp ****     head = head->schedulerNext;
  27              		.loc 1 15 5
  28              		.loc 1 15 18 is_stmt 0
  29 0018 83378503 		ld	a5,56(a0)
  30              		.loc 1 15 10
  31 001c 17070000 		sd	a5,.LANCHOR0,a4
  31      2330F700 
  16:src/Scheduler.cpp **** 
  17:src/Scheduler.cpp ****     if (!head) tail = nullptr;
  32              		.loc 1 17 5 is_stmt 1
  33 0024 638A0700 		beqz	a5,.L5
  34              	.L3:
  18:src/Scheduler.cpp ****     thread->schedulerNext = nullptr;
  35              		.loc 1 18 5
  36              		.loc 1 18 27 is_stmt 0
  37 0028 233C0502 		sd	zero,56(a0)
  19:src/Scheduler.cpp **** 
GAS LISTING /tmp/ccbIqy3a.s 			page 2


  20:src/Scheduler.cpp ****     return thread;
  38              		.loc 1 20 5 is_stmt 1
  39              	.LVL1:
  40              	.L1:
  21:src/Scheduler.cpp **** }
  41              		.loc 1 21 1 is_stmt 0
  42 002c 03348100 		ld	s0,8(sp)
  43              		.cfi_remember_state
  44              		.cfi_restore 8
  45              		.cfi_def_cfa 2, 16
  46 0030 13010101 		addi	sp,sp,16
  47              		.cfi_def_cfa_offset 0
  48 0034 67800000 		jr	ra
  49              	.LVL2:
  50              	.L5:
  51              		.cfi_restore_state
  17:src/Scheduler.cpp ****     thread->schedulerNext = nullptr;
  52              		.loc 1 17 16 is_stmt 1 discriminator 1
  17:src/Scheduler.cpp ****     thread->schedulerNext = nullptr;
  53              		.loc 1 17 21 is_stmt 0 discriminator 1
  54 0038 97070000 		sd	zero,.LANCHOR0+8,a5
  54      23B00700 
  55 0040 6FF09FFE 		j	.L3
  56              		.cfi_endproc
  57              	.LFE6:
  59              		.align	2
  60              		.globl	_ZN9Scheduler3putEP7KThread
  62              	_ZN9Scheduler3putEP7KThread:
  63              	.LFB7:
  22:src/Scheduler.cpp **** 
  23:src/Scheduler.cpp **** void Scheduler::put(KThread* thread) {
  64              		.loc 1 23 38 is_stmt 1
  65              		.cfi_startproc
  66              	.LVL3:
  67 0044 130101FF 		addi	sp,sp,-16
  68              		.cfi_def_cfa_offset 16
  69 0048 23348100 		sd	s0,8(sp)
  70              		.cfi_offset 8, -8
  71 004c 13040101 		addi	s0,sp,16
  72              		.cfi_def_cfa 8, 0
  24:src/Scheduler.cpp ****     if (!head) head = thread;
  73              		.loc 1 24 5
  74              		.loc 1 24 9 is_stmt 0
  75 0050 97070000 		ld	a5,.LANCHOR0
  75      83B70700 
  76              		.loc 1 24 5
  77 0058 63820702 		beqz	a5,.L10
  25:src/Scheduler.cpp ****     else tail->schedulerNext = thread;
  78              		.loc 1 25 10 is_stmt 1
  79              		.loc 1 25 16 is_stmt 0
  80 005c 97070000 		ld	a5,.LANCHOR0+8
  80      83B70700 
  81              		.loc 1 25 30
  82 0064 23BCA702 		sd	a0,56(a5)
  83              	.L8:
  26:src/Scheduler.cpp ****     tail = thread;
  84              		.loc 1 26 5 is_stmt 1
GAS LISTING /tmp/ccbIqy3a.s 			page 3


  85              		.loc 1 26 10 is_stmt 0
  86 0068 97070000 		sd	a0,.LANCHOR0+8,a5
  86      23B0A700 
  27:src/Scheduler.cpp **** }
  87              		.loc 1 27 1
  88 0070 03348100 		ld	s0,8(sp)
  89              		.cfi_remember_state
  90              		.cfi_restore 8
  91              		.cfi_def_cfa 2, 16
  92 0074 13010101 		addi	sp,sp,16
  93              		.cfi_def_cfa_offset 0
  94 0078 67800000 		jr	ra
  95              	.L10:
  96              		.cfi_restore_state
  24:src/Scheduler.cpp ****     else tail->schedulerNext = thread;
  97              		.loc 1 24 16 is_stmt 1 discriminator 1
  24:src/Scheduler.cpp ****     else tail->schedulerNext = thread;
  98              		.loc 1 24 21 is_stmt 0 discriminator 1
  99 007c 97070000 		sd	a0,.LANCHOR0,a5
  99      23B0A700 
 100 0084 6FF05FFE 		j	.L8
 101              		.cfi_endproc
 102              	.LFE7:
 104              		.align	2
 105              		.globl	_ZN9Scheduler7isEmptyEv
 107              	_ZN9Scheduler7isEmptyEv:
 108              	.LFB8:
  28:src/Scheduler.cpp **** 
  29:src/Scheduler.cpp **** bool Scheduler::isEmpty() {
 109              		.loc 1 29 27 is_stmt 1
 110              		.cfi_startproc
 111 0088 130101FF 		addi	sp,sp,-16
 112              		.cfi_def_cfa_offset 16
 113 008c 23348100 		sd	s0,8(sp)
 114              		.cfi_offset 8, -8
 115 0090 13040101 		addi	s0,sp,16
 116              		.cfi_def_cfa 8, 0
  30:src/Scheduler.cpp ****     return head == nullptr;
 117              		.loc 1 30 5
  31:src/Scheduler.cpp **** }...
 118              		.loc 1 31 1 is_stmt 0
 119 0094 17050000 		ld	a0,.LANCHOR0
 119      03350500 
 120 009c 13351500 		seqz	a0,a0
 121 00a0 03348100 		ld	s0,8(sp)
 122              		.cfi_restore 8
 123              		.cfi_def_cfa 2, 16
 124 00a4 13010101 		addi	sp,sp,16
 125              		.cfi_def_cfa_offset 0
 126 00a8 67800000 		jr	ra
 127              		.cfi_endproc
 128              	.LFE8:
 130              		.globl	_ZN9Scheduler4tailE
 131              		.globl	_ZN9Scheduler4headE
 132              		.bss
 133              		.align	3
 134              		.set	.LANCHOR0,. + 0
GAS LISTING /tmp/ccbIqy3a.s 			page 4


 137              	_ZN9Scheduler4headE:
 138 0000 00000000 		.zero	8
 138      00000000 
 141              	_ZN9Scheduler4tailE:
 142 0008 00000000 		.zero	8
 142      00000000 
 143              		.text
 144              	.Letext0:
 145              		.file 2 "src/../h/Scheduler.hpp"
 146              		.file 3 "src/../h/KThread.hpp"
 147              		.file 4 "src/../h/../lib/hw.h"
GAS LISTING /tmp/ccbIqy3a.s 			page 5


DEFINED SYMBOLS
                            *ABS*:0000000000000000 Scheduler.cpp
     /tmp/ccbIqy3a.s:9      .text:0000000000000000 _ZN9Scheduler3getEv
     /tmp/ccbIqy3a.s:13     .text:0000000000000000 .L0 
     /tmp/ccbIqy3a.s:14     .text:0000000000000000 .L0 
     /tmp/ccbIqy3a.s:15     .text:0000000000000004 .L0 
     /tmp/ccbIqy3a.s:17     .text:0000000000000008 .L0 
     /tmp/ccbIqy3a.s:19     .text:000000000000000c .L0 
     /tmp/ccbIqy3a.s:21     .text:000000000000000c .L0 
     /tmp/ccbIqy3a.s:22     .text:000000000000000c .L0 
     /tmp/ccbIqy3a.s:24     .text:0000000000000014 .L0 
     /tmp/ccbIqy3a.s:27     .text:0000000000000018 .L0 
     /tmp/ccbIqy3a.s:28     .text:0000000000000018 .L0 
     /tmp/ccbIqy3a.s:29     .text:0000000000000018 .L0 
     /tmp/ccbIqy3a.s:31     .text:000000000000001c .L0 
     /tmp/ccbIqy3a.s:33     .text:0000000000000024 .L0 
     /tmp/ccbIqy3a.s:36     .text:0000000000000028 .L0 
     /tmp/ccbIqy3a.s:37     .text:0000000000000028 .L0 
     /tmp/ccbIqy3a.s:41     .text:000000000000002c .L0 
     /tmp/ccbIqy3a.s:42     .text:000000000000002c .L0 
     /tmp/ccbIqy3a.s:43     .text:0000000000000030 .L0 
     /tmp/ccbIqy3a.s:44     .text:0000000000000030 .L0 
     /tmp/ccbIqy3a.s:45     .text:0000000000000030 .L0 
     /tmp/ccbIqy3a.s:47     .text:0000000000000034 .L0 
     /tmp/ccbIqy3a.s:51     .text:0000000000000038 .L0 
     /tmp/ccbIqy3a.s:53     .text:0000000000000038 .L0 
     /tmp/ccbIqy3a.s:54     .text:0000000000000038 .L0 
     /tmp/ccbIqy3a.s:56     .text:0000000000000044 .L0 
     /tmp/ccbIqy3a.s:62     .text:0000000000000044 _ZN9Scheduler3putEP7KThread
     /tmp/ccbIqy3a.s:65     .text:0000000000000044 .L0 
     /tmp/ccbIqy3a.s:67     .text:0000000000000044 .L0 
     /tmp/ccbIqy3a.s:68     .text:0000000000000048 .L0 
     /tmp/ccbIqy3a.s:70     .text:000000000000004c .L0 
     /tmp/ccbIqy3a.s:72     .text:0000000000000050 .L0 
     /tmp/ccbIqy3a.s:74     .text:0000000000000050 .L0 
     /tmp/ccbIqy3a.s:75     .text:0000000000000050 .L0 
     /tmp/ccbIqy3a.s:77     .text:0000000000000058 .L0 
     /tmp/ccbIqy3a.s:79     .text:000000000000005c .L0 
     /tmp/ccbIqy3a.s:80     .text:000000000000005c .L0 
     /tmp/ccbIqy3a.s:82     .text:0000000000000064 .L0 
     /tmp/ccbIqy3a.s:85     .text:0000000000000068 .L0 
     /tmp/ccbIqy3a.s:86     .text:0000000000000068 .L0 
     /tmp/ccbIqy3a.s:88     .text:0000000000000070 .L0 
     /tmp/ccbIqy3a.s:89     .text:0000000000000074 .L0 
     /tmp/ccbIqy3a.s:90     .text:0000000000000074 .L0 
     /tmp/ccbIqy3a.s:91     .text:0000000000000074 .L0 
     /tmp/ccbIqy3a.s:93     .text:0000000000000078 .L0 
     /tmp/ccbIqy3a.s:96     .text:000000000000007c .L0 
     /tmp/ccbIqy3a.s:98     .text:000000000000007c .L0 
     /tmp/ccbIqy3a.s:99     .text:000000000000007c .L0 
     /tmp/ccbIqy3a.s:101    .text:0000000000000088 .L0 
     /tmp/ccbIqy3a.s:107    .text:0000000000000088 _ZN9Scheduler7isEmptyEv
     /tmp/ccbIqy3a.s:110    .text:0000000000000088 .L0 
     /tmp/ccbIqy3a.s:111    .text:0000000000000088 .L0 
     /tmp/ccbIqy3a.s:112    .text:000000000000008c .L0 
     /tmp/ccbIqy3a.s:114    .text:0000000000000090 .L0 
     /tmp/ccbIqy3a.s:116    .text:0000000000000094 .L0 
GAS LISTING /tmp/ccbIqy3a.s 			page 6


     /tmp/ccbIqy3a.s:118    .text:0000000000000094 .L0 
     /tmp/ccbIqy3a.s:119    .text:0000000000000094 .L0 
     /tmp/ccbIqy3a.s:122    .text:00000000000000a4 .L0 
     /tmp/ccbIqy3a.s:123    .text:00000000000000a4 .L0 
     /tmp/ccbIqy3a.s:125    .text:00000000000000a8 .L0 
     /tmp/ccbIqy3a.s:127    .text:00000000000000ac .L0 
     /tmp/ccbIqy3a.s:141    .bss:0000000000000008 _ZN9Scheduler4tailE
     /tmp/ccbIqy3a.s:137    .bss:0000000000000000 _ZN9Scheduler4headE
     /tmp/ccbIqy3a.s:134    .bss:0000000000000000 .LANCHOR0
     /tmp/ccbIqy3a.s:148    .text:00000000000000ac .L0 
     /tmp/ccbIqy3a.s:22     .text:000000000000000c .L0 
     /tmp/ccbIqy3a.s:31     .text:000000000000001c .L0 
     /tmp/ccbIqy3a.s:54     .text:0000000000000038 .L0 
     /tmp/ccbIqy3a.s:75     .text:0000000000000050 .L0 
     /tmp/ccbIqy3a.s:80     .text:000000000000005c .L0 
     /tmp/ccbIqy3a.s:86     .text:0000000000000068 .L0 
     /tmp/ccbIqy3a.s:99     .text:000000000000007c .L0 
     /tmp/ccbIqy3a.s:119    .text:0000000000000094 .L0 
     /tmp/ccbIqy3a.s:40     .text:000000000000002c .L1
     /tmp/ccbIqy3a.s:50     .text:0000000000000038 .L5
     /tmp/ccbIqy3a.s:34     .text:0000000000000028 .L3
     /tmp/ccbIqy3a.s:95     .text:000000000000007c .L10
     /tmp/ccbIqy3a.s:83     .text:0000000000000068 .L8
     /tmp/ccbIqy3a.s:769    .debug_abbrev:0000000000000000 .Ldebug_abbrev0
     /tmp/ccbIqy3a.s:1637   .debug_str:000000000000040c .LASF67
     /tmp/ccbIqy3a.s:1649   .debug_str:000000000000051f .LASF68
     /tmp/ccbIqy3a.s:1529   .debug_str:00000000000000c4 .LASF69
     /tmp/ccbIqy3a.s:5      .text:0000000000000000 .Ltext0
     /tmp/ccbIqy3a.s:144    .text:00000000000000ac .Letext0
     /tmp/ccbIqy3a.s:1497   .debug_line:0000000000000000 .Ldebug_line0
     /tmp/ccbIqy3a.s:1603   .debug_str:00000000000002ea .LASF3
     /tmp/ccbIqy3a.s:1567   .debug_str:00000000000001e8 .LASF70
     /tmp/ccbIqy3a.s:1621   .debug_str:0000000000000379 .LASF71
     /tmp/ccbIqy3a.s:1595   .debug_str:00000000000002ba .LASF0
     /tmp/ccbIqy3a.s:1587   .debug_str:0000000000000273 .LASF72
     /tmp/ccbIqy3a.s:1521   .debug_str:00000000000000aa .LASF1
     /tmp/ccbIqy3a.s:1565   .debug_str:00000000000001e3 .LASF2
     /tmp/ccbIqy3a.s:1523   .debug_str:00000000000000af .LASF4
     /tmp/ccbIqy3a.s:1503   .debug_str:0000000000000033 .LASF73
     /tmp/ccbIqy3a.s:1629   .debug_str:00000000000003ca .LASF5
     /tmp/ccbIqy3a.s:1525   .debug_str:00000000000000b7 .LASF6
     /tmp/ccbIqy3a.s:1615   .debug_str:0000000000000354 .LASF7
     /tmp/ccbIqy3a.s:1613   .debug_str:0000000000000344 .LASF9
     /tmp/ccbIqy3a.s:1557   .debug_str:00000000000001b3 .LASF8
     /tmp/ccbIqy3a.s:1531   .debug_str:00000000000000e2 .LASF10
     /tmp/ccbIqy3a.s:1511   .debug_str:000000000000005b .LASF74
     /tmp/ccbIqy3a.s:1513   .debug_str:0000000000000060 .LASF11
     /tmp/ccbIqy3a.s:1591   .debug_str:000000000000029f .LASF12
     /tmp/ccbIqy3a.s:1537   .debug_str:0000000000000127 .LASF13
     /tmp/ccbIqy3a.s:1561   .debug_str:00000000000001d0 .LASF14
     /tmp/ccbIqy3a.s:1627   .debug_str:00000000000003b7 .LASF15
     /tmp/ccbIqy3a.s:1661   .debug_str:0000000000000587 .LASF18
     /tmp/ccbIqy3a.s:1515   .debug_str:0000000000000081 .LASF20
     /tmp/ccbIqy3a.s:1545   .debug_str:000000000000016b .LASF75
     /tmp/ccbIqy3a.s:1635   .debug_str:00000000000003f4 .LASF76
     /tmp/ccbIqy3a.s:1573   .debug_str:0000000000000216 .LASF16
     /tmp/ccbIqy3a.s:1499   .debug_str:0000000000000000 .LASF17
GAS LISTING /tmp/ccbIqy3a.s 			page 7


     /tmp/ccbIqy3a.s:1619   .debug_str:0000000000000373 .LASF19
     /tmp/ccbIqy3a.s:1541   .debug_str:000000000000014b .LASF21
     /tmp/ccbIqy3a.s:1581   .debug_str:000000000000025f .LASF22
     /tmp/ccbIqy3a.s:1555   .debug_str:000000000000019c .LASF23
     /tmp/ccbIqy3a.s:1651   .debug_str:0000000000000531 .LASF24
     /tmp/ccbIqy3a.s:1633   .debug_str:00000000000003e4 .LASF25
     /tmp/ccbIqy3a.s:1625   .debug_str:00000000000003a7 .LASF26
     /tmp/ccbIqy3a.s:1631   .debug_str:00000000000003d3 .LASF30
     /tmp/ccbIqy3a.s:1533   .debug_str:0000000000000109 .LASF27
     /tmp/ccbIqy3a.s:1539   .debug_str:000000000000013b .LASF28
     /tmp/ccbIqy3a.s:1549   .debug_str:000000000000017c .LASF29
     /tmp/ccbIqy3a.s:1657   .debug_str:0000000000000562 .LASF31
     /tmp/ccbIqy3a.s:1599   .debug_str:00000000000002c7 .LASF32
     /tmp/ccbIqy3a.s:1593   .debug_str:00000000000002a5 .LASF33
     /tmp/ccbIqy3a.s:1551   .debug_str:000000000000018f .LASF34
     /tmp/ccbIqy3a.s:1585   .debug_str:000000000000026e .LASF35
     /tmp/ccbIqy3a.s:1583   .debug_str:0000000000000268 .LASF36
     /tmp/ccbIqy3a.s:1553   .debug_str:0000000000000194 .LASF37
     /tmp/ccbIqy3a.s:1507   .debug_str:000000000000004e .LASF38
     /tmp/ccbIqy3a.s:1653   .debug_str:000000000000053e .LASF39
     /tmp/ccbIqy3a.s:1571   .debug_str:0000000000000208 .LASF40
     /tmp/ccbIqy3a.s:1647   .debug_str:0000000000000511 .LASF77
     /tmp/ccbIqy3a.s:1577   .debug_str:0000000000000226 .LASF78
     /tmp/ccbIqy3a.s:1569   .debug_str:00000000000001fc .LASF79
     /tmp/ccbIqy3a.s:1611   .debug_str:0000000000000316 .LASF80
     /tmp/ccbIqy3a.s:1527   .debug_str:00000000000000bf .LASF41
     /tmp/ccbIqy3a.s:1579   .debug_str:0000000000000252 .LASF42
     /tmp/ccbIqy3a.s:1607   .debug_str:00000000000002fa .LASF43
     /tmp/ccbIqy3a.s:1563   .debug_str:00000000000001d5 .LASF44
     /tmp/ccbIqy3a.s:1519   .debug_str:00000000000000a3 .LASF46
     /tmp/ccbIqy3a.s:1623   .debug_str:0000000000000395 .LASF45
     /tmp/ccbIqy3a.s:1509   .debug_str:0000000000000054 .LASF47
     /tmp/ccbIqy3a.s:1641   .debug_str:00000000000004df .LASF48
     /tmp/ccbIqy3a.s:1505   .debug_str:000000000000003b .LASF49
     /tmp/ccbIqy3a.s:1643   .debug_str:00000000000004f2 .LASF50
     /tmp/ccbIqy3a.s:1535   .debug_str:0000000000000119 .LASF51
     /tmp/ccbIqy3a.s:1645   .debug_str:0000000000000502 .LASF52
     /tmp/ccbIqy3a.s:1639   .debug_str:00000000000004d0 .LASF53
     /tmp/ccbIqy3a.s:1559   .debug_str:00000000000001c0 .LASF54
     /tmp/ccbIqy3a.s:1501   .debug_str:0000000000000023 .LASF55
     /tmp/ccbIqy3a.s:1517   .debug_str:0000000000000097 .LASF56
     /tmp/ccbIqy3a.s:1617   .debug_str:000000000000035d .LASF57
     /tmp/ccbIqy3a.s:1655   .debug_str:000000000000054c .LASF58
     /tmp/ccbIqy3a.s:1543   .debug_str:000000000000015f .LASF81
     /tmp/ccbIqy3a.s:1605   .debug_str:00000000000002f4 .LASF59
     /tmp/ccbIqy3a.s:1601   .debug_str:00000000000002e2 .LASF60
     /tmp/ccbIqy3a.s:1547   .debug_str:0000000000000174 .LASF61
     /tmp/ccbIqy3a.s:1609   .debug_str:000000000000030d .LASF62
     /tmp/ccbIqy3a.s:1597   .debug_str:00000000000002c2 .LASF63
     /tmp/ccbIqy3a.s:1589   .debug_str:000000000000028b .LASF64
     /tmp/ccbIqy3a.s:1659   .debug_str:0000000000000573 .LASF65
     /tmp/ccbIqy3a.s:108    .text:0000000000000088 .LFB8
     /tmp/ccbIqy3a.s:128    .text:00000000000000ac .LFE8
     /tmp/ccbIqy3a.s:63     .text:0000000000000044 .LFB7
     /tmp/ccbIqy3a.s:102    .text:0000000000000088 .LFE7
     /tmp/ccbIqy3a.s:1575   .debug_str:000000000000021f .LASF66
     /tmp/ccbIqy3a.s:10     .text:0000000000000000 .LFB6
GAS LISTING /tmp/ccbIqy3a.s 			page 8


     /tmp/ccbIqy3a.s:57     .text:0000000000000044 .LFE6
     /tmp/ccbIqy3a.s:1473   .debug_loc:0000000000000000 .LLST0
     /tmp/ccbIqy3a.s:26     .text:0000000000000018 .LVL0
     /tmp/ccbIqy3a.s:39     .text:000000000000002c .LVL1
     /tmp/ccbIqy3a.s:49     .text:0000000000000038 .LVL2
     /tmp/ccbIqy3a.s:149    .debug_info:0000000000000000 .Ldebug_info0

NO UNDEFINED SYMBOLS
