GAS LISTING /tmp/ccwsWEHm.s 			page 1


   1              		.file	"Scheduler.cpp"
   2              		.option pic
   3              		.option norelax
   4              		.text
   5              	.Ltext0:
   6              		.align	2
   7              		.globl	_ZN9Scheduler3getEv
   9              	_ZN9Scheduler3getEv:
  10              	.LFB6:
  11              		.file 1 "src/Scheduler.cpp"
   1:src/Scheduler.cpp **** //
   2:src/Scheduler.cpp **** // Created by os on 10/8/25.
   3:src/Scheduler.cpp **** //
   4:src/Scheduler.cpp **** 
   5:src/Scheduler.cpp **** #include "../h/Scheduler.hpp"
   6:src/Scheduler.cpp **** #include "../h/KThread.hpp"
   7:src/Scheduler.cpp **** 
   8:src/Scheduler.cpp **** KThread* Scheduler::head = nullptr;
   9:src/Scheduler.cpp **** KThread* Scheduler::tail = nullptr;
  10:src/Scheduler.cpp **** 
  11:src/Scheduler.cpp **** KThread* Scheduler::get() {
  12              		.loc 1 11 27
  13              		.cfi_startproc
  14 0000 130101FF 		addi	sp,sp,-16
  15              		.cfi_def_cfa_offset 16
  16 0004 23348100 		sd	s0,8(sp)
  17              		.cfi_offset 8, -8
  18 0008 13040101 		addi	s0,sp,16
  19              		.cfi_def_cfa 8, 0
  12:src/Scheduler.cpp ****     if (!head) return nullptr;
  20              		.loc 1 12 5
  21              		.loc 1 12 9 is_stmt 0
  22 000c 17050000 		ld	a0,.LANCHOR0
  22      03350500 
  23              		.loc 1 12 5
  24 0014 630C0500 		beqz	a0,.L1
  13:src/Scheduler.cpp **** 
  14:src/Scheduler.cpp ****     KThread* thread = head;
  25              		.loc 1 14 5 is_stmt 1
  26              	.LVL0:
  15:src/Scheduler.cpp ****     head = head->schedulerNext;
  27              		.loc 1 15 5
  28              		.loc 1 15 18 is_stmt 0
  29 0018 83370504 		ld	a5,64(a0)
  30              		.loc 1 15 10
  31 001c 17070000 		sd	a5,.LANCHOR0,a4
  31      2330F700 
  16:src/Scheduler.cpp **** 
  17:src/Scheduler.cpp ****     if (!head) tail = nullptr;
  32              		.loc 1 17 5 is_stmt 1
  33 0024 638A0700 		beqz	a5,.L5
  34              	.L3:
  18:src/Scheduler.cpp ****     thread->schedulerNext = nullptr;
  35              		.loc 1 18 5
  36              		.loc 1 18 27 is_stmt 0
  37 0028 23300504 		sd	zero,64(a0)
  19:src/Scheduler.cpp **** 
GAS LISTING /tmp/ccwsWEHm.s 			page 2


  20:src/Scheduler.cpp ****     return thread;
  38              		.loc 1 20 5 is_stmt 1
  39              	.LVL1:
  40              	.L1:
  21:src/Scheduler.cpp **** }
  41              		.loc 1 21 1 is_stmt 0
  42 002c 03348100 		ld	s0,8(sp)
  43              		.cfi_remember_state
  44              		.cfi_restore 8
  45              		.cfi_def_cfa 2, 16
  46 0030 13010101 		addi	sp,sp,16
  47              		.cfi_def_cfa_offset 0
  48 0034 67800000 		jr	ra
  49              	.LVL2:
  50              	.L5:
  51              		.cfi_restore_state
  17:src/Scheduler.cpp ****     thread->schedulerNext = nullptr;
  52              		.loc 1 17 16 is_stmt 1 discriminator 1
  17:src/Scheduler.cpp ****     thread->schedulerNext = nullptr;
  53              		.loc 1 17 21 is_stmt 0 discriminator 1
  54 0038 97070000 		sd	zero,.LANCHOR0+8,a5
  54      23B00700 
  55 0040 6FF09FFE 		j	.L3
  56              		.cfi_endproc
  57              	.LFE6:
  59              		.align	2
  60              		.globl	_ZN9Scheduler3putEP7KThread
  62              	_ZN9Scheduler3putEP7KThread:
  63              	.LFB7:
  22:src/Scheduler.cpp **** 
  23:src/Scheduler.cpp **** void Scheduler::put(KThread* thread) {
  64              		.loc 1 23 38 is_stmt 1
  65              		.cfi_startproc
  66              	.LVL3:
  67 0044 130101FF 		addi	sp,sp,-16
  68              		.cfi_def_cfa_offset 16
  69 0048 23348100 		sd	s0,8(sp)
  70              		.cfi_offset 8, -8
  71 004c 13040101 		addi	s0,sp,16
  72              		.cfi_def_cfa 8, 0
  24:src/Scheduler.cpp ****     if (!head) head = thread;
  73              		.loc 1 24 5
  74              		.loc 1 24 9 is_stmt 0
  75 0050 97070000 		ld	a5,.LANCHOR0
  75      83B70700 
  76              		.loc 1 24 5
  77 0058 63820702 		beqz	a5,.L10
  25:src/Scheduler.cpp ****     else tail->schedulerNext = thread;
  78              		.loc 1 25 10 is_stmt 1
  79              		.loc 1 25 16 is_stmt 0
  80 005c 97070000 		ld	a5,.LANCHOR0+8
  80      83B70700 
  81              		.loc 1 25 30
  82 0064 23B0A704 		sd	a0,64(a5)
  83              	.L8:
  26:src/Scheduler.cpp ****     tail = thread;
  84              		.loc 1 26 5 is_stmt 1
GAS LISTING /tmp/ccwsWEHm.s 			page 3


  85              		.loc 1 26 10 is_stmt 0
  86 0068 97070000 		sd	a0,.LANCHOR0+8,a5
  86      23B0A700 
  27:src/Scheduler.cpp **** }
  87              		.loc 1 27 1
  88 0070 03348100 		ld	s0,8(sp)
  89              		.cfi_remember_state
  90              		.cfi_restore 8
  91              		.cfi_def_cfa 2, 16
  92 0074 13010101 		addi	sp,sp,16
  93              		.cfi_def_cfa_offset 0
  94 0078 67800000 		jr	ra
  95              	.L10:
  96              		.cfi_restore_state
  24:src/Scheduler.cpp ****     else tail->schedulerNext = thread;
  97              		.loc 1 24 16 is_stmt 1 discriminator 1
  24:src/Scheduler.cpp ****     else tail->schedulerNext = thread;
  98              		.loc 1 24 21 is_stmt 0 discriminator 1
  99 007c 97070000 		sd	a0,.LANCHOR0,a5
  99      23B0A700 
 100 0084 6FF05FFE 		j	.L8
 101              		.cfi_endproc
 102              	.LFE7:
 104              		.align	2
 105              		.globl	_ZN9Scheduler7isEmptyEv
 107              	_ZN9Scheduler7isEmptyEv:
 108              	.LFB8:
  28:src/Scheduler.cpp **** 
  29:src/Scheduler.cpp **** bool Scheduler::isEmpty() {
 109              		.loc 1 29 27 is_stmt 1
 110              		.cfi_startproc
 111 0088 130101FF 		addi	sp,sp,-16
 112              		.cfi_def_cfa_offset 16
 113 008c 23348100 		sd	s0,8(sp)
 114              		.cfi_offset 8, -8
 115 0090 13040101 		addi	s0,sp,16
 116              		.cfi_def_cfa 8, 0
  30:src/Scheduler.cpp ****     return head == nullptr;
 117              		.loc 1 30 5
  31:src/Scheduler.cpp **** }...
 118              		.loc 1 31 1 is_stmt 0
 119 0094 17050000 		ld	a0,.LANCHOR0
 119      03350500 
 120 009c 13351500 		seqz	a0,a0
 121 00a0 03348100 		ld	s0,8(sp)
 122              		.cfi_restore 8
 123              		.cfi_def_cfa 2, 16
 124 00a4 13010101 		addi	sp,sp,16
 125              		.cfi_def_cfa_offset 0
 126 00a8 67800000 		jr	ra
 127              		.cfi_endproc
 128              	.LFE8:
 130              		.globl	_ZN9Scheduler4tailE
 131              		.globl	_ZN9Scheduler4headE
 132              		.bss
 133              		.align	3
 134              		.set	.LANCHOR0,. + 0
GAS LISTING /tmp/ccwsWEHm.s 			page 4


 137              	_ZN9Scheduler4headE:
 138 0000 00000000 		.zero	8
 138      00000000 
 141              	_ZN9Scheduler4tailE:
 142 0008 00000000 		.zero	8
 142      00000000 
 143              		.text
 144              	.Letext0:
 145              		.file 2 "src/../h/Scheduler.hpp"
 146              		.file 3 "src/../h/KThread.hpp"
 147              		.file 4 "src/../h/../lib/hw.h"
GAS LISTING /tmp/ccwsWEHm.s 			page 5


DEFINED SYMBOLS
                            *ABS*:0000000000000000 Scheduler.cpp
     /tmp/ccwsWEHm.s:9      .text:0000000000000000 _ZN9Scheduler3getEv
     /tmp/ccwsWEHm.s:13     .text:0000000000000000 .L0 
     /tmp/ccwsWEHm.s:14     .text:0000000000000000 .L0 
     /tmp/ccwsWEHm.s:15     .text:0000000000000004 .L0 
     /tmp/ccwsWEHm.s:17     .text:0000000000000008 .L0 
     /tmp/ccwsWEHm.s:19     .text:000000000000000c .L0 
     /tmp/ccwsWEHm.s:21     .text:000000000000000c .L0 
     /tmp/ccwsWEHm.s:22     .text:000000000000000c .L0 
     /tmp/ccwsWEHm.s:24     .text:0000000000000014 .L0 
     /tmp/ccwsWEHm.s:27     .text:0000000000000018 .L0 
     /tmp/ccwsWEHm.s:28     .text:0000000000000018 .L0 
     /tmp/ccwsWEHm.s:29     .text:0000000000000018 .L0 
     /tmp/ccwsWEHm.s:31     .text:000000000000001c .L0 
     /tmp/ccwsWEHm.s:33     .text:0000000000000024 .L0 
     /tmp/ccwsWEHm.s:36     .text:0000000000000028 .L0 
     /tmp/ccwsWEHm.s:37     .text:0000000000000028 .L0 
     /tmp/ccwsWEHm.s:41     .text:000000000000002c .L0 
     /tmp/ccwsWEHm.s:42     .text:000000000000002c .L0 
     /tmp/ccwsWEHm.s:43     .text:0000000000000030 .L0 
     /tmp/ccwsWEHm.s:44     .text:0000000000000030 .L0 
     /tmp/ccwsWEHm.s:45     .text:0000000000000030 .L0 
     /tmp/ccwsWEHm.s:47     .text:0000000000000034 .L0 
     /tmp/ccwsWEHm.s:51     .text:0000000000000038 .L0 
     /tmp/ccwsWEHm.s:53     .text:0000000000000038 .L0 
     /tmp/ccwsWEHm.s:54     .text:0000000000000038 .L0 
     /tmp/ccwsWEHm.s:56     .text:0000000000000044 .L0 
     /tmp/ccwsWEHm.s:62     .text:0000000000000044 _ZN9Scheduler3putEP7KThread
     /tmp/ccwsWEHm.s:65     .text:0000000000000044 .L0 
     /tmp/ccwsWEHm.s:67     .text:0000000000000044 .L0 
     /tmp/ccwsWEHm.s:68     .text:0000000000000048 .L0 
     /tmp/ccwsWEHm.s:70     .text:000000000000004c .L0 
     /tmp/ccwsWEHm.s:72     .text:0000000000000050 .L0 
     /tmp/ccwsWEHm.s:74     .text:0000000000000050 .L0 
     /tmp/ccwsWEHm.s:75     .text:0000000000000050 .L0 
     /tmp/ccwsWEHm.s:77     .text:0000000000000058 .L0 
     /tmp/ccwsWEHm.s:79     .text:000000000000005c .L0 
     /tmp/ccwsWEHm.s:80     .text:000000000000005c .L0 
     /tmp/ccwsWEHm.s:82     .text:0000000000000064 .L0 
     /tmp/ccwsWEHm.s:85     .text:0000000000000068 .L0 
     /tmp/ccwsWEHm.s:86     .text:0000000000000068 .L0 
     /tmp/ccwsWEHm.s:88     .text:0000000000000070 .L0 
     /tmp/ccwsWEHm.s:89     .text:0000000000000074 .L0 
     /tmp/ccwsWEHm.s:90     .text:0000000000000074 .L0 
     /tmp/ccwsWEHm.s:91     .text:0000000000000074 .L0 
     /tmp/ccwsWEHm.s:93     .text:0000000000000078 .L0 
     /tmp/ccwsWEHm.s:96     .text:000000000000007c .L0 
     /tmp/ccwsWEHm.s:98     .text:000000000000007c .L0 
     /tmp/ccwsWEHm.s:99     .text:000000000000007c .L0 
     /tmp/ccwsWEHm.s:101    .text:0000000000000088 .L0 
     /tmp/ccwsWEHm.s:107    .text:0000000000000088 _ZN9Scheduler7isEmptyEv
     /tmp/ccwsWEHm.s:110    .text:0000000000000088 .L0 
     /tmp/ccwsWEHm.s:111    .text:0000000000000088 .L0 
     /tmp/ccwsWEHm.s:112    .text:000000000000008c .L0 
     /tmp/ccwsWEHm.s:114    .text:0000000000000090 .L0 
     /tmp/ccwsWEHm.s:116    .text:0000000000000094 .L0 
GAS LISTING /tmp/ccwsWEHm.s 			page 6


     /tmp/ccwsWEHm.s:118    .text:0000000000000094 .L0 
     /tmp/ccwsWEHm.s:119    .text:0000000000000094 .L0 
     /tmp/ccwsWEHm.s:122    .text:00000000000000a4 .L0 
     /tmp/ccwsWEHm.s:123    .text:00000000000000a4 .L0 
     /tmp/ccwsWEHm.s:125    .text:00000000000000a8 .L0 
     /tmp/ccwsWEHm.s:127    .text:00000000000000ac .L0 
     /tmp/ccwsWEHm.s:141    .bss:0000000000000008 _ZN9Scheduler4tailE
     /tmp/ccwsWEHm.s:137    .bss:0000000000000000 _ZN9Scheduler4headE
     /tmp/ccwsWEHm.s:134    .bss:0000000000000000 .LANCHOR0
     /tmp/ccwsWEHm.s:148    .text:00000000000000ac .L0 
     /tmp/ccwsWEHm.s:22     .text:000000000000000c .L0 
     /tmp/ccwsWEHm.s:31     .text:000000000000001c .L0 
     /tmp/ccwsWEHm.s:54     .text:0000000000000038 .L0 
     /tmp/ccwsWEHm.s:75     .text:0000000000000050 .L0 
     /tmp/ccwsWEHm.s:80     .text:000000000000005c .L0 
     /tmp/ccwsWEHm.s:86     .text:0000000000000068 .L0 
     /tmp/ccwsWEHm.s:99     .text:000000000000007c .L0 
     /tmp/ccwsWEHm.s:119    .text:0000000000000094 .L0 
     /tmp/ccwsWEHm.s:40     .text:000000000000002c .L1
     /tmp/ccwsWEHm.s:50     .text:0000000000000038 .L5
     /tmp/ccwsWEHm.s:34     .text:0000000000000028 .L3
     /tmp/ccwsWEHm.s:95     .text:000000000000007c .L10
     /tmp/ccwsWEHm.s:83     .text:0000000000000068 .L8
     /tmp/ccwsWEHm.s:796    .debug_abbrev:0000000000000000 .Ldebug_abbrev0
     /tmp/ccwsWEHm.s:1666   .debug_str:000000000000044b .LASF69
     /tmp/ccwsWEHm.s:1676   .debug_str:000000000000054f .LASF70
     /tmp/ccwsWEHm.s:1554   .debug_str:00000000000000d8 .LASF71
     /tmp/ccwsWEHm.s:5      .text:0000000000000000 .Ltext0
     /tmp/ccwsWEHm.s:144    .text:00000000000000ac .Letext0
     /tmp/ccwsWEHm.s:1522   .debug_line:0000000000000000 .Ldebug_line0
     /tmp/ccwsWEHm.s:1628   .debug_str:0000000000000304 .LASF3
     /tmp/ccwsWEHm.s:1594   .debug_str:00000000000001fe .LASF72
     /tmp/ccwsWEHm.s:1648   .debug_str:00000000000003a8 .LASF73
     /tmp/ccwsWEHm.s:1622   .debug_str:00000000000002ed .LASF0
     /tmp/ccwsWEHm.s:1614   .debug_str:00000000000002a8 .LASF74
     /tmp/ccwsWEHm.s:1546   .debug_str:00000000000000be .LASF1
     /tmp/ccwsWEHm.s:1592   .debug_str:00000000000001f9 .LASF2
     /tmp/ccwsWEHm.s:1548   .debug_str:00000000000000c3 .LASF4
     /tmp/ccwsWEHm.s:1530   .debug_str:000000000000004f .LASF75
     /tmp/ccwsWEHm.s:1658   .debug_str:0000000000000409 .LASF5
     /tmp/ccwsWEHm.s:1550   .debug_str:00000000000000cb .LASF6
     /tmp/ccwsWEHm.s:1638   .debug_str:000000000000035a .LASF7
     /tmp/ccwsWEHm.s:1536   .debug_str:0000000000000064 .LASF76
     /tmp/ccwsWEHm.s:1524   .debug_str:0000000000000000 .LASF8
     /tmp/ccwsWEHm.s:1642   .debug_str:0000000000000383 .LASF9
     /tmp/ccwsWEHm.s:1640   .debug_str:0000000000000373 .LASF10
     /tmp/ccwsWEHm.s:1584   .debug_str:00000000000001b4 .LASF11
     /tmp/ccwsWEHm.s:1586   .debug_str:00000000000001c1 .LASF12
     /tmp/ccwsWEHm.s:1610   .debug_str:000000000000027b .LASF13
     /tmp/ccwsWEHm.s:1618   .debug_str:00000000000002d4 .LASF14
     /tmp/ccwsWEHm.s:1562   .debug_str:0000000000000122 .LASF15
     /tmp/ccwsWEHm.s:1588   .debug_str:00000000000001e6 .LASF16
     /tmp/ccwsWEHm.s:1656   .debug_str:00000000000003f6 .LASF17
     /tmp/ccwsWEHm.s:1690   .debug_str:00000000000005c1 .LASF20
     /tmp/ccwsWEHm.s:1540   .debug_str:0000000000000095 .LASF22
     /tmp/ccwsWEHm.s:1572   .debug_str:000000000000016c .LASF77
     /tmp/ccwsWEHm.s:1664   .debug_str:0000000000000433 .LASF78
GAS LISTING /tmp/ccwsWEHm.s 			page 7


     /tmp/ccwsWEHm.s:1602   .debug_str:0000000000000249 .LASF18
     /tmp/ccwsWEHm.s:1526   .debug_str:000000000000001c .LASF19
     /tmp/ccwsWEHm.s:1646   .debug_str:00000000000003a2 .LASF21
     /tmp/ccwsWEHm.s:1566   .debug_str:0000000000000146 .LASF23
     /tmp/ccwsWEHm.s:1608   .debug_str:0000000000000272 .LASF24
     /tmp/ccwsWEHm.s:1582   .debug_str:000000000000019d .LASF25
     /tmp/ccwsWEHm.s:1680   .debug_str:000000000000056b .LASF26
     /tmp/ccwsWEHm.s:1662   .debug_str:0000000000000423 .LASF27
     /tmp/ccwsWEHm.s:1654   .debug_str:00000000000003e6 .LASF28
     /tmp/ccwsWEHm.s:1660   .debug_str:0000000000000412 .LASF32
     /tmp/ccwsWEHm.s:1558   .debug_str:0000000000000104 .LASF29
     /tmp/ccwsWEHm.s:1564   .debug_str:0000000000000136 .LASF30
     /tmp/ccwsWEHm.s:1576   .debug_str:000000000000017d .LASF31
     /tmp/ccwsWEHm.s:1686   .debug_str:000000000000059c .LASF33
     /tmp/ccwsWEHm.s:1570   .debug_str:0000000000000166 .LASF34
     /tmp/ccwsWEHm.s:1678   .debug_str:0000000000000561 .LASF35
     /tmp/ccwsWEHm.s:1580   .debug_str:0000000000000195 .LASF36
     /tmp/ccwsWEHm.s:1578   .debug_str:0000000000000190 .LASF37
     /tmp/ccwsWEHm.s:1612   .debug_str:00000000000002a3 .LASF38
     /tmp/ccwsWEHm.s:1532   .debug_str:0000000000000057 .LASF39
     /tmp/ccwsWEHm.s:1682   .debug_str:0000000000000578 .LASF40
     /tmp/ccwsWEHm.s:1600   .debug_str:000000000000023b .LASF41
     /tmp/ccwsWEHm.s:1556   .debug_str:00000000000000f6 .LASF42
     /tmp/ccwsWEHm.s:1598   .debug_str:000000000000021e .LASF43
     /tmp/ccwsWEHm.s:1674   .debug_str:0000000000000541 .LASF79
     /tmp/ccwsWEHm.s:1538   .debug_str:0000000000000069 .LASF80
     /tmp/ccwsWEHm.s:1596   .debug_str:0000000000000212 .LASF81
     /tmp/ccwsWEHm.s:1636   .debug_str:000000000000032c .LASF82
     /tmp/ccwsWEHm.s:1552   .debug_str:00000000000000d3 .LASF44
     /tmp/ccwsWEHm.s:1606   .debug_str:0000000000000265 .LASF45
     /tmp/ccwsWEHm.s:1620   .debug_str:00000000000002da .LASF46
     /tmp/ccwsWEHm.s:1590   .debug_str:00000000000001eb .LASF47
     /tmp/ccwsWEHm.s:1544   .debug_str:00000000000000b7 .LASF49
     /tmp/ccwsWEHm.s:1650   .debug_str:00000000000003c4 .LASF48
     /tmp/ccwsWEHm.s:1534   .debug_str:000000000000005d .LASF50
     /tmp/ccwsWEHm.s:1670   .debug_str:000000000000051e .LASF51
     /tmp/ccwsWEHm.s:1604   .debug_str:0000000000000252 .LASF52
     /tmp/ccwsWEHm.s:1672   .debug_str:0000000000000531 .LASF53
     /tmp/ccwsWEHm.s:1560   .debug_str:0000000000000114 .LASF54
     /tmp/ccwsWEHm.s:1632   .debug_str:0000000000000314 .LASF55
     /tmp/ccwsWEHm.s:1668   .debug_str:000000000000050f .LASF56
     /tmp/ccwsWEHm.s:1652   .debug_str:00000000000003d6 .LASF57
     /tmp/ccwsWEHm.s:1528   .debug_str:000000000000003f .LASF58
     /tmp/ccwsWEHm.s:1542   .debug_str:00000000000000ab .LASF59
     /tmp/ccwsWEHm.s:1644   .debug_str:000000000000038c .LASF60
     /tmp/ccwsWEHm.s:1684   .debug_str:0000000000000586 .LASF61
     /tmp/ccwsWEHm.s:1568   .debug_str:000000000000015a .LASF83
     /tmp/ccwsWEHm.s:1630   .debug_str:000000000000030e .LASF62
     /tmp/ccwsWEHm.s:1626   .debug_str:00000000000002fc .LASF63
     /tmp/ccwsWEHm.s:1574   .debug_str:0000000000000175 .LASF64
     /tmp/ccwsWEHm.s:1634   .debug_str:0000000000000323 .LASF65
     /tmp/ccwsWEHm.s:1616   .debug_str:00000000000002c0 .LASF66
     /tmp/ccwsWEHm.s:1688   .debug_str:00000000000005ad .LASF67
     /tmp/ccwsWEHm.s:108    .text:0000000000000088 .LFB8
     /tmp/ccwsWEHm.s:128    .text:00000000000000ac .LFE8
     /tmp/ccwsWEHm.s:63     .text:0000000000000044 .LFB7
     /tmp/ccwsWEHm.s:102    .text:0000000000000088 .LFE7
GAS LISTING /tmp/ccwsWEHm.s 			page 8


     /tmp/ccwsWEHm.s:1624   .debug_str:00000000000002f5 .LASF68
     /tmp/ccwsWEHm.s:10     .text:0000000000000000 .LFB6
     /tmp/ccwsWEHm.s:57     .text:0000000000000044 .LFE6
     /tmp/ccwsWEHm.s:1498   .debug_loc:0000000000000000 .LLST0
     /tmp/ccwsWEHm.s:26     .text:0000000000000018 .LVL0
     /tmp/ccwsWEHm.s:39     .text:000000000000002c .LVL1
     /tmp/ccwsWEHm.s:49     .text:0000000000000038 .LVL2
     /tmp/ccwsWEHm.s:149    .debug_info:0000000000000000 .Ldebug_info0

NO UNDEFINED SYMBOLS
