GAS LISTING /tmp/ccIjhtD9.s 			page 1


   1              		.file	"Scheduler.cpp"
   2              		.option pic
   3              		.option norelax
   4              		.text
   5              	.Ltext0:
   6              		.align	2
   7              		.globl	_ZN9Scheduler3getEv
   9              	_ZN9Scheduler3getEv:
  10              	.LFB2:
  11              		.file 1 "src/Scheduler.cpp"
   1:src/Scheduler.cpp **** //
   2:src/Scheduler.cpp **** // Created by os on 10/8/25.
   3:src/Scheduler.cpp **** //
   4:src/Scheduler.cpp **** 
   5:src/Scheduler.cpp **** #include "../h/Scheduler.hpp"
   6:src/Scheduler.cpp **** #include "../h/Thread.hpp"
   7:src/Scheduler.cpp **** 
   8:src/Scheduler.cpp **** Thread* Scheduler::head = nullptr;
   9:src/Scheduler.cpp **** Thread* Scheduler::tail = nullptr;
  10:src/Scheduler.cpp **** 
  11:src/Scheduler.cpp **** Thread* Scheduler::get() {
  12              		.loc 1 11 26
  13              		.cfi_startproc
  14 0000 130101FF 		addi	sp,sp,-16
  15              		.cfi_def_cfa_offset 16
  16 0004 23348100 		sd	s0,8(sp)
  17              		.cfi_offset 8, -8
  18 0008 13040101 		addi	s0,sp,16
  19              		.cfi_def_cfa 8, 0
  12:src/Scheduler.cpp ****     if (!head) return nullptr;
  20              		.loc 1 12 5
  21              		.loc 1 12 9 is_stmt 0
  22 000c 17050000 		ld	a0,.LANCHOR0
  22      03350500 
  23              		.loc 1 12 5
  24 0014 630C0500 		beqz	a0,.L1
  13:src/Scheduler.cpp **** 
  14:src/Scheduler.cpp ****     Thread* thread = head;
  25              		.loc 1 14 5 is_stmt 1
  26              	.LVL0:
  15:src/Scheduler.cpp ****     head = head->next;
  27              		.loc 1 15 5
  28              		.loc 1 15 18 is_stmt 0
  29 0018 83370504 		ld	a5,64(a0)
  30              		.loc 1 15 10
  31 001c 17070000 		sd	a5,.LANCHOR0,a4
  31      2330F700 
  16:src/Scheduler.cpp **** 
  17:src/Scheduler.cpp ****     if (!head) tail = nullptr;
  32              		.loc 1 17 5 is_stmt 1
  33 0024 638A0700 		beqz	a5,.L5
  34              	.L3:
  18:src/Scheduler.cpp ****     thread->next = nullptr;
  35              		.loc 1 18 5
  36              		.loc 1 18 18 is_stmt 0
  37 0028 23300504 		sd	zero,64(a0)
  19:src/Scheduler.cpp **** 
GAS LISTING /tmp/ccIjhtD9.s 			page 2


  20:src/Scheduler.cpp ****     return thread;
  38              		.loc 1 20 5 is_stmt 1
  39              	.LVL1:
  40              	.L1:
  21:src/Scheduler.cpp **** }
  41              		.loc 1 21 1 is_stmt 0
  42 002c 03348100 		ld	s0,8(sp)
  43              		.cfi_remember_state
  44              		.cfi_restore 8
  45              		.cfi_def_cfa 2, 16
  46 0030 13010101 		addi	sp,sp,16
  47              		.cfi_def_cfa_offset 0
  48 0034 67800000 		jr	ra
  49              	.LVL2:
  50              	.L5:
  51              		.cfi_restore_state
  17:src/Scheduler.cpp ****     thread->next = nullptr;
  52              		.loc 1 17 16 is_stmt 1 discriminator 1
  17:src/Scheduler.cpp ****     thread->next = nullptr;
  53              		.loc 1 17 21 is_stmt 0 discriminator 1
  54 0038 97070000 		sd	zero,.LANCHOR0+8,a5
  54      23B00700 
  55 0040 6FF09FFE 		j	.L3
  56              		.cfi_endproc
  57              	.LFE2:
  59              		.align	2
  60              		.globl	_ZN9Scheduler3putEP6Thread
  62              	_ZN9Scheduler3putEP6Thread:
  63              	.LFB3:
  22:src/Scheduler.cpp **** 
  23:src/Scheduler.cpp **** void Scheduler::put(Thread* thread) {
  64              		.loc 1 23 37 is_stmt 1
  65              		.cfi_startproc
  66              	.LVL3:
  67 0044 130101FF 		addi	sp,sp,-16
  68              		.cfi_def_cfa_offset 16
  69 0048 23348100 		sd	s0,8(sp)
  70              		.cfi_offset 8, -8
  71 004c 13040101 		addi	s0,sp,16
  72              		.cfi_def_cfa 8, 0
  24:src/Scheduler.cpp ****     if (!head) head = thread;
  73              		.loc 1 24 5
  74              		.loc 1 24 9 is_stmt 0
  75 0050 97070000 		ld	a5,.LANCHOR0
  75      83B70700 
  76              		.loc 1 24 5
  77 0058 63820702 		beqz	a5,.L10
  25:src/Scheduler.cpp ****     else tail->next = thread;
  78              		.loc 1 25 10 is_stmt 1
  79              		.loc 1 25 16 is_stmt 0
  80 005c 97070000 		ld	a5,.LANCHOR0+8
  80      83B70700 
  81              		.loc 1 25 21
  82 0064 23B0A704 		sd	a0,64(a5)
  83              	.L8:
  26:src/Scheduler.cpp ****     tail = thread;
  84              		.loc 1 26 5 is_stmt 1
GAS LISTING /tmp/ccIjhtD9.s 			page 3


  85              		.loc 1 26 10 is_stmt 0
  86 0068 97070000 		sd	a0,.LANCHOR0+8,a5
  86      23B0A700 
  27:src/Scheduler.cpp **** }
  87              		.loc 1 27 1
  88 0070 03348100 		ld	s0,8(sp)
  89              		.cfi_remember_state
  90              		.cfi_restore 8
  91              		.cfi_def_cfa 2, 16
  92 0074 13010101 		addi	sp,sp,16
  93              		.cfi_def_cfa_offset 0
  94 0078 67800000 		jr	ra
  95              	.L10:
  96              		.cfi_restore_state
  24:src/Scheduler.cpp ****     else tail->next = thread;
  97              		.loc 1 24 16 is_stmt 1 discriminator 1
  24:src/Scheduler.cpp ****     else tail->next = thread;
  98              		.loc 1 24 21 is_stmt 0 discriminator 1
  99 007c 97070000 		sd	a0,.LANCHOR0,a5
  99      23B0A700 
 100 0084 6FF05FFE 		j	.L8
 101              		.cfi_endproc
 102              	.LFE3:
 104              		.align	2
 105              		.globl	_ZN9Scheduler7isEmptyEv
 107              	_ZN9Scheduler7isEmptyEv:
 108              	.LFB4:
  28:src/Scheduler.cpp **** 
  29:src/Scheduler.cpp **** bool Scheduler::isEmpty() {
 109              		.loc 1 29 27 is_stmt 1
 110              		.cfi_startproc
 111 0088 130101FF 		addi	sp,sp,-16
 112              		.cfi_def_cfa_offset 16
 113 008c 23348100 		sd	s0,8(sp)
 114              		.cfi_offset 8, -8
 115 0090 13040101 		addi	s0,sp,16
 116              		.cfi_def_cfa 8, 0
  30:src/Scheduler.cpp ****     return head == nullptr;
 117              		.loc 1 30 5
  31:src/Scheduler.cpp **** }...
 118              		.loc 1 31 1 is_stmt 0
 119 0094 17050000 		ld	a0,.LANCHOR0
 119      03350500 
 120 009c 13351500 		seqz	a0,a0
 121 00a0 03348100 		ld	s0,8(sp)
 122              		.cfi_restore 8
 123              		.cfi_def_cfa 2, 16
 124 00a4 13010101 		addi	sp,sp,16
 125              		.cfi_def_cfa_offset 0
 126 00a8 67800000 		jr	ra
 127              		.cfi_endproc
 128              	.LFE4:
 130              		.globl	_ZN9Scheduler4tailE
 131              		.globl	_ZN9Scheduler4headE
 132              		.bss
 133              		.align	3
 134              		.set	.LANCHOR0,. + 0
GAS LISTING /tmp/ccIjhtD9.s 			page 4


 137              	_ZN9Scheduler4headE:
 138 0000 00000000 		.zero	8
 138      00000000 
 141              	_ZN9Scheduler4tailE:
 142 0008 00000000 		.zero	8
 142      00000000 
 143              		.text
 144              	.Letext0:
 145              		.file 2 "src/../h/Scheduler.hpp"
 146              		.file 3 "src/../h/Thread.hpp"
 147              		.file 4 "src/../h/../lib/hw.h"
GAS LISTING /tmp/ccIjhtD9.s 			page 5


DEFINED SYMBOLS
                            *ABS*:0000000000000000 Scheduler.cpp
     /tmp/ccIjhtD9.s:9      .text:0000000000000000 _ZN9Scheduler3getEv
     /tmp/ccIjhtD9.s:13     .text:0000000000000000 .L0 
     /tmp/ccIjhtD9.s:14     .text:0000000000000000 .L0 
     /tmp/ccIjhtD9.s:15     .text:0000000000000004 .L0 
     /tmp/ccIjhtD9.s:17     .text:0000000000000008 .L0 
     /tmp/ccIjhtD9.s:19     .text:000000000000000c .L0 
     /tmp/ccIjhtD9.s:21     .text:000000000000000c .L0 
     /tmp/ccIjhtD9.s:22     .text:000000000000000c .L0 
     /tmp/ccIjhtD9.s:24     .text:0000000000000014 .L0 
     /tmp/ccIjhtD9.s:27     .text:0000000000000018 .L0 
     /tmp/ccIjhtD9.s:28     .text:0000000000000018 .L0 
     /tmp/ccIjhtD9.s:29     .text:0000000000000018 .L0 
     /tmp/ccIjhtD9.s:31     .text:000000000000001c .L0 
     /tmp/ccIjhtD9.s:33     .text:0000000000000024 .L0 
     /tmp/ccIjhtD9.s:36     .text:0000000000000028 .L0 
     /tmp/ccIjhtD9.s:37     .text:0000000000000028 .L0 
     /tmp/ccIjhtD9.s:41     .text:000000000000002c .L0 
     /tmp/ccIjhtD9.s:42     .text:000000000000002c .L0 
     /tmp/ccIjhtD9.s:43     .text:0000000000000030 .L0 
     /tmp/ccIjhtD9.s:44     .text:0000000000000030 .L0 
     /tmp/ccIjhtD9.s:45     .text:0000000000000030 .L0 
     /tmp/ccIjhtD9.s:47     .text:0000000000000034 .L0 
     /tmp/ccIjhtD9.s:51     .text:0000000000000038 .L0 
     /tmp/ccIjhtD9.s:53     .text:0000000000000038 .L0 
     /tmp/ccIjhtD9.s:54     .text:0000000000000038 .L0 
     /tmp/ccIjhtD9.s:56     .text:0000000000000044 .L0 
     /tmp/ccIjhtD9.s:62     .text:0000000000000044 _ZN9Scheduler3putEP6Thread
     /tmp/ccIjhtD9.s:65     .text:0000000000000044 .L0 
     /tmp/ccIjhtD9.s:67     .text:0000000000000044 .L0 
     /tmp/ccIjhtD9.s:68     .text:0000000000000048 .L0 
     /tmp/ccIjhtD9.s:70     .text:000000000000004c .L0 
     /tmp/ccIjhtD9.s:72     .text:0000000000000050 .L0 
     /tmp/ccIjhtD9.s:74     .text:0000000000000050 .L0 
     /tmp/ccIjhtD9.s:75     .text:0000000000000050 .L0 
     /tmp/ccIjhtD9.s:77     .text:0000000000000058 .L0 
     /tmp/ccIjhtD9.s:79     .text:000000000000005c .L0 
     /tmp/ccIjhtD9.s:80     .text:000000000000005c .L0 
     /tmp/ccIjhtD9.s:82     .text:0000000000000064 .L0 
     /tmp/ccIjhtD9.s:85     .text:0000000000000068 .L0 
     /tmp/ccIjhtD9.s:86     .text:0000000000000068 .L0 
     /tmp/ccIjhtD9.s:88     .text:0000000000000070 .L0 
     /tmp/ccIjhtD9.s:89     .text:0000000000000074 .L0 
     /tmp/ccIjhtD9.s:90     .text:0000000000000074 .L0 
     /tmp/ccIjhtD9.s:91     .text:0000000000000074 .L0 
     /tmp/ccIjhtD9.s:93     .text:0000000000000078 .L0 
     /tmp/ccIjhtD9.s:96     .text:000000000000007c .L0 
     /tmp/ccIjhtD9.s:98     .text:000000000000007c .L0 
     /tmp/ccIjhtD9.s:99     .text:000000000000007c .L0 
     /tmp/ccIjhtD9.s:101    .text:0000000000000088 .L0 
     /tmp/ccIjhtD9.s:107    .text:0000000000000088 _ZN9Scheduler7isEmptyEv
     /tmp/ccIjhtD9.s:110    .text:0000000000000088 .L0 
     /tmp/ccIjhtD9.s:111    .text:0000000000000088 .L0 
     /tmp/ccIjhtD9.s:112    .text:000000000000008c .L0 
     /tmp/ccIjhtD9.s:114    .text:0000000000000090 .L0 
     /tmp/ccIjhtD9.s:116    .text:0000000000000094 .L0 
GAS LISTING /tmp/ccIjhtD9.s 			page 6


     /tmp/ccIjhtD9.s:118    .text:0000000000000094 .L0 
     /tmp/ccIjhtD9.s:119    .text:0000000000000094 .L0 
     /tmp/ccIjhtD9.s:122    .text:00000000000000a4 .L0 
     /tmp/ccIjhtD9.s:123    .text:00000000000000a4 .L0 
     /tmp/ccIjhtD9.s:125    .text:00000000000000a8 .L0 
     /tmp/ccIjhtD9.s:127    .text:00000000000000ac .L0 
     /tmp/ccIjhtD9.s:141    .bss:0000000000000008 _ZN9Scheduler4tailE
     /tmp/ccIjhtD9.s:137    .bss:0000000000000000 _ZN9Scheduler4headE
     /tmp/ccIjhtD9.s:134    .bss:0000000000000000 .LANCHOR0
     /tmp/ccIjhtD9.s:148    .text:00000000000000ac .L0 
     /tmp/ccIjhtD9.s:22     .text:000000000000000c .L0 
     /tmp/ccIjhtD9.s:31     .text:000000000000001c .L0 
     /tmp/ccIjhtD9.s:54     .text:0000000000000038 .L0 
     /tmp/ccIjhtD9.s:75     .text:0000000000000050 .L0 
     /tmp/ccIjhtD9.s:80     .text:000000000000005c .L0 
     /tmp/ccIjhtD9.s:86     .text:0000000000000068 .L0 
     /tmp/ccIjhtD9.s:99     .text:000000000000007c .L0 
     /tmp/ccIjhtD9.s:119    .text:0000000000000094 .L0 
     /tmp/ccIjhtD9.s:40     .text:000000000000002c .L1
     /tmp/ccIjhtD9.s:50     .text:0000000000000038 .L5
     /tmp/ccIjhtD9.s:34     .text:0000000000000028 .L3
     /tmp/ccIjhtD9.s:95     .text:000000000000007c .L10
     /tmp/ccIjhtD9.s:83     .text:0000000000000068 .L8
     /tmp/ccIjhtD9.s:689    .debug_abbrev:0000000000000000 .Ldebug_abbrev0
     /tmp/ccIjhtD9.s:1437   .debug_str:0000000000000200 .LASF55
     /tmp/ccIjhtD9.s:1445   .debug_str:00000000000002e1 .LASF56
     /tmp/ccIjhtD9.s:1471   .debug_str:00000000000003be .LASF57
     /tmp/ccIjhtD9.s:5      .text:0000000000000000 .Ltext0
     /tmp/ccIjhtD9.s:144    .text:00000000000000ac .Letext0
     /tmp/ccIjhtD9.s:1367   .debug_line:0000000000000000 .Ldebug_line0
     /tmp/ccIjhtD9.s:1403   .debug_str:00000000000000fb .LASF3
     /tmp/ccIjhtD9.s:1383   .debug_str:0000000000000077 .LASF58
     /tmp/ccIjhtD9.s:1451   .debug_str:0000000000000317 .LASF59
     /tmp/ccIjhtD9.s:1485   .debug_str:0000000000000423 .LASF0
     /tmp/ccIjhtD9.s:1459   .debug_str:0000000000000361 .LASF60
     /tmp/ccIjhtD9.s:1441   .debug_str:00000000000002d4 .LASF1
     /tmp/ccIjhtD9.s:1493   .debug_str:0000000000000441 .LASF2
     /tmp/ccIjhtD9.s:1409   .debug_str:0000000000000127 .LASF4
     /tmp/ccIjhtD9.s:1401   .debug_str:00000000000000f3 .LASF61
     /tmp/ccIjhtD9.s:1497   .debug_str:000000000000044f .LASF14
     /tmp/ccIjhtD9.s:1457   .debug_str:0000000000000349 .LASF6
     /tmp/ccIjhtD9.s:1465   .debug_str:0000000000000395 .LASF62
     /tmp/ccIjhtD9.s:1483   .debug_str:000000000000041b .LASF5
     /tmp/ccIjhtD9.s:1449   .debug_str:0000000000000308 .LASF7
     /tmp/ccIjhtD9.s:1387   .debug_str:0000000000000099 .LASF8
     /tmp/ccIjhtD9.s:1393   .debug_str:00000000000000ad .LASF9
     /tmp/ccIjhtD9.s:1489   .debug_str:0000000000000437 .LASF10
     /tmp/ccIjhtD9.s:1473   .debug_str:00000000000003dc .LASF11
     /tmp/ccIjhtD9.s:1389   .debug_str:000000000000009f .LASF16
     /tmp/ccIjhtD9.s:1447   .debug_str:00000000000002f3 .LASF18
     /tmp/ccIjhtD9.s:1397   .debug_str:00000000000000d4 .LASF63
     /tmp/ccIjhtD9.s:1475   .debug_str:00000000000003ee .LASF64
     /tmp/ccIjhtD9.s:1495   .debug_str:0000000000000446 .LASF12
     /tmp/ccIjhtD9.s:1369   .debug_str:0000000000000000 .LASF13
     /tmp/ccIjhtD9.s:1377   .debug_str:000000000000005b .LASF15
     /tmp/ccIjhtD9.s:1477   .debug_str:0000000000000405 .LASF17
     /tmp/ccIjhtD9.s:1419   .debug_str:0000000000000189 .LASF19
GAS LISTING /tmp/ccIjhtD9.s 			page 7


     /tmp/ccIjhtD9.s:1425   .debug_str:00000000000001b6 .LASF20
     /tmp/ccIjhtD9.s:1413   .debug_str:000000000000013c .LASF21
     /tmp/ccIjhtD9.s:1391   .debug_str:00000000000000a7 .LASF22
     /tmp/ccIjhtD9.s:1455   .debug_str:000000000000033f .LASF23
     /tmp/ccIjhtD9.s:1469   .debug_str:00000000000003b6 .LASF24
     /tmp/ccIjhtD9.s:1433   .debug_str:00000000000001e9 .LASF25
     /tmp/ccIjhtD9.s:1491   .debug_str:000000000000043c .LASF26
     /tmp/ccIjhtD9.s:1379   .debug_str:0000000000000063 .LASF27
     /tmp/ccIjhtD9.s:1503   .debug_str:0000000000000470 .LASF28
     /tmp/ccIjhtD9.s:1381   .debug_str:0000000000000069 .LASF29
     /tmp/ccIjhtD9.s:1467   .debug_str:000000000000039a .LASF65
     /tmp/ccIjhtD9.s:1429   .debug_str:00000000000001c5 .LASF66
     /tmp/ccIjhtD9.s:1417   .debug_str:000000000000015e .LASF67
     /tmp/ccIjhtD9.s:1487   .debug_str:000000000000042b .LASF68
     /tmp/ccIjhtD9.s:1373   .debug_str:0000000000000027 .LASF69
     /tmp/ccIjhtD9.s:1371   .debug_str:0000000000000022 .LASF30
     /tmp/ccIjhtD9.s:1453   .debug_str:0000000000000332 .LASF31
     /tmp/ccIjhtD9.s:1421   .debug_str:000000000000019c .LASF32
     /tmp/ccIjhtD9.s:1411   .debug_str:000000000000012e .LASF33
     /tmp/ccIjhtD9.s:1481   .debug_str:0000000000000414 .LASF35
     /tmp/ccIjhtD9.s:1435   .debug_str:00000000000001ee .LASF34
     /tmp/ccIjhtD9.s:1375   .debug_str:0000000000000054 .LASF36
     /tmp/ccIjhtD9.s:1505   .debug_str:0000000000000475 .LASF37
     /tmp/ccIjhtD9.s:1405   .debug_str:0000000000000105 .LASF38
     /tmp/ccIjhtD9.s:1439   .debug_str:00000000000002c4 .LASF39
     /tmp/ccIjhtD9.s:1385   .debug_str:000000000000008b .LASF40
     /tmp/ccIjhtD9.s:1509   .debug_str:000000000000049c .LASF41
     /tmp/ccIjhtD9.s:1407   .debug_str:0000000000000118 .LASF42
     /tmp/ccIjhtD9.s:1499   .debug_str:0000000000000458 .LASF43
     /tmp/ccIjhtD9.s:1463   .debug_str:0000000000000385 .LASF44
     /tmp/ccIjhtD9.s:1415   .debug_str:0000000000000152 .LASF45
     /tmp/ccIjhtD9.s:1399   .debug_str:00000000000000dd .LASF46
     /tmp/ccIjhtD9.s:1431   .debug_str:00000000000001d3 .LASF47
     /tmp/ccIjhtD9.s:1461   .debug_str:0000000000000379 .LASF70
     /tmp/ccIjhtD9.s:1427   .debug_str:00000000000001bf .LASF48
     /tmp/ccIjhtD9.s:1501   .debug_str:0000000000000468 .LASF49
     /tmp/ccIjhtD9.s:1443   .debug_str:00000000000002d9 .LASF50
     /tmp/ccIjhtD9.s:1479   .debug_str:000000000000040b .LASF51
     /tmp/ccIjhtD9.s:1507   .debug_str:0000000000000488 .LASF52
     /tmp/ccIjhtD9.s:1395   .debug_str:00000000000000c0 .LASF53
     /tmp/ccIjhtD9.s:108    .text:0000000000000088 .LFB4
     /tmp/ccIjhtD9.s:128    .text:00000000000000ac .LFE4
     /tmp/ccIjhtD9.s:63     .text:0000000000000044 .LFB3
     /tmp/ccIjhtD9.s:102    .text:0000000000000088 .LFE3
     /tmp/ccIjhtD9.s:1423   .debug_str:00000000000001af .LASF54
     /tmp/ccIjhtD9.s:10     .text:0000000000000000 .LFB2
     /tmp/ccIjhtD9.s:57     .text:0000000000000044 .LFE2
     /tmp/ccIjhtD9.s:1343   .debug_loc:0000000000000000 .LLST0
     /tmp/ccIjhtD9.s:26     .text:0000000000000018 .LVL0
     /tmp/ccIjhtD9.s:39     .text:000000000000002c .LVL1
     /tmp/ccIjhtD9.s:49     .text:0000000000000038 .LVL2
     /tmp/ccIjhtD9.s:149    .debug_info:0000000000000000 .Ldebug_info0

NO UNDEFINED SYMBOLS
