GAS LISTING /tmp/ccwjFBng.s 			page 1


   1              		.file	"Scheduler.cpp"
   2              		.option pic
   3              		.option norelax
   4              		.text
   5              	.Ltext0:
   6              		.align	2
   7              		.globl	_ZN9Scheduler3getEv
   9              	_ZN9Scheduler3getEv:
  10              	.LFB6:
  11              		.file 1 "src/Scheduler.cpp"
   1:src/Scheduler.cpp **** //
   2:src/Scheduler.cpp **** // Created by os on 10/8/25.
   3:src/Scheduler.cpp **** //
   4:src/Scheduler.cpp **** 
   5:src/Scheduler.cpp **** #include "../h/Scheduler.hpp"
   6:src/Scheduler.cpp **** #include "../h/Thread.hpp"
   7:src/Scheduler.cpp **** 
   8:src/Scheduler.cpp **** Thread* Scheduler::head = nullptr;
   9:src/Scheduler.cpp **** Thread* Scheduler::tail = nullptr;
  10:src/Scheduler.cpp **** 
  11:src/Scheduler.cpp **** Thread* Scheduler::get() {
  12              		.loc 1 11 26
  13              		.cfi_startproc
  14 0000 130101FF 		addi	sp,sp,-16
  15              		.cfi_def_cfa_offset 16
  16 0004 23348100 		sd	s0,8(sp)
  17              		.cfi_offset 8, -8
  18 0008 13040101 		addi	s0,sp,16
  19              		.cfi_def_cfa 8, 0
  12:src/Scheduler.cpp ****     if (!head) return nullptr;
  20              		.loc 1 12 5
  21              		.loc 1 12 9 is_stmt 0
  22 000c 17050000 		ld	a0,.LANCHOR0
  22      03350500 
  23              		.loc 1 12 5
  24 0014 630C0500 		beqz	a0,.L1
  13:src/Scheduler.cpp **** 
  14:src/Scheduler.cpp ****     Thread* thread = head;
  25              		.loc 1 14 5 is_stmt 1
  26              	.LVL0:
  15:src/Scheduler.cpp ****     head = head->schedulerNext;
  27              		.loc 1 15 5
  28              		.loc 1 15 18 is_stmt 0
  29 0018 83370504 		ld	a5,64(a0)
  30              		.loc 1 15 10
  31 001c 17070000 		sd	a5,.LANCHOR0,a4
  31      2330F700 
  16:src/Scheduler.cpp **** 
  17:src/Scheduler.cpp ****     if (!head) tail = nullptr;
  32              		.loc 1 17 5 is_stmt 1
  33 0024 638A0700 		beqz	a5,.L5
  34              	.L3:
  18:src/Scheduler.cpp ****     thread->schedulerNext = nullptr;
  35              		.loc 1 18 5
  36              		.loc 1 18 27 is_stmt 0
  37 0028 23300504 		sd	zero,64(a0)
  19:src/Scheduler.cpp **** 
GAS LISTING /tmp/ccwjFBng.s 			page 2


  20:src/Scheduler.cpp ****     return thread;
  38              		.loc 1 20 5 is_stmt 1
  39              	.LVL1:
  40              	.L1:
  21:src/Scheduler.cpp **** }
  41              		.loc 1 21 1 is_stmt 0
  42 002c 03348100 		ld	s0,8(sp)
  43              		.cfi_remember_state
  44              		.cfi_restore 8
  45              		.cfi_def_cfa 2, 16
  46 0030 13010101 		addi	sp,sp,16
  47              		.cfi_def_cfa_offset 0
  48 0034 67800000 		jr	ra
  49              	.LVL2:
  50              	.L5:
  51              		.cfi_restore_state
  17:src/Scheduler.cpp ****     thread->schedulerNext = nullptr;
  52              		.loc 1 17 16 is_stmt 1 discriminator 1
  17:src/Scheduler.cpp ****     thread->schedulerNext = nullptr;
  53              		.loc 1 17 21 is_stmt 0 discriminator 1
  54 0038 97070000 		sd	zero,.LANCHOR0+8,a5
  54      23B00700 
  55 0040 6FF09FFE 		j	.L3
  56              		.cfi_endproc
  57              	.LFE6:
  59              		.align	2
  60              		.globl	_ZN9Scheduler3putEP6Thread
  62              	_ZN9Scheduler3putEP6Thread:
  63              	.LFB7:
  22:src/Scheduler.cpp **** 
  23:src/Scheduler.cpp **** void Scheduler::put(Thread* thread) {
  64              		.loc 1 23 37 is_stmt 1
  65              		.cfi_startproc
  66              	.LVL3:
  67 0044 130101FF 		addi	sp,sp,-16
  68              		.cfi_def_cfa_offset 16
  69 0048 23348100 		sd	s0,8(sp)
  70              		.cfi_offset 8, -8
  71 004c 13040101 		addi	s0,sp,16
  72              		.cfi_def_cfa 8, 0
  24:src/Scheduler.cpp ****     if (!head) head = thread;
  73              		.loc 1 24 5
  74              		.loc 1 24 9 is_stmt 0
  75 0050 97070000 		ld	a5,.LANCHOR0
  75      83B70700 
  76              		.loc 1 24 5
  77 0058 63820702 		beqz	a5,.L10
  25:src/Scheduler.cpp ****     else tail->schedulerNext = thread;
  78              		.loc 1 25 10 is_stmt 1
  79              		.loc 1 25 16 is_stmt 0
  80 005c 97070000 		ld	a5,.LANCHOR0+8
  80      83B70700 
  81              		.loc 1 25 30
  82 0064 23B0A704 		sd	a0,64(a5)
  83              	.L8:
  26:src/Scheduler.cpp ****     tail = thread;
  84              		.loc 1 26 5 is_stmt 1
GAS LISTING /tmp/ccwjFBng.s 			page 3


  85              		.loc 1 26 10 is_stmt 0
  86 0068 97070000 		sd	a0,.LANCHOR0+8,a5
  86      23B0A700 
  27:src/Scheduler.cpp **** }
  87              		.loc 1 27 1
  88 0070 03348100 		ld	s0,8(sp)
  89              		.cfi_remember_state
  90              		.cfi_restore 8
  91              		.cfi_def_cfa 2, 16
  92 0074 13010101 		addi	sp,sp,16
  93              		.cfi_def_cfa_offset 0
  94 0078 67800000 		jr	ra
  95              	.L10:
  96              		.cfi_restore_state
  24:src/Scheduler.cpp ****     else tail->schedulerNext = thread;
  97              		.loc 1 24 16 is_stmt 1 discriminator 1
  24:src/Scheduler.cpp ****     else tail->schedulerNext = thread;
  98              		.loc 1 24 21 is_stmt 0 discriminator 1
  99 007c 97070000 		sd	a0,.LANCHOR0,a5
  99      23B0A700 
 100 0084 6FF05FFE 		j	.L8
 101              		.cfi_endproc
 102              	.LFE7:
 104              		.align	2
 105              		.globl	_ZN9Scheduler7isEmptyEv
 107              	_ZN9Scheduler7isEmptyEv:
 108              	.LFB8:
  28:src/Scheduler.cpp **** 
  29:src/Scheduler.cpp **** bool Scheduler::isEmpty() {
 109              		.loc 1 29 27 is_stmt 1
 110              		.cfi_startproc
 111 0088 130101FF 		addi	sp,sp,-16
 112              		.cfi_def_cfa_offset 16
 113 008c 23348100 		sd	s0,8(sp)
 114              		.cfi_offset 8, -8
 115 0090 13040101 		addi	s0,sp,16
 116              		.cfi_def_cfa 8, 0
  30:src/Scheduler.cpp ****     return head == nullptr;
 117              		.loc 1 30 5
  31:src/Scheduler.cpp **** }...
 118              		.loc 1 31 1 is_stmt 0
 119 0094 17050000 		ld	a0,.LANCHOR0
 119      03350500 
 120 009c 13351500 		seqz	a0,a0
 121 00a0 03348100 		ld	s0,8(sp)
 122              		.cfi_restore 8
 123              		.cfi_def_cfa 2, 16
 124 00a4 13010101 		addi	sp,sp,16
 125              		.cfi_def_cfa_offset 0
 126 00a8 67800000 		jr	ra
 127              		.cfi_endproc
 128              	.LFE8:
 130              		.globl	_ZN9Scheduler4tailE
 131              		.globl	_ZN9Scheduler4headE
 132              		.bss
 133              		.align	3
 134              		.set	.LANCHOR0,. + 0
GAS LISTING /tmp/ccwjFBng.s 			page 4


 137              	_ZN9Scheduler4headE:
 138 0000 00000000 		.zero	8
 138      00000000 
 141              	_ZN9Scheduler4tailE:
 142 0008 00000000 		.zero	8
 142      00000000 
 143              		.text
 144              	.Letext0:
 145              		.file 2 "src/../h/Scheduler.hpp"
 146              		.file 3 "src/../h/Thread.hpp"
 147              		.file 4 "src/../h/../lib/hw.h"
GAS LISTING /tmp/ccwjFBng.s 			page 5

