GAS LISTING /tmp/ccEqg3G4.s 			page 1


   1              		.file	"syscall_c.cpp"
   2              		.option pic
   3              		.option norelax
   4              		.text
   5              	.Ltext0:
   6              		.align	2
   7              		.globl	_Z9mem_allocm
   9              	_Z9mem_allocm:
  10              	.LFB0:
  11              		.file 1 "src/syscall_c.cpp"
   1:src/syscall_c.cpp **** //
   2:src/syscall_c.cpp **** // Created by os on 10/7/25.
   3:src/syscall_c.cpp **** //
   4:src/syscall_c.cpp **** 
   5:src/syscall_c.cpp **** #include "../h/syscall_c.hpp"
   6:src/syscall_c.cpp **** 
   7:src/syscall_c.cpp **** void* mem_alloc(size_t size) {
  12              		.loc 1 7 30
  13              		.cfi_startproc
  14              	.LVL0:
  15 0000 130101FF 		addi	sp,sp,-16
  16              		.cfi_def_cfa_offset 16
  17 0004 23348100 		sd	s0,8(sp)
  18              		.cfi_offset 8, -8
  19 0008 13040101 		addi	s0,sp,16
  20              		.cfi_def_cfa 8, 0
   8:src/syscall_c.cpp ****     if (size == 0) return nullptr;
  21              		.loc 1 8 5
  22 000c 63080502 		beqz	a0,.L4
   9:src/syscall_c.cpp **** 
  10:src/syscall_c.cpp ****     size_t blocks = size / MEM_BLOCK_SIZE;
  23              		.loc 1 10 5
  24              		.loc 1 10 12 is_stmt 0
  25 0010 93576500 		srli	a5,a0,6
  26              	.LVL1:
  11:src/syscall_c.cpp ****     if (size % MEM_BLOCK_SIZE != 0) blocks++;
  27              		.loc 1 11 5 is_stmt 1
  28              		.loc 1 11 14 is_stmt 0
  29 0014 1375F503 		andi	a0,a0,63
  30              	.LVL2:
  31              		.loc 1 11 5
  32 0018 63040500 		beqz	a0,.L3
  33              		.loc 1 11 37 is_stmt 1 discriminator 1
  34              		.loc 1 11 43 is_stmt 0 discriminator 1
  35 001c 93871700 		addi	a5,a5,1
  36              	.LVL3:
  37              	.L3:
  12:src/syscall_c.cpp **** 
  13:src/syscall_c.cpp ****     void* result;
  38              		.loc 1 13 5 is_stmt 1
  14:src/syscall_c.cpp **** 
  15:src/syscall_c.cpp ****     asm volatile("mv a1, %0" :: "r"(blocks));
  39              		.loc 1 15 5
  40              		.loc 1 15 45 is_stmt 0
  41              	#APP
  42              	# 15 "src/syscall_c.cpp" 1
  16              	    asm volatile("li a0, 0x01");
GAS LISTING /tmp/ccEqg3G4.s 			page 2


  43              		mv a1, a5
  44              	# 0 "" 2
  45              		.loc 1 16 5 is_stmt 1
  46              		.loc 1 16 32 is_stmt 0
  47              	# 16 "src/syscall_c.cpp" 1
  17              	    asm volatile("ecall");
  48              		li a0, 0x01
  49              	# 0 "" 2
  50              		.loc 1 17 5 is_stmt 1
  51              		.loc 1 17 26 is_stmt 0
  52              	# 17 "src/syscall_c.cpp" 1
  18              	    asm volatile("mv %0, a0" : "=r"(result));
  53              		ecall
  54              	# 0 "" 2
  55              		.loc 1 18 5 is_stmt 1
  56              		.loc 1 18 45 is_stmt 0
  57              	# 18 "src/syscall_c.cpp" 1
  19              	
  58              		mv a0, a0
  59              	# 0 "" 2
  60              	.LVL4:
  20:src/syscall_c.cpp ****     return result;
  61              		.loc 1 20 5 is_stmt 1
  62              	#NO_APP
  63              	.L1:
  21:src/syscall_c.cpp **** }
  64              		.loc 1 21 1 is_stmt 0
  65 0030 03348100 		ld	s0,8(sp)
  66              		.cfi_remember_state
  67              		.cfi_restore 8
  68              		.cfi_def_cfa 2, 16
  69 0034 13010101 		addi	sp,sp,16
  70              		.cfi_def_cfa_offset 0
  71 0038 67800000 		jr	ra
  72              	.LVL5:
  73              	.L4:
  74              		.cfi_restore_state
   8:src/syscall_c.cpp **** 
  75              		.loc 1 8 27
  76 003c 13050000 		li	a0,0
  77              	.LVL6:
  78 0040 6FF01FFF 		j	.L1
  79              		.cfi_endproc
  80              	.LFE0:
  82              		.align	2
  83              		.globl	_Z8mem_freePv
  85              	_Z8mem_freePv:
  86              	.LFB1:
  22:src/syscall_c.cpp **** 
  23:src/syscall_c.cpp **** int mem_free(void* addr) {
  87              		.loc 1 23 26 is_stmt 1
  88              		.cfi_startproc
  89              	.LVL7:
  90 0044 130101FF 		addi	sp,sp,-16
  91              		.cfi_def_cfa_offset 16
  92 0048 23348100 		sd	s0,8(sp)
  93              		.cfi_offset 8, -8
GAS LISTING /tmp/ccEqg3G4.s 			page 3


  94 004c 13040101 		addi	s0,sp,16
  95              		.cfi_def_cfa 8, 0
  24:src/syscall_c.cpp ****     int result;
  96              		.loc 1 24 5
  25:src/syscall_c.cpp **** 
  26:src/syscall_c.cpp ****     asm volatile("mv a1, %0" :: "r"(addr));
  97              		.loc 1 26 5
  98              		.loc 1 26 43 is_stmt 0
  99              	#APP
 100              	# 26 "src/syscall_c.cpp" 1
  27              	    asm volatile("li a0, 0x02");
 101              		mv a1, a0
 102              	# 0 "" 2
 103              		.loc 1 27 5 is_stmt 1
 104              		.loc 1 27 32 is_stmt 0
 105              	# 27 "src/syscall_c.cpp" 1
  28              	    asm volatile("ecall");
 106              		li a0, 0x02
 107              	# 0 "" 2
 108              		.loc 1 28 5 is_stmt 1
 109              		.loc 1 28 26 is_stmt 0
 110              	# 28 "src/syscall_c.cpp" 1
  29              	    asm volatile("mv %0, a0" : "=r"(result));
 111              		ecall
 112              	# 0 "" 2
 113              		.loc 1 29 5 is_stmt 1
 114              		.loc 1 29 45 is_stmt 0
 115              	# 29 "src/syscall_c.cpp" 1
  30              	
 116              		mv a0, a0
 117              	# 0 "" 2
 118              	.LVL8:
  31:src/syscall_c.cpp ****     return result;
 119              		.loc 1 31 5 is_stmt 1
  32:src/syscall_c.cpp **** }
 120              		.loc 1 32 1 is_stmt 0
 121              	#NO_APP
 122 0060 1B050500 		sext.w	a0,a0
 123 0064 03348100 		ld	s0,8(sp)
 124              		.cfi_restore 8
 125              		.cfi_def_cfa 2, 16
 126 0068 13010101 		addi	sp,sp,16
 127              		.cfi_def_cfa_offset 0
 128 006c 67800000 		jr	ra
 129              		.cfi_endproc
 130              	.LFE1:
 132              		.align	2
 133              		.globl	_Z18mem_get_free_spacev
 135              	_Z18mem_get_free_spacev:
 136              	.LFB2:
  33:src/syscall_c.cpp **** 
  34:src/syscall_c.cpp **** size_t mem_get_free_space() {
 137              		.loc 1 34 29 is_stmt 1
 138              		.cfi_startproc
 139 0070 130101FF 		addi	sp,sp,-16
 140              		.cfi_def_cfa_offset 16
 141 0074 23348100 		sd	s0,8(sp)
GAS LISTING /tmp/ccEqg3G4.s 			page 4


 142              		.cfi_offset 8, -8
 143 0078 13040101 		addi	s0,sp,16
 144              		.cfi_def_cfa 8, 0
  35:src/syscall_c.cpp ****     size_t result;
 145              		.loc 1 35 5
  36:src/syscall_c.cpp **** 
  37:src/syscall_c.cpp ****     asm volatile("li a0, 0x03");
 146              		.loc 1 37 5
 147              		.loc 1 37 32 is_stmt 0
 148              	#APP
 149              	# 37 "src/syscall_c.cpp" 1
  38              	    asm volatile("ecall");
 150              		li a0, 0x03
 151              	# 0 "" 2
 152              		.loc 1 38 5 is_stmt 1
 153              		.loc 1 38 26 is_stmt 0
 154              	# 38 "src/syscall_c.cpp" 1
  39              	    asm volatile("mv %0, a0" : "=r"(result));
 155              		ecall
 156              	# 0 "" 2
 157              		.loc 1 39 5 is_stmt 1
 158              		.loc 1 39 45 is_stmt 0
 159              	# 39 "src/syscall_c.cpp" 1
  40              	
 160              		mv a0, a0
 161              	# 0 "" 2
 162              	.LVL9:
  41:src/syscall_c.cpp ****     return result;
 163              		.loc 1 41 5 is_stmt 1
  42:src/syscall_c.cpp **** }
 164              		.loc 1 42 1 is_stmt 0
 165              	#NO_APP
 166 0088 03348100 		ld	s0,8(sp)
 167              		.cfi_restore 8
 168              		.cfi_def_cfa 2, 16
 169 008c 13010101 		addi	sp,sp,16
 170              		.cfi_def_cfa_offset 0
 171 0090 67800000 		jr	ra
 172              		.cfi_endproc
 173              	.LFE2:
 175              		.align	2
 176              		.globl	_Z26mem_get_largest_free_blockv
 178              	_Z26mem_get_largest_free_blockv:
 179              	.LFB3:
  43:src/syscall_c.cpp **** 
  44:src/syscall_c.cpp **** size_t mem_get_largest_free_block() {
 180              		.loc 1 44 37 is_stmt 1
 181              		.cfi_startproc
 182 0094 130101FF 		addi	sp,sp,-16
 183              		.cfi_def_cfa_offset 16
 184 0098 23348100 		sd	s0,8(sp)
 185              		.cfi_offset 8, -8
 186 009c 13040101 		addi	s0,sp,16
 187              		.cfi_def_cfa 8, 0
  45:src/syscall_c.cpp ****     size_t result;
 188              		.loc 1 45 5
  46:src/syscall_c.cpp ****     asm volatile("li a0, 0x04");
GAS LISTING /tmp/ccEqg3G4.s 			page 5


 189              		.loc 1 46 5
 190              		.loc 1 46 32 is_stmt 0
 191              	#APP
 192              	# 46 "src/syscall_c.cpp" 1
  47              	    asm volatile("ecall");
 193              		li a0, 0x04
 194              	# 0 "" 2
 195              		.loc 1 47 5 is_stmt 1
 196              		.loc 1 47 26 is_stmt 0
 197              	# 47 "src/syscall_c.cpp" 1
  48              	    asm volatile("mv %0, a0" : "=r"(result));
 198              		ecall
 199              	# 0 "" 2
 200              		.loc 1 48 5 is_stmt 1
 201              		.loc 1 48 45 is_stmt 0
 202              	# 48 "src/syscall_c.cpp" 1
  49              	    return result;
 203              		mv a0, a0
 204              	# 0 "" 2
 205              	.LVL10:
 206              		.loc 1 49 5 is_stmt 1
  50:src/syscall_c.cpp **** }
 207              		.loc 1 50 1 is_stmt 0
 208              	#NO_APP
 209 00ac 03348100 		ld	s0,8(sp)
 210              		.cfi_restore 8
 211              		.cfi_def_cfa 2, 16
 212 00b0 13010101 		addi	sp,sp,16
 213              		.cfi_def_cfa_offset 0
 214 00b4 67800000 		jr	ra
 215              		.cfi_endproc
 216              	.LFE3:
 218              		.align	2
 219              		.globl	_Z8userModev
 221              	_Z8userModev:
 222              	.LFB4:
  51:src/syscall_c.cpp **** 
  52:src/syscall_c.cpp **** void userMode() {
 223              		.loc 1 52 17 is_stmt 1
 224              		.cfi_startproc
 225 00b8 130101FF 		addi	sp,sp,-16
 226              		.cfi_def_cfa_offset 16
 227 00bc 23348100 		sd	s0,8(sp)
 228              		.cfi_offset 8, -8
 229 00c0 13040101 		addi	s0,sp,16
 230              		.cfi_def_cfa 8, 0
  53:src/syscall_c.cpp ****     asm volatile("li a0, 0x08");
 231              		.loc 1 53 5
 232              		.loc 1 53 32 is_stmt 0
 233              	#APP
 234              	# 53 "src/syscall_c.cpp" 1
  54              	    asm volatile("ecall");
 235              		li a0, 0x08
 236              	# 0 "" 2
 237              		.loc 1 54 5 is_stmt 1
 238              		.loc 1 54 26 is_stmt 0
 239              	# 54 "src/syscall_c.cpp" 1
GAS LISTING /tmp/ccEqg3G4.s 			page 6


  55              	}
 240              		ecall
 241              	# 0 "" 2
 242              		.loc 1 55 1
 243              	#NO_APP
 244 00cc 03348100 		ld	s0,8(sp)
 245              		.cfi_restore 8
 246              		.cfi_def_cfa 2, 16
 247 00d0 13010101 		addi	sp,sp,16
 248              		.cfi_def_cfa_offset 0
 249 00d4 67800000 		jr	ra
 250              		.cfi_endproc
 251              	.LFE4:
 253              		.align	2
 254              		.globl	_Z10kernelModev
 256              	_Z10kernelModev:
 257              	.LFB5:
  56:src/syscall_c.cpp **** 
  57:src/syscall_c.cpp **** void kernelMode() {
 258              		.loc 1 57 19 is_stmt 1
 259              		.cfi_startproc
 260 00d8 130101FF 		addi	sp,sp,-16
 261              		.cfi_def_cfa_offset 16
 262 00dc 23348100 		sd	s0,8(sp)
 263              		.cfi_offset 8, -8
 264 00e0 13040101 		addi	s0,sp,16
 265              		.cfi_def_cfa 8, 0
  58:src/syscall_c.cpp ****     asm volatile("li a0, 0x09");
 266              		.loc 1 58 5
 267              		.loc 1 58 32 is_stmt 0
 268              	#APP
 269              	# 58 "src/syscall_c.cpp" 1
  59              	    asm volatile("ecall");
 270              		li a0, 0x09
 271              	# 0 "" 2
 272              		.loc 1 59 5 is_stmt 1
 273              		.loc 1 59 26 is_stmt 0
 274              	# 59 "src/syscall_c.cpp" 1
  60              	}
 275              		ecall
 276              	# 0 "" 2
 277              		.loc 1 60 1
 278              	#NO_APP
 279 00ec 03348100 		ld	s0,8(sp)
 280              		.cfi_restore 8
 281              		.cfi_def_cfa 2, 16
 282 00f0 13010101 		addi	sp,sp,16
 283              		.cfi_def_cfa_offset 0
 284 00f4 67800000 		jr	ra
 285              		.cfi_endproc
 286              	.LFE5:
 288              		.align	2
 289              		.globl	_Z13thread_createPP7KThreadPFvPvES2_
 291              	_Z13thread_createPP7KThreadPFvPvES2_:
 292              	.LFB6:
  61:src/syscall_c.cpp **** 
  62:src/syscall_c.cpp **** int thread_create(thread_t* handle, void(*start_routine)(void*), void* arg) {
GAS LISTING /tmp/ccEqg3G4.s 			page 7


 293              		.loc 1 62 77 is_stmt 1
 294              		.cfi_startproc
 295              	.LVL11:
 296 00f8 130101FD 		addi	sp,sp,-48
 297              		.cfi_def_cfa_offset 48
 298 00fc 23341102 		sd	ra,40(sp)
 299 0100 23308102 		sd	s0,32(sp)
 300 0104 233C9100 		sd	s1,24(sp)
 301 0108 23382101 		sd	s2,16(sp)
 302 010c 23343101 		sd	s3,8(sp)
 303              		.cfi_offset 1, -8
 304              		.cfi_offset 8, -16
 305              		.cfi_offset 9, -24
 306              		.cfi_offset 18, -32
 307              		.cfi_offset 19, -40
 308 0110 13040103 		addi	s0,sp,48
 309              		.cfi_def_cfa 8, 0
  63:src/syscall_c.cpp ****     if (!handle || !start_routine) return -1;
 310              		.loc 1 63 5
 311 0114 630C0506 		beqz	a0,.L18
 312 0118 93040500 		mv	s1,a0
 313 011c 13890500 		mv	s2,a1
 314 0120 93090600 		mv	s3,a2
 315              		.loc 1 63 17 is_stmt 0 discriminator 2
 316 0124 63880506 		beqz	a1,.L19
  64:src/syscall_c.cpp **** 
  65:src/syscall_c.cpp ****     size_t stackBytes = DEFAULT_STACK_SIZE;
 317              		.loc 1 65 5 is_stmt 1
 318              	.LVL12:
  66:src/syscall_c.cpp ****     void* stack = mem_alloc(stackBytes);
 319              		.loc 1 66 5
 320              		.loc 1 66 28 is_stmt 0
 321 0128 37150000 		li	a0,4096
 322              	.LVL13:
 323 012c 97000000 		call	_Z9mem_allocm
 323      E7800000 
 324              	.LVL14:
  67:src/syscall_c.cpp ****     if (!stack) return -1;
 325              		.loc 1 67 5 is_stmt 1
 326 0134 63040506 		beqz	a0,.L20
  68:src/syscall_c.cpp **** 
  69:src/syscall_c.cpp ****     int result;
 327              		.loc 1 69 5
  70:src/syscall_c.cpp **** 
  71:src/syscall_c.cpp ****     asm volatile("mv a1, %0" :: "r"(handle));
 328              		.loc 1 71 5
 329              		.loc 1 71 45 is_stmt 0
 330              	#APP
 331              	# 71 "src/syscall_c.cpp" 1
  72              	    asm volatile("mv a2, %0" :: "r"(start_routine));
 332              		mv a1, s1
 333              	# 0 "" 2
 334              		.loc 1 72 5 is_stmt 1
 335              		.loc 1 72 52 is_stmt 0
 336              	# 72 "src/syscall_c.cpp" 1
  73              	    asm volatile("mv a3, %0" :: "r"(arg));
 337              		mv a2, s2
GAS LISTING /tmp/ccEqg3G4.s 			page 8


 338              	# 0 "" 2
 339              		.loc 1 73 5 is_stmt 1
 340              		.loc 1 73 42 is_stmt 0
 341              	# 73 "src/syscall_c.cpp" 1
  74              	    asm volatile("mv a4, %0" :: "r"(stack));
 342              		mv a3, s3
 343              	# 0 "" 2
 344              		.loc 1 74 5 is_stmt 1
 345              		.loc 1 74 44 is_stmt 0
 346              	# 74 "src/syscall_c.cpp" 1
  75              	    asm volatile("li a0, 0x11");
 347              		mv a4, a0
 348              	# 0 "" 2
 349              		.loc 1 75 5 is_stmt 1
 350              		.loc 1 75 32 is_stmt 0
 351              	# 75 "src/syscall_c.cpp" 1
  76              	    asm volatile("ecall");
 352              		li a0, 0x11
 353              	# 0 "" 2
 354              		.loc 1 76 5 is_stmt 1
 355              		.loc 1 76 26 is_stmt 0
 356              	# 76 "src/syscall_c.cpp" 1
  77              	    asm volatile("mv %0, a0" : "=r"(result));
 357              		ecall
 358              	# 0 "" 2
 359              		.loc 1 77 5 is_stmt 1
 360              		.loc 1 77 45 is_stmt 0
 361              	# 77 "src/syscall_c.cpp" 1
  78              	
 362              		mv a5, a0
 363              	# 0 "" 2
 364              	#NO_APP
 365 0154 9B840700 		sext.w	s1,a5
 366              	.LVL15:
  79:src/syscall_c.cpp ****     if (result < 0) {
 367              		.loc 1 79 5 is_stmt 1
 368 0158 13970702 		slli	a4,a5,32
 369 015c 63420702 		bltz	a4,.L22
 370              	.LVL16:
 371              	.L17:
  80:src/syscall_c.cpp ****         mem_free(stack);
  81:src/syscall_c.cpp ****     }
  82:src/syscall_c.cpp **** 
  83:src/syscall_c.cpp ****     return result;
  84:src/syscall_c.cpp **** }
 372              		.loc 1 84 1 is_stmt 0
 373 0160 13850400 		mv	a0,s1
 374 0164 83308102 		ld	ra,40(sp)
 375              		.cfi_remember_state
 376              		.cfi_restore 1
 377 0168 03340102 		ld	s0,32(sp)
 378              		.cfi_restore 8
 379              		.cfi_def_cfa 2, 48
 380 016c 83348101 		ld	s1,24(sp)
 381              		.cfi_restore 9
 382 0170 03390101 		ld	s2,16(sp)
 383              		.cfi_restore 18
GAS LISTING /tmp/ccEqg3G4.s 			page 9


 384 0174 83398100 		ld	s3,8(sp)
 385              		.cfi_restore 19
 386 0178 13010103 		addi	sp,sp,48
 387              		.cfi_def_cfa_offset 0
 388 017c 67800000 		jr	ra
 389              	.LVL17:
 390              	.L22:
 391              		.cfi_restore_state
  80:src/syscall_c.cpp ****         mem_free(stack);
 392              		.loc 1 80 9 is_stmt 1
  80:src/syscall_c.cpp ****         mem_free(stack);
 393              		.loc 1 80 17 is_stmt 0
 394 0180 97000000 		call	_Z8mem_freePv
 394      E7800000 
 395              	.LVL18:
 396 0188 6FF09FFD 		j	.L17
 397              	.LVL19:
 398              	.L18:
  63:src/syscall_c.cpp **** 
 399              		.loc 1 63 44
 400 018c 9304F0FF 		li	s1,-1
 401 0190 6FF01FFD 		j	.L17
 402              	.LVL20:
 403              	.L19:
 404 0194 9304F0FF 		li	s1,-1
 405              	.LVL21:
 406 0198 6FF09FFC 		j	.L17
 407              	.LVL22:
 408              	.L20:
  67:src/syscall_c.cpp **** 
 409              		.loc 1 67 25
 410 019c 9304F0FF 		li	s1,-1
 411              	.LVL23:
 412 01a0 6FF01FFC 		j	.L17
 413              		.cfi_endproc
 414              	.LFE6:
 416              		.align	2
 417              		.globl	_Z11thread_exitv
 419              	_Z11thread_exitv:
 420              	.LFB7:
  85:src/syscall_c.cpp **** 
  86:src/syscall_c.cpp **** int thread_exit() {
 421              		.loc 1 86 19 is_stmt 1
 422              		.cfi_startproc
 423 01a4 130101FF 		addi	sp,sp,-16
 424              		.cfi_def_cfa_offset 16
 425 01a8 23348100 		sd	s0,8(sp)
 426              		.cfi_offset 8, -8
 427 01ac 13040101 		addi	s0,sp,16
 428              		.cfi_def_cfa 8, 0
  87:src/syscall_c.cpp ****     int result;
 429              		.loc 1 87 5
  88:src/syscall_c.cpp **** 
  89:src/syscall_c.cpp ****     asm volatile("li a0, 0x12");
 430              		.loc 1 89 5
 431              		.loc 1 89 32 is_stmt 0
 432              	#APP
GAS LISTING /tmp/ccEqg3G4.s 			page 10


 433              	# 89 "src/syscall_c.cpp" 1
  90              	    asm volatile("ecall");
 434              		li a0, 0x12
 435              	# 0 "" 2
 436              		.loc 1 90 5 is_stmt 1
 437              		.loc 1 90 26 is_stmt 0
 438              	# 90 "src/syscall_c.cpp" 1
  91              	    asm volatile("mv %0, a0" : "=r"(result));
 439              		ecall
 440              	# 0 "" 2
 441              		.loc 1 91 5 is_stmt 1
 442              		.loc 1 91 45 is_stmt 0
 443              	# 91 "src/syscall_c.cpp" 1
  92              	
 444              		mv a0, a0
 445              	# 0 "" 2
 446              	.LVL24:
  93:src/syscall_c.cpp ****     return result;
 447              		.loc 1 93 5 is_stmt 1
  94:src/syscall_c.cpp **** }
 448              		.loc 1 94 1 is_stmt 0
 449              	#NO_APP
 450 01bc 1B050500 		sext.w	a0,a0
 451 01c0 03348100 		ld	s0,8(sp)
 452              		.cfi_restore 8
 453              		.cfi_def_cfa 2, 16
 454 01c4 13010101 		addi	sp,sp,16
 455              		.cfi_def_cfa_offset 0
 456 01c8 67800000 		jr	ra
 457              		.cfi_endproc
 458              	.LFE7:
 460              		.align	2
 461              		.globl	_Z15thread_dispatchv
 463              	_Z15thread_dispatchv:
 464              	.LFB8:
  95:src/syscall_c.cpp **** 
  96:src/syscall_c.cpp **** void thread_dispatch() {
 465              		.loc 1 96 24 is_stmt 1
 466              		.cfi_startproc
 467 01cc 130101FF 		addi	sp,sp,-16
 468              		.cfi_def_cfa_offset 16
 469 01d0 23348100 		sd	s0,8(sp)
 470              		.cfi_offset 8, -8
 471 01d4 13040101 		addi	s0,sp,16
 472              		.cfi_def_cfa 8, 0
  97:src/syscall_c.cpp ****     asm volatile("li a0, 0x13");
 473              		.loc 1 97 5
 474              		.loc 1 97 32 is_stmt 0
 475              	#APP
 476              	# 97 "src/syscall_c.cpp" 1
  98              	    asm volatile("ecall");
 477              		li a0, 0x13
 478              	# 0 "" 2
 479              		.loc 1 98 5 is_stmt 1
 480              		.loc 1 98 26 is_stmt 0
 481              	# 98 "src/syscall_c.cpp" 1
  99              	}
GAS LISTING /tmp/ccEqg3G4.s 			page 11


 482              		ecall
 483              	# 0 "" 2
 484              		.loc 1 99 1
 485              	#NO_APP
 486 01e0 03348100 		ld	s0,8(sp)
 487              		.cfi_restore 8
 488              		.cfi_def_cfa 2, 16
 489 01e4 13010101 		addi	sp,sp,16
 490              		.cfi_def_cfa_offset 0
 491 01e8 67800000 		jr	ra
 492              		.cfi_endproc
 493              	.LFE8:
 495              		.align	2
 496              		.globl	_Z8sem_openPP10KSemaphorej
 498              	_Z8sem_openPP10KSemaphorej:
 499              	.LFB9:
 100:src/syscall_c.cpp **** 
 101:src/syscall_c.cpp **** int sem_open(sem_t* handle, unsigned init) {
 500              		.loc 1 101 44 is_stmt 1
 501              		.cfi_startproc
 502              	.LVL25:
 503 01ec 130101FF 		addi	sp,sp,-16
 504              		.cfi_def_cfa_offset 16
 505 01f0 23348100 		sd	s0,8(sp)
 506              		.cfi_offset 8, -8
 507 01f4 13040101 		addi	s0,sp,16
 508              		.cfi_def_cfa 8, 0
 102:src/syscall_c.cpp ****     int result;
 509              		.loc 1 102 5
 103:src/syscall_c.cpp **** 
 104:src/syscall_c.cpp ****     asm volatile("mv a2, %0" :: "r"((uint64)init));
 510              		.loc 1 104 5
 511              		.loc 1 104 37 is_stmt 0
 512 01f8 93950502 		slli	a1,a1,32
 513              	.LVL26:
 514 01fc 93D50502 		srli	a1,a1,32
 515              		.loc 1 104 51
 516              	#APP
 517              	# 104 "src/syscall_c.cpp" 1
 105              	    asm volatile("mv a1, %0" :: "r"((uint64)handle));
 518              		mv a2, a1
 519              	# 0 "" 2
 520              		.loc 1 105 5 is_stmt 1
 521              		.loc 1 105 53 is_stmt 0
 522              	# 105 "src/syscall_c.cpp" 1
 106              	    asm volatile("li a0, 0x21");
 523              		mv a1, a0
 524              	# 0 "" 2
 525              		.loc 1 106 5 is_stmt 1
 526              		.loc 1 106 32 is_stmt 0
 527              	# 106 "src/syscall_c.cpp" 1
 107              	    asm volatile("ecall");
 528              		li a0, 0x21
 529              	# 0 "" 2
 530              		.loc 1 107 5 is_stmt 1
 531              		.loc 1 107 26 is_stmt 0
 532              	# 107 "src/syscall_c.cpp" 1
GAS LISTING /tmp/ccEqg3G4.s 			page 12


 108              	    asm volatile("mv %0, a0" : "=r"(result));
 533              		ecall
 534              	# 0 "" 2
 535              		.loc 1 108 5 is_stmt 1
 536              		.loc 1 108 45 is_stmt 0
 537              	# 108 "src/syscall_c.cpp" 1
 109              	
 538              		mv a0, a0
 539              	# 0 "" 2
 540              	.LVL27:
 110:src/syscall_c.cpp ****     return result;
 541              		.loc 1 110 5 is_stmt 1
 111:src/syscall_c.cpp **** }
 542              		.loc 1 111 1 is_stmt 0
 543              	#NO_APP
 544 0214 1B050500 		sext.w	a0,a0
 545 0218 03348100 		ld	s0,8(sp)
 546              		.cfi_restore 8
 547              		.cfi_def_cfa 2, 16
 548 021c 13010101 		addi	sp,sp,16
 549              		.cfi_def_cfa_offset 0
 550 0220 67800000 		jr	ra
 551              		.cfi_endproc
 552              	.LFE9:
 554              		.align	2
 555              		.globl	_Z9sem_closeP10KSemaphore
 557              	_Z9sem_closeP10KSemaphore:
 558              	.LFB10:
 112:src/syscall_c.cpp **** 
 113:src/syscall_c.cpp **** int sem_close(sem_t handle) {
 559              		.loc 1 113 29 is_stmt 1
 560              		.cfi_startproc
 561              	.LVL28:
 562 0224 130101FF 		addi	sp,sp,-16
 563              		.cfi_def_cfa_offset 16
 564 0228 23348100 		sd	s0,8(sp)
 565              		.cfi_offset 8, -8
 566 022c 13040101 		addi	s0,sp,16
 567              		.cfi_def_cfa 8, 0
 114:src/syscall_c.cpp ****     int result;
 568              		.loc 1 114 5
 115:src/syscall_c.cpp **** 
 116:src/syscall_c.cpp ****     asm volatile("mv a1, %0" :: "r"(handle));
 569              		.loc 1 116 5
 570              		.loc 1 116 45 is_stmt 0
 571              	#APP
 572              	# 116 "src/syscall_c.cpp" 1
 117              	    asm volatile("li a0, 0x22");
 573              		mv a1, a0
 574              	# 0 "" 2
 575              		.loc 1 117 5 is_stmt 1
 576              		.loc 1 117 32 is_stmt 0
 577              	# 117 "src/syscall_c.cpp" 1
 118              	    asm volatile("ecall");
 578              		li a0, 0x22
 579              	# 0 "" 2
 580              		.loc 1 118 5 is_stmt 1
GAS LISTING /tmp/ccEqg3G4.s 			page 13


 581              		.loc 1 118 26 is_stmt 0
 582              	# 118 "src/syscall_c.cpp" 1
 119              	    asm volatile("mv %0, a0" : "=r"(result));
 583              		ecall
 584              	# 0 "" 2
 585              		.loc 1 119 5 is_stmt 1
 586              		.loc 1 119 45 is_stmt 0
 587              	# 119 "src/syscall_c.cpp" 1
 120              	
 588              		mv a0, a0
 589              	# 0 "" 2
 590              	.LVL29:
 121:src/syscall_c.cpp ****     return result;
 591              		.loc 1 121 5 is_stmt 1
 122:src/syscall_c.cpp **** }
 592              		.loc 1 122 1 is_stmt 0
 593              	#NO_APP
 594 0240 1B050500 		sext.w	a0,a0
 595 0244 03348100 		ld	s0,8(sp)
 596              		.cfi_restore 8
 597              		.cfi_def_cfa 2, 16
 598 0248 13010101 		addi	sp,sp,16
 599              		.cfi_def_cfa_offset 0
 600 024c 67800000 		jr	ra
 601              		.cfi_endproc
 602              	.LFE10:
 604              		.align	2
 605              		.globl	_Z8sem_waitP10KSemaphore
 607              	_Z8sem_waitP10KSemaphore:
 608              	.LFB11:
 123:src/syscall_c.cpp **** 
 124:src/syscall_c.cpp **** int sem_wait(sem_t id) {
 609              		.loc 1 124 24 is_stmt 1
 610              		.cfi_startproc
 611              	.LVL30:
 612 0250 130101FF 		addi	sp,sp,-16
 613              		.cfi_def_cfa_offset 16
 614 0254 23348100 		sd	s0,8(sp)
 615              		.cfi_offset 8, -8
 616 0258 13040101 		addi	s0,sp,16
 617              		.cfi_def_cfa 8, 0
 125:src/syscall_c.cpp ****     int result;
 618              		.loc 1 125 5
 126:src/syscall_c.cpp **** 
 127:src/syscall_c.cpp ****     asm volatile("mv a1, %0" :: "r"(id));
 619              		.loc 1 127 5
 620              		.loc 1 127 41 is_stmt 0
 621              	#APP
 622              	# 127 "src/syscall_c.cpp" 1
 128              	    asm volatile("li a0, 0x23");
 623              		mv a1, a0
 624              	# 0 "" 2
 625              		.loc 1 128 5 is_stmt 1
 626              		.loc 1 128 32 is_stmt 0
 627              	# 128 "src/syscall_c.cpp" 1
 129              	    asm volatile("ecall");
 628              		li a0, 0x23
GAS LISTING /tmp/ccEqg3G4.s 			page 14


 629              	# 0 "" 2
 630              		.loc 1 129 5 is_stmt 1
 631              		.loc 1 129 26 is_stmt 0
 632              	# 129 "src/syscall_c.cpp" 1
 130              	    asm volatile("mv %0, a0" : "=r"(result));
 633              		ecall
 634              	# 0 "" 2
 635              		.loc 1 130 5 is_stmt 1
 636              		.loc 1 130 45 is_stmt 0
 637              	# 130 "src/syscall_c.cpp" 1
 131              	
 638              		mv a0, a0
 639              	# 0 "" 2
 640              	.LVL31:
 132:src/syscall_c.cpp ****     return result;
 641              		.loc 1 132 5 is_stmt 1
 133:src/syscall_c.cpp **** }
 642              		.loc 1 133 1 is_stmt 0
 643              	#NO_APP
 644 026c 1B050500 		sext.w	a0,a0
 645 0270 03348100 		ld	s0,8(sp)
 646              		.cfi_restore 8
 647              		.cfi_def_cfa 2, 16
 648 0274 13010101 		addi	sp,sp,16
 649              		.cfi_def_cfa_offset 0
 650 0278 67800000 		jr	ra
 651              		.cfi_endproc
 652              	.LFE11:
 654              		.align	2
 655              		.globl	_Z10sem_signalP10KSemaphore
 657              	_Z10sem_signalP10KSemaphore:
 658              	.LFB12:
 134:src/syscall_c.cpp **** 
 135:src/syscall_c.cpp **** int sem_signal(sem_t id) {
 659              		.loc 1 135 26 is_stmt 1
 660              		.cfi_startproc
 661              	.LVL32:
 662 027c 130101FF 		addi	sp,sp,-16
 663              		.cfi_def_cfa_offset 16
 664 0280 23348100 		sd	s0,8(sp)
 665              		.cfi_offset 8, -8
 666 0284 13040101 		addi	s0,sp,16
 667              		.cfi_def_cfa 8, 0
 136:src/syscall_c.cpp ****     int result;
 668              		.loc 1 136 5
 137:src/syscall_c.cpp **** 
 138:src/syscall_c.cpp ****     asm volatile("mv a1, %0" :: "r"(id));
 669              		.loc 1 138 5
 670              		.loc 1 138 41 is_stmt 0
 671              	#APP
 672              	# 138 "src/syscall_c.cpp" 1
 139              	    asm volatile("li a0, 0x24");
 673              		mv a1, a0
 674              	# 0 "" 2
 675              		.loc 1 139 5 is_stmt 1
 676              		.loc 1 139 32 is_stmt 0
 677              	# 139 "src/syscall_c.cpp" 1
GAS LISTING /tmp/ccEqg3G4.s 			page 15


 140              	    asm volatile("ecall");
 678              		li a0, 0x24
 679              	# 0 "" 2
 680              		.loc 1 140 5 is_stmt 1
 681              		.loc 1 140 26 is_stmt 0
 682              	# 140 "src/syscall_c.cpp" 1
 141              	    asm volatile("mv %0, a0" : "=r"(result));
 683              		ecall
 684              	# 0 "" 2
 685              		.loc 1 141 5 is_stmt 1
 686              		.loc 1 141 45 is_stmt 0
 687              	# 141 "src/syscall_c.cpp" 1
 142              	
 688              		mv a0, a0
 689              	# 0 "" 2
 690              	.LVL33:
 143:src/syscall_c.cpp ****     return result;
 691              		.loc 1 143 5 is_stmt 1
 144:src/syscall_c.cpp **** }
 692              		.loc 1 144 1 is_stmt 0
 693              	#NO_APP
 694 0298 1B050500 		sext.w	a0,a0
 695 029c 03348100 		ld	s0,8(sp)
 696              		.cfi_restore 8
 697              		.cfi_def_cfa 2, 16
 698 02a0 13010101 		addi	sp,sp,16
 699              		.cfi_def_cfa_offset 0
 700 02a4 67800000 		jr	ra
 701              		.cfi_endproc
 702              	.LFE12:
 704              		.align	2
 705              		.globl	_Z4getcv
 707              	_Z4getcv:
 708              	.LFB13:
 145:src/syscall_c.cpp **** 
 146:src/syscall_c.cpp **** char getc() {
 709              		.loc 1 146 13 is_stmt 1
 710              		.cfi_startproc
 711 02a8 130101FF 		addi	sp,sp,-16
 712              		.cfi_def_cfa_offset 16
 713 02ac 23348100 		sd	s0,8(sp)
 714              		.cfi_offset 8, -8
 715 02b0 13040101 		addi	s0,sp,16
 716              		.cfi_def_cfa 8, 0
 147:src/syscall_c.cpp ****     char c;
 717              		.loc 1 147 5
 148:src/syscall_c.cpp **** 
 149:src/syscall_c.cpp ****     asm volatile("li a0, 0x41");
 718              		.loc 1 149 5
 719              		.loc 1 149 32 is_stmt 0
 720              	#APP
 721              	# 149 "src/syscall_c.cpp" 1
 150              	    asm volatile("ecall");
 722              		li a0, 0x41
 723              	# 0 "" 2
 724              		.loc 1 150 5 is_stmt 1
 725              		.loc 1 150 26 is_stmt 0
GAS LISTING /tmp/ccEqg3G4.s 			page 16


 726              	# 150 "src/syscall_c.cpp" 1
 151              	    asm volatile("mv %0, a0" : "=r"(c));
 727              		ecall
 728              	# 0 "" 2
 729              		.loc 1 151 5 is_stmt 1
 730              		.loc 1 151 40 is_stmt 0
 731              	# 151 "src/syscall_c.cpp" 1
 152              	
 732              		mv a0, a0
 733              	# 0 "" 2
 734              	.LVL34:
 153:src/syscall_c.cpp ****     return c;
 735              		.loc 1 153 5 is_stmt 1
 154:src/syscall_c.cpp **** }
 736              		.loc 1 154 1 is_stmt 0
 737              	#NO_APP
 738 02c0 1375F50F 		andi	a0,a0,0xff
 739 02c4 03348100 		ld	s0,8(sp)
 740              		.cfi_restore 8
 741              		.cfi_def_cfa 2, 16
 742 02c8 13010101 		addi	sp,sp,16
 743              		.cfi_def_cfa_offset 0
 744 02cc 67800000 		jr	ra
 745              		.cfi_endproc
 746              	.LFE13:
 748              		.align	2
 749              		.globl	_Z4putcc
 751              	_Z4putcc:
 752              	.LFB14:
 155:src/syscall_c.cpp **** 
 156:src/syscall_c.cpp **** void putc(char c) {
 753              		.loc 1 156 19 is_stmt 1
 754              		.cfi_startproc
 755              	.LVL35:
 756 02d0 130101FF 		addi	sp,sp,-16
 757              		.cfi_def_cfa_offset 16
 758 02d4 23348100 		sd	s0,8(sp)
 759              		.cfi_offset 8, -8
 760 02d8 13040101 		addi	s0,sp,16
 761              		.cfi_def_cfa 8, 0
 157:src/syscall_c.cpp ****     asm volatile("mv a1, %0" :: "r"(c));
 762              		.loc 1 157 5
 763              		.loc 1 157 40 is_stmt 0
 764              	#APP
 765              	# 157 "src/syscall_c.cpp" 1
 158              	    asm volatile("li a0, 0x42");
 766              		mv a1, a0
 767              	# 0 "" 2
 768              		.loc 1 158 5 is_stmt 1
 769              		.loc 1 158 32 is_stmt 0
 770              	# 158 "src/syscall_c.cpp" 1
 159              	    asm volatile("ecall");
 771              		li a0, 0x42
 772              	# 0 "" 2
 773              		.loc 1 159 5 is_stmt 1
 774              		.loc 1 159 26 is_stmt 0
 775              	# 159 "src/syscall_c.cpp" 1
GAS LISTING /tmp/ccEqg3G4.s 			page 17


 160              	}...
 776              		ecall
 777              	# 0 "" 2
 778              		.loc 1 160 1
 779              	#NO_APP
 780 02e8 03348100 		ld	s0,8(sp)
 781              		.cfi_restore 8
 782              		.cfi_def_cfa 2, 16
 783 02ec 13010101 		addi	sp,sp,16
 784              		.cfi_def_cfa_offset 0
 785 02f0 67800000 		jr	ra
 786              		.cfi_endproc
 787              	.LFE14:
 789              	.Letext0:
 790              		.file 2 "src/../h/../lib/hw.h"
 791              		.file 3 "src/../h/syscall_c.hpp"
GAS LISTING /tmp/ccEqg3G4.s 			page 18


DEFINED SYMBOLS
                            *ABS*:0000000000000000 syscall_c.cpp
     /tmp/ccEqg3G4.s:9      .text:0000000000000000 _Z9mem_allocm
     /tmp/ccEqg3G4.s:13     .text:0000000000000000 .L0 
     /tmp/ccEqg3G4.s:15     .text:0000000000000000 .L0 
     /tmp/ccEqg3G4.s:16     .text:0000000000000004 .L0 
     /tmp/ccEqg3G4.s:18     .text:0000000000000008 .L0 
     /tmp/ccEqg3G4.s:20     .text:000000000000000c .L0 
     /tmp/ccEqg3G4.s:22     .text:000000000000000c .L0 
     /tmp/ccEqg3G4.s:24     .text:0000000000000010 .L0 
     /tmp/ccEqg3G4.s:25     .text:0000000000000010 .L0 
     /tmp/ccEqg3G4.s:28     .text:0000000000000014 .L0 
     /tmp/ccEqg3G4.s:29     .text:0000000000000014 .L0 
     /tmp/ccEqg3G4.s:32     .text:0000000000000018 .L0 
     /tmp/ccEqg3G4.s:34     .text:000000000000001c .L0 
     /tmp/ccEqg3G4.s:35     .text:000000000000001c .L0 
     /tmp/ccEqg3G4.s:39     .text:0000000000000020 .L0 
     /tmp/ccEqg3G4.s:40     .text:0000000000000020 .L0 
   src/syscall_c.cpp:15     .text:0000000000000020 .L0 
     /tmp/ccEqg3G4.s:46     .text:0000000000000024 .L0 
   src/syscall_c.cpp:16     .text:0000000000000024 .L0 
     /tmp/ccEqg3G4.s:51     .text:0000000000000028 .L0 
   src/syscall_c.cpp:17     .text:0000000000000028 .L0 
     /tmp/ccEqg3G4.s:56     .text:000000000000002c .L0 
   src/syscall_c.cpp:18     .text:000000000000002c .L0 
     /tmp/ccEqg3G4.s:64     .text:0000000000000030 .L0 
     /tmp/ccEqg3G4.s:65     .text:0000000000000030 .L0 
     /tmp/ccEqg3G4.s:66     .text:0000000000000034 .L0 
     /tmp/ccEqg3G4.s:67     .text:0000000000000034 .L0 
     /tmp/ccEqg3G4.s:68     .text:0000000000000034 .L0 
     /tmp/ccEqg3G4.s:70     .text:0000000000000038 .L0 
     /tmp/ccEqg3G4.s:74     .text:000000000000003c .L0 
     /tmp/ccEqg3G4.s:76     .text:000000000000003c .L0 
     /tmp/ccEqg3G4.s:79     .text:0000000000000044 .L0 
     /tmp/ccEqg3G4.s:85     .text:0000000000000044 _Z8mem_freePv
     /tmp/ccEqg3G4.s:88     .text:0000000000000044 .L0 
     /tmp/ccEqg3G4.s:90     .text:0000000000000044 .L0 
     /tmp/ccEqg3G4.s:91     .text:0000000000000048 .L0 
     /tmp/ccEqg3G4.s:93     .text:000000000000004c .L0 
     /tmp/ccEqg3G4.s:95     .text:0000000000000050 .L0 
     /tmp/ccEqg3G4.s:97     .text:0000000000000050 .L0 
     /tmp/ccEqg3G4.s:98     .text:0000000000000050 .L0 
   src/syscall_c.cpp:26     .text:0000000000000050 .L0 
     /tmp/ccEqg3G4.s:104    .text:0000000000000054 .L0 
   src/syscall_c.cpp:27     .text:0000000000000054 .L0 
     /tmp/ccEqg3G4.s:109    .text:0000000000000058 .L0 
   src/syscall_c.cpp:28     .text:0000000000000058 .L0 
     /tmp/ccEqg3G4.s:114    .text:000000000000005c .L0 
   src/syscall_c.cpp:29     .text:000000000000005c .L0 
     /tmp/ccEqg3G4.s:120    .text:0000000000000060 .L0 
     /tmp/ccEqg3G4.s:122    .text:0000000000000060 .L0 
     /tmp/ccEqg3G4.s:124    .text:0000000000000068 .L0 
     /tmp/ccEqg3G4.s:125    .text:0000000000000068 .L0 
     /tmp/ccEqg3G4.s:127    .text:000000000000006c .L0 
     /tmp/ccEqg3G4.s:129    .text:0000000000000070 .L0 
     /tmp/ccEqg3G4.s:135    .text:0000000000000070 _Z18mem_get_free_spacev
     /tmp/ccEqg3G4.s:138    .text:0000000000000070 .L0 
GAS LISTING /tmp/ccEqg3G4.s 			page 19


     /tmp/ccEqg3G4.s:139    .text:0000000000000070 .L0 
     /tmp/ccEqg3G4.s:140    .text:0000000000000074 .L0 
     /tmp/ccEqg3G4.s:142    .text:0000000000000078 .L0 
     /tmp/ccEqg3G4.s:144    .text:000000000000007c .L0 
     /tmp/ccEqg3G4.s:146    .text:000000000000007c .L0 
     /tmp/ccEqg3G4.s:147    .text:000000000000007c .L0 
   src/syscall_c.cpp:37     .text:000000000000007c .L0 
     /tmp/ccEqg3G4.s:153    .text:0000000000000080 .L0 
   src/syscall_c.cpp:38     .text:0000000000000080 .L0 
     /tmp/ccEqg3G4.s:158    .text:0000000000000084 .L0 
   src/syscall_c.cpp:39     .text:0000000000000084 .L0 
     /tmp/ccEqg3G4.s:164    .text:0000000000000088 .L0 
     /tmp/ccEqg3G4.s:166    .text:0000000000000088 .L0 
     /tmp/ccEqg3G4.s:167    .text:000000000000008c .L0 
     /tmp/ccEqg3G4.s:168    .text:000000000000008c .L0 
     /tmp/ccEqg3G4.s:170    .text:0000000000000090 .L0 
     /tmp/ccEqg3G4.s:172    .text:0000000000000094 .L0 
     /tmp/ccEqg3G4.s:178    .text:0000000000000094 _Z26mem_get_largest_free_blockv
     /tmp/ccEqg3G4.s:181    .text:0000000000000094 .L0 
     /tmp/ccEqg3G4.s:182    .text:0000000000000094 .L0 
     /tmp/ccEqg3G4.s:183    .text:0000000000000098 .L0 
     /tmp/ccEqg3G4.s:185    .text:000000000000009c .L0 
     /tmp/ccEqg3G4.s:187    .text:00000000000000a0 .L0 
     /tmp/ccEqg3G4.s:189    .text:00000000000000a0 .L0 
     /tmp/ccEqg3G4.s:190    .text:00000000000000a0 .L0 
   src/syscall_c.cpp:46     .text:00000000000000a0 .L0 
     /tmp/ccEqg3G4.s:196    .text:00000000000000a4 .L0 
   src/syscall_c.cpp:47     .text:00000000000000a4 .L0 
     /tmp/ccEqg3G4.s:201    .text:00000000000000a8 .L0 
   src/syscall_c.cpp:48     .text:00000000000000a8 .L0 
     /tmp/ccEqg3G4.s:207    .text:00000000000000ac .L0 
     /tmp/ccEqg3G4.s:209    .text:00000000000000ac .L0 
     /tmp/ccEqg3G4.s:210    .text:00000000000000b0 .L0 
     /tmp/ccEqg3G4.s:211    .text:00000000000000b0 .L0 
     /tmp/ccEqg3G4.s:213    .text:00000000000000b4 .L0 
     /tmp/ccEqg3G4.s:215    .text:00000000000000b8 .L0 
     /tmp/ccEqg3G4.s:221    .text:00000000000000b8 _Z8userModev
     /tmp/ccEqg3G4.s:224    .text:00000000000000b8 .L0 
     /tmp/ccEqg3G4.s:225    .text:00000000000000b8 .L0 
     /tmp/ccEqg3G4.s:226    .text:00000000000000bc .L0 
     /tmp/ccEqg3G4.s:228    .text:00000000000000c0 .L0 
     /tmp/ccEqg3G4.s:230    .text:00000000000000c4 .L0 
     /tmp/ccEqg3G4.s:232    .text:00000000000000c4 .L0 
   src/syscall_c.cpp:53     .text:00000000000000c4 .L0 
     /tmp/ccEqg3G4.s:238    .text:00000000000000c8 .L0 
   src/syscall_c.cpp:54     .text:00000000000000c8 .L0 
     /tmp/ccEqg3G4.s:244    .text:00000000000000cc .L0 
     /tmp/ccEqg3G4.s:245    .text:00000000000000d0 .L0 
     /tmp/ccEqg3G4.s:246    .text:00000000000000d0 .L0 
     /tmp/ccEqg3G4.s:248    .text:00000000000000d4 .L0 
     /tmp/ccEqg3G4.s:250    .text:00000000000000d8 .L0 
     /tmp/ccEqg3G4.s:256    .text:00000000000000d8 _Z10kernelModev
     /tmp/ccEqg3G4.s:259    .text:00000000000000d8 .L0 
     /tmp/ccEqg3G4.s:260    .text:00000000000000d8 .L0 
     /tmp/ccEqg3G4.s:261    .text:00000000000000dc .L0 
     /tmp/ccEqg3G4.s:263    .text:00000000000000e0 .L0 
     /tmp/ccEqg3G4.s:265    .text:00000000000000e4 .L0 
GAS LISTING /tmp/ccEqg3G4.s 			page 20


     /tmp/ccEqg3G4.s:267    .text:00000000000000e4 .L0 
   src/syscall_c.cpp:58     .text:00000000000000e4 .L0 
     /tmp/ccEqg3G4.s:273    .text:00000000000000e8 .L0 
   src/syscall_c.cpp:59     .text:00000000000000e8 .L0 
     /tmp/ccEqg3G4.s:279    .text:00000000000000ec .L0 
     /tmp/ccEqg3G4.s:280    .text:00000000000000f0 .L0 
     /tmp/ccEqg3G4.s:281    .text:00000000000000f0 .L0 
     /tmp/ccEqg3G4.s:283    .text:00000000000000f4 .L0 
     /tmp/ccEqg3G4.s:285    .text:00000000000000f8 .L0 
     /tmp/ccEqg3G4.s:291    .text:00000000000000f8 _Z13thread_createPP7KThreadPFvPvES2_
     /tmp/ccEqg3G4.s:294    .text:00000000000000f8 .L0 
     /tmp/ccEqg3G4.s:296    .text:00000000000000f8 .L0 
     /tmp/ccEqg3G4.s:297    .text:00000000000000fc .L0 
     /tmp/ccEqg3G4.s:303    .text:0000000000000110 .L0 
     /tmp/ccEqg3G4.s:304    .text:0000000000000110 .L0 
     /tmp/ccEqg3G4.s:305    .text:0000000000000110 .L0 
     /tmp/ccEqg3G4.s:306    .text:0000000000000110 .L0 
     /tmp/ccEqg3G4.s:307    .text:0000000000000110 .L0 
     /tmp/ccEqg3G4.s:309    .text:0000000000000114 .L0 
     /tmp/ccEqg3G4.s:311    .text:0000000000000114 .L0 
     /tmp/ccEqg3G4.s:316    .text:0000000000000124 .L0 
     /tmp/ccEqg3G4.s:319    .text:0000000000000128 .L0 
     /tmp/ccEqg3G4.s:320    .text:0000000000000128 .L0 
     /tmp/ccEqg3G4.s:321    .text:0000000000000128 .L0 
     /tmp/ccEqg3G4.s:326    .text:0000000000000134 .L0 
     /tmp/ccEqg3G4.s:328    .text:0000000000000138 .L0 
     /tmp/ccEqg3G4.s:329    .text:0000000000000138 .L0 
   src/syscall_c.cpp:71     .text:0000000000000138 .L0 
     /tmp/ccEqg3G4.s:335    .text:000000000000013c .L0 
   src/syscall_c.cpp:72     .text:000000000000013c .L0 
     /tmp/ccEqg3G4.s:340    .text:0000000000000140 .L0 
   src/syscall_c.cpp:73     .text:0000000000000140 .L0 
     /tmp/ccEqg3G4.s:345    .text:0000000000000144 .L0 
   src/syscall_c.cpp:74     .text:0000000000000144 .L0 
     /tmp/ccEqg3G4.s:350    .text:0000000000000148 .L0 
   src/syscall_c.cpp:75     .text:0000000000000148 .L0 
     /tmp/ccEqg3G4.s:355    .text:000000000000014c .L0 
   src/syscall_c.cpp:76     .text:000000000000014c .L0 
     /tmp/ccEqg3G4.s:360    .text:0000000000000150 .L0 
   src/syscall_c.cpp:77     .text:0000000000000150 .L0 
     /tmp/ccEqg3G4.s:368    .text:0000000000000158 .L0 
     /tmp/ccEqg3G4.s:373    .text:0000000000000160 .L0 
     /tmp/ccEqg3G4.s:375    .text:0000000000000168 .L0 
     /tmp/ccEqg3G4.s:376    .text:0000000000000168 .L0 
     /tmp/ccEqg3G4.s:378    .text:000000000000016c .L0 
     /tmp/ccEqg3G4.s:379    .text:000000000000016c .L0 
     /tmp/ccEqg3G4.s:381    .text:0000000000000170 .L0 
     /tmp/ccEqg3G4.s:383    .text:0000000000000174 .L0 
     /tmp/ccEqg3G4.s:385    .text:0000000000000178 .L0 
     /tmp/ccEqg3G4.s:387    .text:000000000000017c .L0 
     /tmp/ccEqg3G4.s:391    .text:0000000000000180 .L0 
     /tmp/ccEqg3G4.s:393    .text:0000000000000180 .L0 
     /tmp/ccEqg3G4.s:394    .text:0000000000000180 .L0 
     /tmp/ccEqg3G4.s:400    .text:000000000000018c .L0 
     /tmp/ccEqg3G4.s:410    .text:000000000000019c .L0 
     /tmp/ccEqg3G4.s:413    .text:00000000000001a4 .L0 
     /tmp/ccEqg3G4.s:419    .text:00000000000001a4 _Z11thread_exitv
GAS LISTING /tmp/ccEqg3G4.s 			page 21


     /tmp/ccEqg3G4.s:422    .text:00000000000001a4 .L0 
     /tmp/ccEqg3G4.s:423    .text:00000000000001a4 .L0 
     /tmp/ccEqg3G4.s:424    .text:00000000000001a8 .L0 
     /tmp/ccEqg3G4.s:426    .text:00000000000001ac .L0 
     /tmp/ccEqg3G4.s:428    .text:00000000000001b0 .L0 
     /tmp/ccEqg3G4.s:430    .text:00000000000001b0 .L0 
     /tmp/ccEqg3G4.s:431    .text:00000000000001b0 .L0 
   src/syscall_c.cpp:89     .text:00000000000001b0 .L0 
     /tmp/ccEqg3G4.s:437    .text:00000000000001b4 .L0 
   src/syscall_c.cpp:90     .text:00000000000001b4 .L0 
     /tmp/ccEqg3G4.s:442    .text:00000000000001b8 .L0 
   src/syscall_c.cpp:91     .text:00000000000001b8 .L0 
     /tmp/ccEqg3G4.s:448    .text:00000000000001bc .L0 
     /tmp/ccEqg3G4.s:450    .text:00000000000001bc .L0 
     /tmp/ccEqg3G4.s:452    .text:00000000000001c4 .L0 
     /tmp/ccEqg3G4.s:453    .text:00000000000001c4 .L0 
     /tmp/ccEqg3G4.s:455    .text:00000000000001c8 .L0 
     /tmp/ccEqg3G4.s:457    .text:00000000000001cc .L0 
     /tmp/ccEqg3G4.s:463    .text:00000000000001cc _Z15thread_dispatchv
     /tmp/ccEqg3G4.s:466    .text:00000000000001cc .L0 
     /tmp/ccEqg3G4.s:467    .text:00000000000001cc .L0 
     /tmp/ccEqg3G4.s:468    .text:00000000000001d0 .L0 
     /tmp/ccEqg3G4.s:470    .text:00000000000001d4 .L0 
     /tmp/ccEqg3G4.s:472    .text:00000000000001d8 .L0 
     /tmp/ccEqg3G4.s:474    .text:00000000000001d8 .L0 
   src/syscall_c.cpp:97     .text:00000000000001d8 .L0 
     /tmp/ccEqg3G4.s:480    .text:00000000000001dc .L0 
   src/syscall_c.cpp:98     .text:00000000000001dc .L0 
     /tmp/ccEqg3G4.s:486    .text:00000000000001e0 .L0 
     /tmp/ccEqg3G4.s:487    .text:00000000000001e4 .L0 
     /tmp/ccEqg3G4.s:488    .text:00000000000001e4 .L0 
     /tmp/ccEqg3G4.s:490    .text:00000000000001e8 .L0 
     /tmp/ccEqg3G4.s:492    .text:00000000000001ec .L0 
     /tmp/ccEqg3G4.s:498    .text:00000000000001ec _Z8sem_openPP10KSemaphorej
     /tmp/ccEqg3G4.s:501    .text:00000000000001ec .L0 
     /tmp/ccEqg3G4.s:503    .text:00000000000001ec .L0 
     /tmp/ccEqg3G4.s:504    .text:00000000000001f0 .L0 
     /tmp/ccEqg3G4.s:506    .text:00000000000001f4 .L0 
     /tmp/ccEqg3G4.s:508    .text:00000000000001f8 .L0 
     /tmp/ccEqg3G4.s:510    .text:00000000000001f8 .L0 
     /tmp/ccEqg3G4.s:511    .text:00000000000001f8 .L0 
     /tmp/ccEqg3G4.s:512    .text:00000000000001f8 .L0 
   src/syscall_c.cpp:104    .text:0000000000000200 .L0 
     /tmp/ccEqg3G4.s:521    .text:0000000000000204 .L0 
   src/syscall_c.cpp:105    .text:0000000000000204 .L0 
     /tmp/ccEqg3G4.s:526    .text:0000000000000208 .L0 
   src/syscall_c.cpp:106    .text:0000000000000208 .L0 
     /tmp/ccEqg3G4.s:531    .text:000000000000020c .L0 
   src/syscall_c.cpp:107    .text:000000000000020c .L0 
     /tmp/ccEqg3G4.s:536    .text:0000000000000210 .L0 
   src/syscall_c.cpp:108    .text:0000000000000210 .L0 
     /tmp/ccEqg3G4.s:542    .text:0000000000000214 .L0 
     /tmp/ccEqg3G4.s:544    .text:0000000000000214 .L0 
     /tmp/ccEqg3G4.s:546    .text:000000000000021c .L0 
     /tmp/ccEqg3G4.s:547    .text:000000000000021c .L0 
     /tmp/ccEqg3G4.s:549    .text:0000000000000220 .L0 
     /tmp/ccEqg3G4.s:551    .text:0000000000000224 .L0 
GAS LISTING /tmp/ccEqg3G4.s 			page 22


     /tmp/ccEqg3G4.s:557    .text:0000000000000224 _Z9sem_closeP10KSemaphore
     /tmp/ccEqg3G4.s:560    .text:0000000000000224 .L0 
     /tmp/ccEqg3G4.s:562    .text:0000000000000224 .L0 
     /tmp/ccEqg3G4.s:563    .text:0000000000000228 .L0 
     /tmp/ccEqg3G4.s:565    .text:000000000000022c .L0 
     /tmp/ccEqg3G4.s:567    .text:0000000000000230 .L0 
     /tmp/ccEqg3G4.s:569    .text:0000000000000230 .L0 
     /tmp/ccEqg3G4.s:570    .text:0000000000000230 .L0 
   src/syscall_c.cpp:116    .text:0000000000000230 .L0 
     /tmp/ccEqg3G4.s:576    .text:0000000000000234 .L0 
   src/syscall_c.cpp:117    .text:0000000000000234 .L0 
     /tmp/ccEqg3G4.s:581    .text:0000000000000238 .L0 
   src/syscall_c.cpp:118    .text:0000000000000238 .L0 
     /tmp/ccEqg3G4.s:586    .text:000000000000023c .L0 
   src/syscall_c.cpp:119    .text:000000000000023c .L0 
     /tmp/ccEqg3G4.s:592    .text:0000000000000240 .L0 
     /tmp/ccEqg3G4.s:594    .text:0000000000000240 .L0 
     /tmp/ccEqg3G4.s:596    .text:0000000000000248 .L0 
     /tmp/ccEqg3G4.s:597    .text:0000000000000248 .L0 
     /tmp/ccEqg3G4.s:599    .text:000000000000024c .L0 
     /tmp/ccEqg3G4.s:601    .text:0000000000000250 .L0 
     /tmp/ccEqg3G4.s:607    .text:0000000000000250 _Z8sem_waitP10KSemaphore
     /tmp/ccEqg3G4.s:610    .text:0000000000000250 .L0 
     /tmp/ccEqg3G4.s:612    .text:0000000000000250 .L0 
     /tmp/ccEqg3G4.s:613    .text:0000000000000254 .L0 
     /tmp/ccEqg3G4.s:615    .text:0000000000000258 .L0 
     /tmp/ccEqg3G4.s:617    .text:000000000000025c .L0 
     /tmp/ccEqg3G4.s:619    .text:000000000000025c .L0 
     /tmp/ccEqg3G4.s:620    .text:000000000000025c .L0 
   src/syscall_c.cpp:127    .text:000000000000025c .L0 
     /tmp/ccEqg3G4.s:626    .text:0000000000000260 .L0 
   src/syscall_c.cpp:128    .text:0000000000000260 .L0 
     /tmp/ccEqg3G4.s:631    .text:0000000000000264 .L0 
   src/syscall_c.cpp:129    .text:0000000000000264 .L0 
     /tmp/ccEqg3G4.s:636    .text:0000000000000268 .L0 
   src/syscall_c.cpp:130    .text:0000000000000268 .L0 
     /tmp/ccEqg3G4.s:642    .text:000000000000026c .L0 
     /tmp/ccEqg3G4.s:644    .text:000000000000026c .L0 
     /tmp/ccEqg3G4.s:646    .text:0000000000000274 .L0 
     /tmp/ccEqg3G4.s:647    .text:0000000000000274 .L0 
     /tmp/ccEqg3G4.s:649    .text:0000000000000278 .L0 
     /tmp/ccEqg3G4.s:651    .text:000000000000027c .L0 
     /tmp/ccEqg3G4.s:657    .text:000000000000027c _Z10sem_signalP10KSemaphore
     /tmp/ccEqg3G4.s:660    .text:000000000000027c .L0 
     /tmp/ccEqg3G4.s:662    .text:000000000000027c .L0 
     /tmp/ccEqg3G4.s:663    .text:0000000000000280 .L0 
     /tmp/ccEqg3G4.s:665    .text:0000000000000284 .L0 
     /tmp/ccEqg3G4.s:667    .text:0000000000000288 .L0 
     /tmp/ccEqg3G4.s:669    .text:0000000000000288 .L0 
     /tmp/ccEqg3G4.s:670    .text:0000000000000288 .L0 
   src/syscall_c.cpp:138    .text:0000000000000288 .L0 
     /tmp/ccEqg3G4.s:676    .text:000000000000028c .L0 
   src/syscall_c.cpp:139    .text:000000000000028c .L0 
     /tmp/ccEqg3G4.s:681    .text:0000000000000290 .L0 
   src/syscall_c.cpp:140    .text:0000000000000290 .L0 
     /tmp/ccEqg3G4.s:686    .text:0000000000000294 .L0 
   src/syscall_c.cpp:141    .text:0000000000000294 .L0 
GAS LISTING /tmp/ccEqg3G4.s 			page 23


     /tmp/ccEqg3G4.s:692    .text:0000000000000298 .L0 
     /tmp/ccEqg3G4.s:694    .text:0000000000000298 .L0 
     /tmp/ccEqg3G4.s:696    .text:00000000000002a0 .L0 
     /tmp/ccEqg3G4.s:697    .text:00000000000002a0 .L0 
     /tmp/ccEqg3G4.s:699    .text:00000000000002a4 .L0 
     /tmp/ccEqg3G4.s:701    .text:00000000000002a8 .L0 
     /tmp/ccEqg3G4.s:707    .text:00000000000002a8 _Z4getcv
     /tmp/ccEqg3G4.s:710    .text:00000000000002a8 .L0 
     /tmp/ccEqg3G4.s:711    .text:00000000000002a8 .L0 
     /tmp/ccEqg3G4.s:712    .text:00000000000002ac .L0 
     /tmp/ccEqg3G4.s:714    .text:00000000000002b0 .L0 
     /tmp/ccEqg3G4.s:716    .text:00000000000002b4 .L0 
     /tmp/ccEqg3G4.s:718    .text:00000000000002b4 .L0 
     /tmp/ccEqg3G4.s:719    .text:00000000000002b4 .L0 
   src/syscall_c.cpp:149    .text:00000000000002b4 .L0 
     /tmp/ccEqg3G4.s:725    .text:00000000000002b8 .L0 
   src/syscall_c.cpp:150    .text:00000000000002b8 .L0 
     /tmp/ccEqg3G4.s:730    .text:00000000000002bc .L0 
   src/syscall_c.cpp:151    .text:00000000000002bc .L0 
     /tmp/ccEqg3G4.s:736    .text:00000000000002c0 .L0 
     /tmp/ccEqg3G4.s:738    .text:00000000000002c0 .L0 
     /tmp/ccEqg3G4.s:740    .text:00000000000002c8 .L0 
     /tmp/ccEqg3G4.s:741    .text:00000000000002c8 .L0 
     /tmp/ccEqg3G4.s:743    .text:00000000000002cc .L0 
     /tmp/ccEqg3G4.s:745    .text:00000000000002d0 .L0 
     /tmp/ccEqg3G4.s:751    .text:00000000000002d0 _Z4putcc
     /tmp/ccEqg3G4.s:754    .text:00000000000002d0 .L0 
     /tmp/ccEqg3G4.s:756    .text:00000000000002d0 .L0 
     /tmp/ccEqg3G4.s:757    .text:00000000000002d4 .L0 
     /tmp/ccEqg3G4.s:759    .text:00000000000002d8 .L0 
     /tmp/ccEqg3G4.s:761    .text:00000000000002dc .L0 
     /tmp/ccEqg3G4.s:763    .text:00000000000002dc .L0 
   src/syscall_c.cpp:157    .text:00000000000002dc .L0 
     /tmp/ccEqg3G4.s:769    .text:00000000000002e0 .L0 
   src/syscall_c.cpp:158    .text:00000000000002e0 .L0 
     /tmp/ccEqg3G4.s:774    .text:00000000000002e4 .L0 
   src/syscall_c.cpp:159    .text:00000000000002e4 .L0 
     /tmp/ccEqg3G4.s:780    .text:00000000000002e8 .L0 
     /tmp/ccEqg3G4.s:781    .text:00000000000002ec .L0 
     /tmp/ccEqg3G4.s:782    .text:00000000000002ec .L0 
     /tmp/ccEqg3G4.s:784    .text:00000000000002f0 .L0 
     /tmp/ccEqg3G4.s:786    .text:00000000000002f4 .L0 
     /tmp/ccEqg3G4.s:792    .text:00000000000002f4 .L0 
     /tmp/ccEqg3G4.s:73     .text:000000000000003c .L4
     /tmp/ccEqg3G4.s:37     .text:0000000000000020 .L3
     /tmp/ccEqg3G4.s:63     .text:0000000000000030 .L1
     /tmp/ccEqg3G4.s:398    .text:000000000000018c .L18
     /tmp/ccEqg3G4.s:403    .text:0000000000000194 .L19
     /tmp/ccEqg3G4.s:408    .text:000000000000019c .L20
     /tmp/ccEqg3G4.s:390    .text:0000000000000180 .L22
     /tmp/ccEqg3G4.s:371    .text:0000000000000160 .L17
     /tmp/ccEqg3G4.s:1344   .debug_abbrev:0000000000000000 .Ldebug_abbrev0
     /tmp/ccEqg3G4.s:2109   .debug_str:00000000000001c9 .LASF61
     /tmp/ccEqg3G4.s:2169   .debug_str:000000000000042d .LASF62
     /tmp/ccEqg3G4.s:2137   .debug_str:0000000000000343 .LASF63
     /tmp/ccEqg3G4.s:5      .text:0000000000000000 .Ltext0
     /tmp/ccEqg3G4.s:789    .text:00000000000002f4 .Letext0
GAS LISTING /tmp/ccEqg3G4.s 			page 24


     /tmp/ccEqg3G4.s:2043   .debug_line:0000000000000000 .Ldebug_line0
     /tmp/ccEqg3G4.s:2119   .debug_str:00000000000002ca .LASF0
     /tmp/ccEqg3G4.s:2093   .debug_str:000000000000015f .LASF1
     /tmp/ccEqg3G4.s:2083   .debug_str:0000000000000125 .LASF2
     /tmp/ccEqg3G4.s:2059   .debug_str:0000000000000068 .LASF4
     /tmp/ccEqg3G4.s:2091   .debug_str:000000000000014d .LASF3
     /tmp/ccEqg3G4.s:2049   .debug_str:0000000000000021 .LASF5
     /tmp/ccEqg3G4.s:2047   .debug_str:000000000000000e .LASF6
     /tmp/ccEqg3G4.s:2079   .debug_str:0000000000000103 .LASF7
     /tmp/ccEqg3G4.s:2129   .debug_str:000000000000030b .LASF8
     /tmp/ccEqg3G4.s:2057   .debug_str:000000000000005a .LASF9
     /tmp/ccEqg3G4.s:2171   .debug_str:000000000000043f .LASF10
     /tmp/ccEqg3G4.s:2081   .debug_str:0000000000000116 .LASF11
     /tmp/ccEqg3G4.s:2157   .debug_str:00000000000003df .LASF12
     /tmp/ccEqg3G4.s:2127   .debug_str:00000000000002fb .LASF13
     /tmp/ccEqg3G4.s:2097   .debug_str:000000000000017b .LASF14
     /tmp/ccEqg3G4.s:2071   .debug_str:00000000000000bd .LASF15
     /tmp/ccEqg3G4.s:2131   .debug_str:000000000000031b .LASF16
     /tmp/ccEqg3G4.s:2133   .debug_str:0000000000000331 .LASF17
     /tmp/ccEqg3G4.s:2167   .debug_str:0000000000000425 .LASF19
     /tmp/ccEqg3G4.s:2053   .debug_str:000000000000002f .LASF18
     /tmp/ccEqg3G4.s:2073   .debug_str:00000000000000d3 .LASF20
     /tmp/ccEqg3G4.s:2143   .debug_str:000000000000037a .LASF55
     /tmp/ccEqg3G4.s:2095   .debug_str:0000000000000172 .LASF57
     /tmp/ccEqg3G4.s:752    .text:00000000000002d0 .LFB14
     /tmp/ccEqg3G4.s:787    .text:00000000000002f4 .LFE14
     /tmp/ccEqg3G4.s:2125   .debug_str:00000000000002f6 .LASF21
     /tmp/ccEqg3G4.s:2085   .debug_str:0000000000000133 .LASF22
     /tmp/ccEqg3G4.s:2163   .debug_str:0000000000000417 .LASF24
     /tmp/ccEqg3G4.s:708    .text:00000000000002a8 .LFB13
     /tmp/ccEqg3G4.s:746    .text:00000000000002d0 .LFE13
     /tmp/ccEqg3G4.s:2103   .debug_str:00000000000001a3 .LASF23
     /tmp/ccEqg3G4.s:2161   .debug_str:00000000000003fb .LASF25
     /tmp/ccEqg3G4.s:658    .text:000000000000027c .LFB12
     /tmp/ccEqg3G4.s:702    .text:00000000000002a8 .LFE12
     /tmp/ccEqg3G4.s:1762   .debug_loc:0000000000000000 .LLST13
     /tmp/ccEqg3G4.s:2051   .debug_str:0000000000000028 .LASF26
     /tmp/ccEqg3G4.s:2113   .debug_str:00000000000002a8 .LASF27
     /tmp/ccEqg3G4.s:2065   .debug_str:0000000000000085 .LASF28
     /tmp/ccEqg3G4.s:608    .text:0000000000000250 .LFB11
     /tmp/ccEqg3G4.s:652    .text:000000000000027c .LFE11
     /tmp/ccEqg3G4.s:1776   .debug_loc:0000000000000039 .LLST12
     /tmp/ccEqg3G4.s:2089   .debug_str:0000000000000143 .LASF29
     /tmp/ccEqg3G4.s:2067   .debug_str:000000000000009e .LASF30
     /tmp/ccEqg3G4.s:558    .text:0000000000000224 .LFB10
     /tmp/ccEqg3G4.s:602    .text:0000000000000250 .LFE10
     /tmp/ccEqg3G4.s:2099   .debug_str:0000000000000187 .LASF31
     /tmp/ccEqg3G4.s:1790   .debug_loc:0000000000000072 .LLST11
     /tmp/ccEqg3G4.s:2149   .debug_str:00000000000003ad .LASF32
     /tmp/ccEqg3G4.s:2147   .debug_str:0000000000000392 .LASF33
     /tmp/ccEqg3G4.s:499    .text:00000000000001ec .LFB9
     /tmp/ccEqg3G4.s:552    .text:0000000000000224 .LFE9
     /tmp/ccEqg3G4.s:1804   .debug_loc:00000000000000ab .LLST9
     /tmp/ccEqg3G4.s:2069   .debug_str:00000000000000b8 .LASF34
     /tmp/ccEqg3G4.s:1818   .debug_loc:00000000000000e4 .LLST10
     /tmp/ccEqg3G4.s:2141   .debug_str:000000000000036a .LASF42
     /tmp/ccEqg3G4.s:2101   .debug_str:000000000000018e .LASF44
GAS LISTING /tmp/ccEqg3G4.s 			page 25


     /tmp/ccEqg3G4.s:464    .text:00000000000001cc .LFB8
     /tmp/ccEqg3G4.s:493    .text:00000000000001ec .LFE8
     /tmp/ccEqg3G4.s:2159   .debug_str:00000000000003ef .LASF35
     /tmp/ccEqg3G4.s:2153   .debug_str:00000000000003c4 .LASF36
     /tmp/ccEqg3G4.s:420    .text:00000000000001a4 .LFB7
     /tmp/ccEqg3G4.s:458    .text:00000000000001cc .LFE7
     /tmp/ccEqg3G4.s:2151   .debug_str:00000000000003b6 .LASF37
     /tmp/ccEqg3G4.s:2055   .debug_str:0000000000000035 .LASF38
     /tmp/ccEqg3G4.s:292    .text:00000000000000f8 .LFB6
     /tmp/ccEqg3G4.s:414    .text:00000000000001a4 .LFE6
     /tmp/ccEqg3G4.s:1832   .debug_loc:000000000000011d .LLST3
     /tmp/ccEqg3G4.s:2107   .debug_str:00000000000001bb .LASF39
     /tmp/ccEqg3G4.s:1873   .debug_loc:00000000000001cb .LLST4
     /tmp/ccEqg3G4.s:1903   .debug_loc:0000000000000250 .LLST5
     /tmp/ccEqg3G4.s:2087   .debug_str:0000000000000138 .LASF40
     /tmp/ccEqg3G4.s:1933   .debug_loc:00000000000002d5 .LLST6
     /tmp/ccEqg3G4.s:2061   .debug_str:000000000000006f .LASF41
     /tmp/ccEqg3G4.s:1954   .debug_loc:0000000000000327 .LLST7
     /tmp/ccEqg3G4.s:1969   .debug_loc:0000000000000370 .LLST8
     /tmp/ccEqg3G4.s:324    .text:0000000000000134 .LVL14
     /tmp/ccEqg3G4.s:395    .text:0000000000000188 .LVL18
     /tmp/ccEqg3G4.s:2117   .debug_str:00000000000002bf .LASF43
     /tmp/ccEqg3G4.s:2063   .debug_str:0000000000000075 .LASF45
     /tmp/ccEqg3G4.s:257    .text:00000000000000d8 .LFB5
     /tmp/ccEqg3G4.s:286    .text:00000000000000f8 .LFE5
     /tmp/ccEqg3G4.s:2135   .debug_str:000000000000033a .LASF46
     /tmp/ccEqg3G4.s:2105   .debug_str:00000000000001ae .LASF47
     /tmp/ccEqg3G4.s:222    .text:00000000000000b8 .LFB4
     /tmp/ccEqg3G4.s:251    .text:00000000000000d8 .LFE4
     /tmp/ccEqg3G4.s:2111   .debug_str:000000000000028d .LASF48
     /tmp/ccEqg3G4.s:2075   .debug_str:00000000000000de .LASF49
     /tmp/ccEqg3G4.s:179    .text:0000000000000094 .LFB3
     /tmp/ccEqg3G4.s:216    .text:00000000000000b8 .LFE3
     /tmp/ccEqg3G4.s:2145   .debug_str:000000000000037f .LASF50
     /tmp/ccEqg3G4.s:2123   .debug_str:00000000000002de .LASF51
     /tmp/ccEqg3G4.s:136    .text:0000000000000070 .LFB2
     /tmp/ccEqg3G4.s:173    .text:0000000000000094 .LFE2
     /tmp/ccEqg3G4.s:2139   .debug_str:0000000000000361 .LASF52
     /tmp/ccEqg3G4.s:2045   .debug_str:0000000000000000 .LASF53
     /tmp/ccEqg3G4.s:86     .text:0000000000000044 .LFB1
     /tmp/ccEqg3G4.s:130    .text:0000000000000070 .LFE1
     /tmp/ccEqg3G4.s:2077   .debug_str:00000000000000fe .LASF54
     /tmp/ccEqg3G4.s:1984   .debug_loc:00000000000003b9 .LLST2
     /tmp/ccEqg3G4.s:2155   .debug_str:00000000000003d5 .LASF56
     /tmp/ccEqg3G4.s:2115   .debug_str:00000000000002b1 .LASF58
     /tmp/ccEqg3G4.s:10     .text:0000000000000000 .LFB0
     /tmp/ccEqg3G4.s:80     .text:0000000000000044 .LFE0
     /tmp/ccEqg3G4.s:2165   .debug_str:0000000000000420 .LASF59
     /tmp/ccEqg3G4.s:1998   .debug_loc:00000000000003f2 .LLST0
     /tmp/ccEqg3G4.s:2121   .debug_str:00000000000002d7 .LASF60
     /tmp/ccEqg3G4.s:2023   .debug_loc:0000000000000454 .LLST1
     /tmp/ccEqg3G4.s:661    .text:000000000000027c .LVL32
     /tmp/ccEqg3G4.s:690    .text:0000000000000298 .LVL33
     /tmp/ccEqg3G4.s:611    .text:0000000000000250 .LVL30
     /tmp/ccEqg3G4.s:640    .text:000000000000026c .LVL31
     /tmp/ccEqg3G4.s:561    .text:0000000000000224 .LVL28
     /tmp/ccEqg3G4.s:590    .text:0000000000000240 .LVL29
GAS LISTING /tmp/ccEqg3G4.s 			page 26


     /tmp/ccEqg3G4.s:502    .text:00000000000001ec .LVL25
     /tmp/ccEqg3G4.s:540    .text:0000000000000214 .LVL27
     /tmp/ccEqg3G4.s:513    .text:00000000000001fc .LVL26
     /tmp/ccEqg3G4.s:295    .text:00000000000000f8 .LVL11
     /tmp/ccEqg3G4.s:322    .text:000000000000012c .LVL13
     /tmp/ccEqg3G4.s:366    .text:0000000000000158 .LVL15
     /tmp/ccEqg3G4.s:397    .text:000000000000018c .LVL19
     /tmp/ccEqg3G4.s:402    .text:0000000000000194 .LVL20
     /tmp/ccEqg3G4.s:405    .text:0000000000000198 .LVL21
     /tmp/ccEqg3G4.s:407    .text:000000000000019c .LVL22
     /tmp/ccEqg3G4.s:411    .text:00000000000001a0 .LVL23
     /tmp/ccEqg3G4.s:370    .text:0000000000000160 .LVL16
     /tmp/ccEqg3G4.s:389    .text:0000000000000180 .LVL17
     /tmp/ccEqg3G4.s:318    .text:0000000000000128 .LVL12
     /tmp/ccEqg3G4.s:89     .text:0000000000000044 .LVL7
     /tmp/ccEqg3G4.s:118    .text:0000000000000060 .LVL8
     /tmp/ccEqg3G4.s:14     .text:0000000000000000 .LVL0
     /tmp/ccEqg3G4.s:30     .text:0000000000000018 .LVL2
     /tmp/ccEqg3G4.s:72     .text:000000000000003c .LVL5
     /tmp/ccEqg3G4.s:77     .text:0000000000000040 .LVL6
     /tmp/ccEqg3G4.s:26     .text:0000000000000014 .LVL1
     /tmp/ccEqg3G4.s:60     .text:0000000000000030 .LVL4
     /tmp/ccEqg3G4.s:793    .debug_info:0000000000000000 .Ldebug_info0

NO UNDEFINED SYMBOLS
