GAS LISTING /tmp/ccKGHe8m.s 			page 1


   1              		.file	"syscall_c.cpp"
   2              		.option pic
   3              		.option norelax
   4              		.text
   5              	.Ltext0:
   6              		.align	2
   7              		.globl	_Z9mem_allocm
   9              	_Z9mem_allocm:
  10              	.LFB0:
  11              		.file 1 "src/syscall_c.cpp"
   1:src/syscall_c.cpp **** //
   2:src/syscall_c.cpp **** // Created by os on 10/7/25.
   3:src/syscall_c.cpp **** //
   4:src/syscall_c.cpp **** 
   5:src/syscall_c.cpp **** #include "../h/syscall_c.hpp"
   6:src/syscall_c.cpp **** 
   7:src/syscall_c.cpp **** void* mem_alloc(size_t size) {
  12              		.loc 1 7 30
  13              		.cfi_startproc
  14              	.LVL0:
  15 0000 130101FF 		addi	sp,sp,-16
  16              		.cfi_def_cfa_offset 16
  17 0004 23348100 		sd	s0,8(sp)
  18              		.cfi_offset 8, -8
  19 0008 13040101 		addi	s0,sp,16
  20              		.cfi_def_cfa 8, 0
   8:src/syscall_c.cpp ****     if (size == 0) return nullptr;
  21              		.loc 1 8 5
  22 000c 63080502 		beqz	a0,.L4
   9:src/syscall_c.cpp **** 
  10:src/syscall_c.cpp ****     size_t blocks = size / MEM_BLOCK_SIZE;
  23              		.loc 1 10 5
  24              		.loc 1 10 12 is_stmt 0
  25 0010 93576500 		srli	a5,a0,6
  26              	.LVL1:
  11:src/syscall_c.cpp ****     if (size % MEM_BLOCK_SIZE != 0) blocks++;
  27              		.loc 1 11 5 is_stmt 1
  28              		.loc 1 11 14 is_stmt 0
  29 0014 1375F503 		andi	a0,a0,63
  30              	.LVL2:
  31              		.loc 1 11 5
  32 0018 63040500 		beqz	a0,.L3
  33              		.loc 1 11 37 is_stmt 1 discriminator 1
  34              		.loc 1 11 43 is_stmt 0 discriminator 1
  35 001c 93871700 		addi	a5,a5,1
  36              	.LVL3:
  37              	.L3:
  12:src/syscall_c.cpp **** 
  13:src/syscall_c.cpp ****     void* result;
  38              		.loc 1 13 5 is_stmt 1
  14:src/syscall_c.cpp ****     asm volatile("mv a1, %0" :: "r"(blocks));
  39              		.loc 1 14 5
  40              		.loc 1 14 45 is_stmt 0
  41              	#APP
  42              	# 14 "src/syscall_c.cpp" 1
  15              	    asm volatile("li a0, 0x01");
  43              		mv a1, a5
GAS LISTING /tmp/ccKGHe8m.s 			page 2


  44              	# 0 "" 2
  45              		.loc 1 15 5 is_stmt 1
  46              		.loc 1 15 32 is_stmt 0
  47              	# 15 "src/syscall_c.cpp" 1
  16              	    asm volatile("ecall");
  48              		li a0, 0x01
  49              	# 0 "" 2
  50              		.loc 1 16 5 is_stmt 1
  51              		.loc 1 16 26 is_stmt 0
  52              	# 16 "src/syscall_c.cpp" 1
  17              	    asm volatile("mv %0, a0" : "=r"(result));
  53              		ecall
  54              	# 0 "" 2
  55              		.loc 1 17 5 is_stmt 1
  56              		.loc 1 17 45 is_stmt 0
  57              	# 17 "src/syscall_c.cpp" 1
  18              	    return result;
  58              		mv a0, a0
  59              	# 0 "" 2
  60              	.LVL4:
  61              		.loc 1 18 5 is_stmt 1
  62              	#NO_APP
  63              	.L1:
  19:src/syscall_c.cpp **** }
  64              		.loc 1 19 1 is_stmt 0
  65 0030 03348100 		ld	s0,8(sp)
  66              		.cfi_remember_state
  67              		.cfi_restore 8
  68              		.cfi_def_cfa 2, 16
  69 0034 13010101 		addi	sp,sp,16
  70              		.cfi_def_cfa_offset 0
  71 0038 67800000 		jr	ra
  72              	.LVL5:
  73              	.L4:
  74              		.cfi_restore_state
   8:src/syscall_c.cpp **** 
  75              		.loc 1 8 27
  76 003c 13050000 		li	a0,0
  77              	.LVL6:
  78 0040 6FF01FFF 		j	.L1
  79              		.cfi_endproc
  80              	.LFE0:
  82              		.align	2
  83              		.globl	_Z8mem_freePv
  85              	_Z8mem_freePv:
  86              	.LFB1:
  20:src/syscall_c.cpp **** 
  21:src/syscall_c.cpp **** int mem_free(void* addr) {
  87              		.loc 1 21 26 is_stmt 1
  88              		.cfi_startproc
  89              	.LVL7:
  90 0044 130101FF 		addi	sp,sp,-16
  91              		.cfi_def_cfa_offset 16
  92 0048 23348100 		sd	s0,8(sp)
  93              		.cfi_offset 8, -8
  94 004c 13040101 		addi	s0,sp,16
  95              		.cfi_def_cfa 8, 0
GAS LISTING /tmp/ccKGHe8m.s 			page 3


  22:src/syscall_c.cpp ****     int result;
  96              		.loc 1 22 5
  23:src/syscall_c.cpp ****     asm volatile("mv a1, %0" :: "r"(addr));
  97              		.loc 1 23 5
  98              		.loc 1 23 43 is_stmt 0
  99              	#APP
 100              	# 23 "src/syscall_c.cpp" 1
  24              	    asm volatile("li a0, 0x02");
 101              		mv a1, a0
 102              	# 0 "" 2
 103              		.loc 1 24 5 is_stmt 1
 104              		.loc 1 24 32 is_stmt 0
 105              	# 24 "src/syscall_c.cpp" 1
  25              	    asm volatile("ecall");
 106              		li a0, 0x02
 107              	# 0 "" 2
 108              		.loc 1 25 5 is_stmt 1
 109              		.loc 1 25 26 is_stmt 0
 110              	# 25 "src/syscall_c.cpp" 1
  26              	    asm volatile("mv %0, a0" : "=r"(result));
 111              		ecall
 112              	# 0 "" 2
 113              		.loc 1 26 5 is_stmt 1
 114              		.loc 1 26 45 is_stmt 0
 115              	# 26 "src/syscall_c.cpp" 1
  27              	    return result;
 116              		mv a0, a0
 117              	# 0 "" 2
 118              	.LVL8:
 119              		.loc 1 27 5 is_stmt 1
  28:src/syscall_c.cpp **** }
 120              		.loc 1 28 1 is_stmt 0
 121              	#NO_APP
 122 0060 1B050500 		sext.w	a0,a0
 123 0064 03348100 		ld	s0,8(sp)
 124              		.cfi_restore 8
 125              		.cfi_def_cfa 2, 16
 126 0068 13010101 		addi	sp,sp,16
 127              		.cfi_def_cfa_offset 0
 128 006c 67800000 		jr	ra
 129              		.cfi_endproc
 130              	.LFE1:
 132              		.align	2
 133              		.globl	_Z18mem_get_free_spacev
 135              	_Z18mem_get_free_spacev:
 136              	.LFB2:
  29:src/syscall_c.cpp **** 
  30:src/syscall_c.cpp **** size_t mem_get_free_space() {
 137              		.loc 1 30 29 is_stmt 1
 138              		.cfi_startproc
 139 0070 130101FF 		addi	sp,sp,-16
 140              		.cfi_def_cfa_offset 16
 141 0074 23348100 		sd	s0,8(sp)
 142              		.cfi_offset 8, -8
 143 0078 13040101 		addi	s0,sp,16
 144              		.cfi_def_cfa 8, 0
  31:src/syscall_c.cpp ****     size_t result;
GAS LISTING /tmp/ccKGHe8m.s 			page 4


 145              		.loc 1 31 5
  32:src/syscall_c.cpp ****     asm volatile("li a0, 0x03");
 146              		.loc 1 32 5
 147              		.loc 1 32 32 is_stmt 0
 148              	#APP
 149              	# 32 "src/syscall_c.cpp" 1
  33              	    asm volatile("ecall");
 150              		li a0, 0x03
 151              	# 0 "" 2
 152              		.loc 1 33 5 is_stmt 1
 153              		.loc 1 33 26 is_stmt 0
 154              	# 33 "src/syscall_c.cpp" 1
  34              	    asm volatile("mv %0, a0" : "=r"(result));
 155              		ecall
 156              	# 0 "" 2
 157              		.loc 1 34 5 is_stmt 1
 158              		.loc 1 34 45 is_stmt 0
 159              	# 34 "src/syscall_c.cpp" 1
  35              	    return result;
 160              		mv a0, a0
 161              	# 0 "" 2
 162              	.LVL9:
 163              		.loc 1 35 5 is_stmt 1
  36:src/syscall_c.cpp **** }
 164              		.loc 1 36 1 is_stmt 0
 165              	#NO_APP
 166 0088 03348100 		ld	s0,8(sp)
 167              		.cfi_restore 8
 168              		.cfi_def_cfa 2, 16
 169 008c 13010101 		addi	sp,sp,16
 170              		.cfi_def_cfa_offset 0
 171 0090 67800000 		jr	ra
 172              		.cfi_endproc
 173              	.LFE2:
 175              		.align	2
 176              		.globl	_Z26mem_get_largest_free_blockv
 178              	_Z26mem_get_largest_free_blockv:
 179              	.LFB3:
  37:src/syscall_c.cpp **** 
  38:src/syscall_c.cpp **** size_t mem_get_largest_free_block() {
 180              		.loc 1 38 37 is_stmt 1
 181              		.cfi_startproc
 182 0094 130101FF 		addi	sp,sp,-16
 183              		.cfi_def_cfa_offset 16
 184 0098 23348100 		sd	s0,8(sp)
 185              		.cfi_offset 8, -8
 186 009c 13040101 		addi	s0,sp,16
 187              		.cfi_def_cfa 8, 0
  39:src/syscall_c.cpp ****     size_t result;
 188              		.loc 1 39 5
  40:src/syscall_c.cpp ****     asm volatile("li a0, 0x04");
 189              		.loc 1 40 5
 190              		.loc 1 40 32 is_stmt 0
 191              	#APP
 192              	# 40 "src/syscall_c.cpp" 1
  41              	    asm volatile("ecall");
 193              		li a0, 0x04
GAS LISTING /tmp/ccKGHe8m.s 			page 5


 194              	# 0 "" 2
 195              		.loc 1 41 5 is_stmt 1
 196              		.loc 1 41 26 is_stmt 0
 197              	# 41 "src/syscall_c.cpp" 1
  42              	    asm volatile("mv %0, a0" : "=r"(result));
 198              		ecall
 199              	# 0 "" 2
 200              		.loc 1 42 5 is_stmt 1
 201              		.loc 1 42 45 is_stmt 0
 202              	# 42 "src/syscall_c.cpp" 1
  43              	    return result;
 203              		mv a0, a0
 204              	# 0 "" 2
 205              	.LVL10:
 206              		.loc 1 43 5 is_stmt 1
  44:src/syscall_c.cpp **** }
 207              		.loc 1 44 1 is_stmt 0
 208              	#NO_APP
 209 00ac 03348100 		ld	s0,8(sp)
 210              		.cfi_restore 8
 211              		.cfi_def_cfa 2, 16
 212 00b0 13010101 		addi	sp,sp,16
 213              		.cfi_def_cfa_offset 0
 214 00b4 67800000 		jr	ra
 215              		.cfi_endproc
 216              	.LFE3:
 218              		.align	2
 219              		.globl	_Z13thread_createPP6ThreadPFvPvES2_
 221              	_Z13thread_createPP6ThreadPFvPvES2_:
 222              	.LFB4:
  45:src/syscall_c.cpp **** 
  46:src/syscall_c.cpp **** int thread_create(thread_t* handle, void(*start_routine)(void*), void* arg) {
 223              		.loc 1 46 77 is_stmt 1
 224              		.cfi_startproc
 225              	.LVL11:
 226 00b8 130101FD 		addi	sp,sp,-48
 227              		.cfi_def_cfa_offset 48
 228 00bc 23341102 		sd	ra,40(sp)
 229 00c0 23308102 		sd	s0,32(sp)
 230 00c4 233C9100 		sd	s1,24(sp)
 231 00c8 23382101 		sd	s2,16(sp)
 232 00cc 23343101 		sd	s3,8(sp)
 233              		.cfi_offset 1, -8
 234              		.cfi_offset 8, -16
 235              		.cfi_offset 9, -24
 236              		.cfi_offset 18, -32
 237              		.cfi_offset 19, -40
 238 00d0 13040103 		addi	s0,sp,48
 239              		.cfi_def_cfa 8, 0
  47:src/syscall_c.cpp ****     if (!handle || !start_routine) return -1;
 240              		.loc 1 47 5
 241 00d4 630C0506 		beqz	a0,.L14
 242 00d8 93040500 		mv	s1,a0
 243 00dc 13890500 		mv	s2,a1
 244 00e0 93090600 		mv	s3,a2
 245              		.loc 1 47 17 is_stmt 0 discriminator 2
 246 00e4 63880506 		beqz	a1,.L15
GAS LISTING /tmp/ccKGHe8m.s 			page 6


  48:src/syscall_c.cpp **** 
  49:src/syscall_c.cpp ****     size_t stackBytes = DEFAULT_STACK_SIZE;
 247              		.loc 1 49 5 is_stmt 1
 248              	.LVL12:
  50:src/syscall_c.cpp ****     void* stack = mem_alloc(stackBytes);
 249              		.loc 1 50 5
 250              		.loc 1 50 28 is_stmt 0
 251 00e8 37150000 		li	a0,4096
 252              	.LVL13:
 253 00ec 97000000 		call	_Z9mem_allocm
 253      E7800000 
 254              	.LVL14:
  51:src/syscall_c.cpp ****     if (!stack) return -1;
 255              		.loc 1 51 5 is_stmt 1
 256 00f4 63040506 		beqz	a0,.L16
  52:src/syscall_c.cpp **** 
  53:src/syscall_c.cpp ****     // void* stackTop = (char*)stack + stackBytes;
  54:src/syscall_c.cpp **** 
  55:src/syscall_c.cpp ****     int result;
 257              		.loc 1 55 5
  56:src/syscall_c.cpp **** 
  57:src/syscall_c.cpp ****     asm volatile("mv a1, %0" :: "r"(handle));
 258              		.loc 1 57 5
 259              		.loc 1 57 45 is_stmt 0
 260              	#APP
 261              	# 57 "src/syscall_c.cpp" 1
  58              	    asm volatile("mv a2, %0" :: "r"(start_routine));
 262              		mv a1, s1
 263              	# 0 "" 2
 264              		.loc 1 58 5 is_stmt 1
 265              		.loc 1 58 52 is_stmt 0
 266              	# 58 "src/syscall_c.cpp" 1
  59              	    asm volatile("mv a3, %0" :: "r"(arg));
 267              		mv a2, s2
 268              	# 0 "" 2
 269              		.loc 1 59 5 is_stmt 1
 270              		.loc 1 59 42 is_stmt 0
 271              	# 59 "src/syscall_c.cpp" 1
  60              	    asm volatile("mv a4, %0" :: "r"(stack));
 272              		mv a3, s3
 273              	# 0 "" 2
 274              		.loc 1 60 5 is_stmt 1
 275              		.loc 1 60 44 is_stmt 0
 276              	# 60 "src/syscall_c.cpp" 1
  61              	    asm volatile("li a0, 0x11");
 277              		mv a4, a0
 278              	# 0 "" 2
 279              		.loc 1 61 5 is_stmt 1
 280              		.loc 1 61 32 is_stmt 0
 281              	# 61 "src/syscall_c.cpp" 1
  62              	    asm volatile("ecall");
 282              		li a0, 0x11
 283              	# 0 "" 2
 284              		.loc 1 62 5 is_stmt 1
 285              		.loc 1 62 26 is_stmt 0
 286              	# 62 "src/syscall_c.cpp" 1
  63              	    asm volatile("mv %0, a0" : "=r"(result));
GAS LISTING /tmp/ccKGHe8m.s 			page 7


 287              		ecall
 288              	# 0 "" 2
 289              		.loc 1 63 5 is_stmt 1
 290              		.loc 1 63 45 is_stmt 0
 291              	# 63 "src/syscall_c.cpp" 1
  64              	
 292              		mv a5, a0
 293              	# 0 "" 2
 294              	#NO_APP
 295 0114 9B840700 		sext.w	s1,a5
 296              	.LVL15:
  65:src/syscall_c.cpp ****     if (result < 0) {
 297              		.loc 1 65 5 is_stmt 1
 298 0118 13970702 		slli	a4,a5,32
 299 011c 63420702 		bltz	a4,.L18
 300              	.LVL16:
 301              	.L13:
  66:src/syscall_c.cpp ****         mem_free(stack);
  67:src/syscall_c.cpp ****     }
  68:src/syscall_c.cpp **** 
  69:src/syscall_c.cpp ****     return result;
  70:src/syscall_c.cpp **** }
 302              		.loc 1 70 1 is_stmt 0
 303 0120 13850400 		mv	a0,s1
 304 0124 83308102 		ld	ra,40(sp)
 305              		.cfi_remember_state
 306              		.cfi_restore 1
 307 0128 03340102 		ld	s0,32(sp)
 308              		.cfi_restore 8
 309              		.cfi_def_cfa 2, 48
 310 012c 83348101 		ld	s1,24(sp)
 311              		.cfi_restore 9
 312 0130 03390101 		ld	s2,16(sp)
 313              		.cfi_restore 18
 314 0134 83398100 		ld	s3,8(sp)
 315              		.cfi_restore 19
 316 0138 13010103 		addi	sp,sp,48
 317              		.cfi_def_cfa_offset 0
 318 013c 67800000 		jr	ra
 319              	.LVL17:
 320              	.L18:
 321              		.cfi_restore_state
  66:src/syscall_c.cpp ****         mem_free(stack);
 322              		.loc 1 66 9 is_stmt 1
  66:src/syscall_c.cpp ****         mem_free(stack);
 323              		.loc 1 66 17 is_stmt 0
 324 0140 97000000 		call	_Z8mem_freePv
 324      E7800000 
 325              	.LVL18:
 326 0148 6FF09FFD 		j	.L13
 327              	.LVL19:
 328              	.L14:
  47:src/syscall_c.cpp **** 
 329              		.loc 1 47 44
 330 014c 9304F0FF 		li	s1,-1
 331 0150 6FF01FFD 		j	.L13
 332              	.LVL20:
GAS LISTING /tmp/ccKGHe8m.s 			page 8


 333              	.L15:
 334 0154 9304F0FF 		li	s1,-1
 335              	.LVL21:
 336 0158 6FF09FFC 		j	.L13
 337              	.LVL22:
 338              	.L16:
  51:src/syscall_c.cpp **** 
 339              		.loc 1 51 25
 340 015c 9304F0FF 		li	s1,-1
 341              	.LVL23:
 342 0160 6FF01FFC 		j	.L13
 343              		.cfi_endproc
 344              	.LFE4:
 346              		.align	2
 347              		.globl	_Z11thread_exitv
 349              	_Z11thread_exitv:
 350              	.LFB5:
  71:src/syscall_c.cpp **** 
  72:src/syscall_c.cpp **** int thread_exit() {
 351              		.loc 1 72 19 is_stmt 1
 352              		.cfi_startproc
 353 0164 130101FF 		addi	sp,sp,-16
 354              		.cfi_def_cfa_offset 16
 355 0168 23348100 		sd	s0,8(sp)
 356              		.cfi_offset 8, -8
 357 016c 13040101 		addi	s0,sp,16
 358              		.cfi_def_cfa 8, 0
  73:src/syscall_c.cpp ****     int result;
 359              		.loc 1 73 5
  74:src/syscall_c.cpp ****     asm volatile("li a0, 0x12");
 360              		.loc 1 74 5
 361              		.loc 1 74 32 is_stmt 0
 362              	#APP
 363              	# 74 "src/syscall_c.cpp" 1
  75              	    asm volatile("ecall");
 364              		li a0, 0x12
 365              	# 0 "" 2
 366              		.loc 1 75 5 is_stmt 1
 367              		.loc 1 75 26 is_stmt 0
 368              	# 75 "src/syscall_c.cpp" 1
  76              	    asm volatile("mv %0, a0" : "=r"(result));
 369              		ecall
 370              	# 0 "" 2
 371              		.loc 1 76 5 is_stmt 1
 372              		.loc 1 76 45 is_stmt 0
 373              	# 76 "src/syscall_c.cpp" 1
  77              	    return result;
 374              		mv a0, a0
 375              	# 0 "" 2
 376              	.LVL24:
 377              		.loc 1 77 5 is_stmt 1
  78:src/syscall_c.cpp **** }
 378              		.loc 1 78 1 is_stmt 0
 379              	#NO_APP
 380 017c 1B050500 		sext.w	a0,a0
 381 0180 03348100 		ld	s0,8(sp)
 382              		.cfi_restore 8
GAS LISTING /tmp/ccKGHe8m.s 			page 9


 383              		.cfi_def_cfa 2, 16
 384 0184 13010101 		addi	sp,sp,16
 385              		.cfi_def_cfa_offset 0
 386 0188 67800000 		jr	ra
 387              		.cfi_endproc
 388              	.LFE5:
 390              		.align	2
 391              		.globl	_Z15thread_dispatchv
 393              	_Z15thread_dispatchv:
 394              	.LFB6:
  79:src/syscall_c.cpp **** 
  80:src/syscall_c.cpp **** void thread_dispatch() {
 395              		.loc 1 80 24 is_stmt 1
 396              		.cfi_startproc
 397 018c 130101FF 		addi	sp,sp,-16
 398              		.cfi_def_cfa_offset 16
 399 0190 23348100 		sd	s0,8(sp)
 400              		.cfi_offset 8, -8
 401 0194 13040101 		addi	s0,sp,16
 402              		.cfi_def_cfa 8, 0
  81:src/syscall_c.cpp ****     asm volatile("li a0, 0x13");
 403              		.loc 1 81 5
 404              		.loc 1 81 32 is_stmt 0
 405              	#APP
 406              	# 81 "src/syscall_c.cpp" 1
  82              	    asm volatile("ecall");
 407              		li a0, 0x13
 408              	# 0 "" 2
 409              		.loc 1 82 5 is_stmt 1
 410              		.loc 1 82 26 is_stmt 0
 411              	# 82 "src/syscall_c.cpp" 1
  83              	}...
 412              		ecall
 413              	# 0 "" 2
 414              		.loc 1 83 1
 415              	#NO_APP
 416 01a0 03348100 		ld	s0,8(sp)
 417              		.cfi_restore 8
 418              		.cfi_def_cfa 2, 16
 419 01a4 13010101 		addi	sp,sp,16
 420              		.cfi_def_cfa_offset 0
 421 01a8 67800000 		jr	ra
 422              		.cfi_endproc
 423              	.LFE6:
 425              	.Letext0:
 426              		.file 2 "src/../h/../lib/hw.h"
 427              		.file 3 "src/../h/syscall_c.hpp"
GAS LISTING /tmp/ccKGHe8m.s 			page 10

