GAS LISTING /tmp/ccx0rBVl.s 			page 1


   1              		.file	"syscall_cpp.cpp"
   2              		.option pic
   3              		.option norelax
   4              		.text
   5              	.Ltext0:
   6              		.section	.text._ZN6Thread3runEv,"axG",@progbits,_ZN6Thread3runEv,comdat
   7              		.align	2
   8              		.weak	_ZN6Thread3runEv
  10              	_ZN6Thread3runEv:
  11              	.LFB6:
  12              		.file 1 "src/../h/syscall_cpp.hpp"
   1:src/../h/syscall_cpp.hpp **** //
   2:src/../h/syscall_cpp.hpp **** // Created by os on 10/15/25.
   3:src/../h/syscall_cpp.hpp **** //
   4:src/../h/syscall_cpp.hpp **** 
   5:src/../h/syscall_cpp.hpp **** #ifndef PROJECT_BASE_SYSCALL_CPP_HPP
   6:src/../h/syscall_cpp.hpp **** #define PROJECT_BASE_SYSCALL_CPP_HPP
   7:src/../h/syscall_cpp.hpp **** 
   8:src/../h/syscall_cpp.hpp **** #include "syscall_c.hpp"
   9:src/../h/syscall_cpp.hpp **** #include "KThread.hpp"
  10:src/../h/syscall_cpp.hpp **** 
  11:src/../h/syscall_cpp.hpp **** void* operator new (size_t);
  12:src/../h/syscall_cpp.hpp **** void operator delete (void*);
  13:src/../h/syscall_cpp.hpp **** 
  14:src/../h/syscall_cpp.hpp **** class Thread {
  15:src/../h/syscall_cpp.hpp **** public:
  16:src/../h/syscall_cpp.hpp ****     Thread (void (*body)(void*), void* arg);
  17:src/../h/syscall_cpp.hpp ****     virtual ~Thread ();
  18:src/../h/syscall_cpp.hpp ****     int start ();
  19:src/../h/syscall_cpp.hpp ****     static void dispatch ();
  20:src/../h/syscall_cpp.hpp ****     static int sleep (time_t);
  21:src/../h/syscall_cpp.hpp **** protected:
  22:src/../h/syscall_cpp.hpp ****     Thread ();
  23:src/../h/syscall_cpp.hpp ****     virtual void run () {}
  13              		.loc 1 23 18
  14              		.cfi_startproc
  15              	.LVL0:
  16 0000 130101FF 		addi	sp,sp,-16
  17              		.cfi_def_cfa_offset 16
  18 0004 23348100 		sd	s0,8(sp)
  19              		.cfi_offset 8, -8
  20 0008 13040101 		addi	s0,sp,16
  21              		.cfi_def_cfa 8, 0
  22              		.loc 1 23 26 is_stmt 0
  23 000c 03348100 		ld	s0,8(sp)
  24              		.cfi_restore 8
  25              		.cfi_def_cfa 2, 16
  26 0010 13010101 		addi	sp,sp,16
  27              		.cfi_def_cfa_offset 0
  28 0014 67800000 		jr	ra
  29              		.cfi_endproc
  30              	.LFE6:
  32              		.text
  33              		.align	2
  34              		.globl	_ZN6ThreadD2Ev
  36              	_ZN6ThreadD2Ev:
  37              	.LFB20:
GAS LISTING /tmp/ccx0rBVl.s 			page 2


  38              		.file 2 "src/syscall_cpp.cpp"
   1:src/syscall_cpp.cpp **** //
   2:src/syscall_cpp.cpp **** // Created by os on 10/15/25.
   3:src/syscall_cpp.cpp **** //
   4:src/syscall_cpp.cpp **** 
   5:src/syscall_cpp.cpp **** #include "../h/syscall_cpp.hpp"
   6:src/syscall_cpp.cpp **** 
   7:src/syscall_cpp.cpp **** void* operator new(size_t size) {
   8:src/syscall_cpp.cpp ****     return mem_alloc(size);
   9:src/syscall_cpp.cpp **** }
  10:src/syscall_cpp.cpp **** 
  11:src/syscall_cpp.cpp **** void operator delete(void* ptr) {
  12:src/syscall_cpp.cpp ****     mem_free(ptr);
  13:src/syscall_cpp.cpp **** }
  14:src/syscall_cpp.cpp **** 
  15:src/syscall_cpp.cpp **** void* operator new[](size_t size) {
  16:src/syscall_cpp.cpp ****     return mem_alloc(size);
  17:src/syscall_cpp.cpp **** }
  18:src/syscall_cpp.cpp **** 
  19:src/syscall_cpp.cpp **** void operator delete[](void* ptr) {
  20:src/syscall_cpp.cpp ****     mem_free(ptr);
  21:src/syscall_cpp.cpp **** }
  22:src/syscall_cpp.cpp **** 
  23:src/syscall_cpp.cpp **** void Thread::wrapper(void* arg) {
  24:src/syscall_cpp.cpp ****     Thread* thread = (Thread*)arg;
  25:src/syscall_cpp.cpp ****     thread->run();
  26:src/syscall_cpp.cpp ****     thread_exit();
  27:src/syscall_cpp.cpp **** }
  28:src/syscall_cpp.cpp **** 
  29:src/syscall_cpp.cpp **** Thread::Thread(void (*body)(void*), void* arg)
  30:src/syscall_cpp.cpp ****     : myHandle(nullptr), body(body), arg(arg) {}
  31:src/syscall_cpp.cpp **** 
  32:src/syscall_cpp.cpp **** Thread::Thread()
  33:src/syscall_cpp.cpp ****     : myHandle(nullptr), body(nullptr), arg(nullptr) {}
  34:src/syscall_cpp.cpp **** 
  35:src/syscall_cpp.cpp **** Thread::~Thread() {
  39              		.loc 2 35 1 is_stmt 1
  40              		.cfi_startproc
  41              		.cfi_personality 0x9b,DW.ref.__gxx_personality_v0
  42              		.cfi_lsda 0x1b,.LLSDA20
  43              	.LVL1:
  44              	.LBB2:
  45              		.loc 2 35 17 is_stmt 0
  46 0000 97070000 		lla	a5,_ZTV6Thread+16
  46      93870700 
  47 0008 2330F500 		sd	a5,0(a0)
  36:src/syscall_cpp.cpp ****     if (myHandle) {
  48              		.loc 2 36 5 is_stmt 1
  49              		.loc 2 36 9 is_stmt 0
  50 000c 03358500 		ld	a0,8(a0)
  51              	.LVL2:
  52              		.loc 2 36 5
  53 0010 63060502 		beqz	a0,.L6
  54              	.LBE2:
  35:src/syscall_cpp.cpp ****     if (myHandle) {
  55              		.loc 2 35 1
  56 0014 130101FF 		addi	sp,sp,-16
GAS LISTING /tmp/ccx0rBVl.s 			page 3


  57              		.cfi_def_cfa_offset 16
  58 0018 23341100 		sd	ra,8(sp)
  59 001c 23308100 		sd	s0,0(sp)
  60              		.cfi_offset 1, -8
  61              		.cfi_offset 8, -16
  62 0020 13040101 		addi	s0,sp,16
  63              		.cfi_def_cfa 8, 0
  64              	.LBB3:
  37:src/syscall_cpp.cpp ****         mem_free(myHandle);
  65              		.loc 2 37 9 is_stmt 1
  66              		.loc 2 37 17 is_stmt 0
  67 0024 97000000 		call	_Z8mem_freePv@plt
  67      E7800000 
  68              	.LVL3:
  38:src/syscall_cpp.cpp ****         myHandle = nullptr;
  69              		.loc 2 38 9 is_stmt 1
  70              	.LBE3:
  39:src/syscall_cpp.cpp ****     }
  40:src/syscall_cpp.cpp **** }
  71              		.loc 2 40 1 is_stmt 0
  72 002c 83308100 		ld	ra,8(sp)
  73              		.cfi_restore 1
  74 0030 03340100 		ld	s0,0(sp)
  75              		.cfi_restore 8
  76              		.cfi_def_cfa 2, 16
  77 0034 13010101 		addi	sp,sp,16
  78              		.cfi_def_cfa_offset 0
  79 0038 67800000 		jr	ra
  80              	.L6:
  81 003c 67800000 		ret
  82              		.cfi_endproc
  83              	.LFE20:
  84              		.globl	__gxx_personality_v0
  85              		.section	.gcc_except_table,"a",@progbits
  86              	.LLSDA20:
  87 0000 FF       		.byte	0xff
  88 0001 FF       		.byte	0xff
  89 0002 03       		.byte	0x3
  90 0003 00       		.byte	0
  91              		.text
  93              		.globl	_ZN6ThreadD1Ev
  94              		.set	_ZN6ThreadD1Ev,_ZN6ThreadD2Ev
  95              		.align	2
  96              		.globl	_ZN6Thread7wrapperEPv
  98              	_ZN6Thread7wrapperEPv:
  99              	.LFB12:
  23:src/syscall_cpp.cpp ****     Thread* thread = (Thread*)arg;
 100              		.loc 2 23 33 is_stmt 1
 101              		.cfi_startproc
 102              	.LVL4:
 103 0040 130101FF 		addi	sp,sp,-16
 104              		.cfi_def_cfa_offset 16
 105 0044 23341100 		sd	ra,8(sp)
 106 0048 23308100 		sd	s0,0(sp)
 107              		.cfi_offset 1, -8
 108              		.cfi_offset 8, -16
 109 004c 13040101 		addi	s0,sp,16
GAS LISTING /tmp/ccx0rBVl.s 			page 4


 110              		.cfi_def_cfa 8, 0
  24:src/syscall_cpp.cpp ****     thread->run();
 111              		.loc 2 24 5
 112              	.LVL5:
  25:src/syscall_cpp.cpp ****     thread_exit();
 113              		.loc 2 25 5
  25:src/syscall_cpp.cpp ****     thread_exit();
 114              		.loc 2 25 17 is_stmt 0
 115 0050 83370500 		ld	a5,0(a0)
 116 0054 83B70701 		ld	a5,16(a5)
  25:src/syscall_cpp.cpp ****     thread_exit();
 117              		.loc 2 25 16
 118 0058 E7800700 		jalr	a5
 119              	.LVL6:
  26:src/syscall_cpp.cpp **** }
 120              		.loc 2 26 5 is_stmt 1
  26:src/syscall_cpp.cpp **** }
 121              		.loc 2 26 16 is_stmt 0
 122 005c 97000000 		call	_Z11thread_exitv@plt
 122      E7800000 
 123              	.LVL7:
  27:src/syscall_cpp.cpp **** 
 124              		.loc 2 27 1
 125 0064 83308100 		ld	ra,8(sp)
 126              		.cfi_restore 1
 127 0068 03340100 		ld	s0,0(sp)
 128              		.cfi_restore 8
 129              		.cfi_def_cfa 2, 16
 130 006c 13010101 		addi	sp,sp,16
 131              		.cfi_def_cfa_offset 0
 132 0070 67800000 		jr	ra
 133              		.cfi_endproc
 134              	.LFE12:
 136              		.align	2
 137              		.globl	_Znwm
 139              	_Znwm:
 140              	.LFB8:
   7:src/syscall_cpp.cpp ****     return mem_alloc(size);
 141              		.loc 2 7 33 is_stmt 1
 142              		.cfi_startproc
 143              	.LVL8:
 144 0074 130101FF 		addi	sp,sp,-16
 145              		.cfi_def_cfa_offset 16
 146 0078 23341100 		sd	ra,8(sp)
 147 007c 23308100 		sd	s0,0(sp)
 148              		.cfi_offset 1, -8
 149              		.cfi_offset 8, -16
 150 0080 13040101 		addi	s0,sp,16
 151              		.cfi_def_cfa 8, 0
   8:src/syscall_cpp.cpp **** }
 152              		.loc 2 8 5
   8:src/syscall_cpp.cpp **** }
 153              		.loc 2 8 21 is_stmt 0
 154 0084 97000000 		call	_Z9mem_allocm@plt
 154      E7800000 
 155              	.LVL9:
   9:src/syscall_cpp.cpp **** 
GAS LISTING /tmp/ccx0rBVl.s 			page 5


 156              		.loc 2 9 1
 157 008c 83308100 		ld	ra,8(sp)
 158              		.cfi_restore 1
 159 0090 03340100 		ld	s0,0(sp)
 160              		.cfi_restore 8
 161              		.cfi_def_cfa 2, 16
 162 0094 13010101 		addi	sp,sp,16
 163              		.cfi_def_cfa_offset 0
 164 0098 67800000 		jr	ra
 165              		.cfi_endproc
 166              	.LFE8:
 168              		.align	2
 169              		.globl	_ZdlPv
 171              	_ZdlPv:
 172              	.LFB9:
  11:src/syscall_cpp.cpp ****     mem_free(ptr);
 173              		.loc 2 11 33 is_stmt 1
 174              		.cfi_startproc
 175              	.LVL10:
 176 009c 130101FF 		addi	sp,sp,-16
 177              		.cfi_def_cfa_offset 16
 178 00a0 23341100 		sd	ra,8(sp)
 179 00a4 23308100 		sd	s0,0(sp)
 180              		.cfi_offset 1, -8
 181              		.cfi_offset 8, -16
 182 00a8 13040101 		addi	s0,sp,16
 183              		.cfi_def_cfa 8, 0
  12:src/syscall_cpp.cpp **** }
 184              		.loc 2 12 5
  12:src/syscall_cpp.cpp **** }
 185              		.loc 2 12 13 is_stmt 0
 186 00ac 97000000 		call	_Z8mem_freePv@plt
 186      E7800000 
 187              	.LVL11:
  13:src/syscall_cpp.cpp **** 
 188              		.loc 2 13 1
 189 00b4 83308100 		ld	ra,8(sp)
 190              		.cfi_restore 1
 191 00b8 03340100 		ld	s0,0(sp)
 192              		.cfi_restore 8
 193              		.cfi_def_cfa 2, 16
 194 00bc 13010101 		addi	sp,sp,16
 195              		.cfi_def_cfa_offset 0
 196 00c0 67800000 		jr	ra
 197              		.cfi_endproc
 198              	.LFE9:
 200              		.align	2
 201              		.globl	_ZN6ThreadD0Ev
 203              	_ZN6ThreadD0Ev:
 204              	.LFB22:
  35:src/syscall_cpp.cpp ****     if (myHandle) {
 205              		.loc 2 35 1 is_stmt 1
 206              		.cfi_startproc
 207              	.LVL12:
 208 00c4 130101FE 		addi	sp,sp,-32
 209              		.cfi_def_cfa_offset 32
 210 00c8 233C1100 		sd	ra,24(sp)
GAS LISTING /tmp/ccx0rBVl.s 			page 6


 211 00cc 23388100 		sd	s0,16(sp)
 212 00d0 23349100 		sd	s1,8(sp)
 213              		.cfi_offset 1, -8
 214              		.cfi_offset 8, -16
 215              		.cfi_offset 9, -24
 216 00d4 13040102 		addi	s0,sp,32
 217              		.cfi_def_cfa 8, 0
 218 00d8 93040500 		mv	s1,a0
 219              		.loc 2 40 1 is_stmt 0
 220 00dc 97000000 		call	_ZN6ThreadD1Ev
 220      E7800000 
 221              	.LVL13:
 222 00e4 13850400 		mv	a0,s1
 223 00e8 97000000 		call	_ZdlPv
 223      E7800000 
 224              	.LVL14:
 225 00f0 83308101 		ld	ra,24(sp)
 226              		.cfi_restore 1
 227 00f4 03340101 		ld	s0,16(sp)
 228              		.cfi_restore 8
 229              		.cfi_def_cfa 2, 32
 230 00f8 83348100 		ld	s1,8(sp)
 231              		.cfi_restore 9
 232              	.LVL15:
 233 00fc 13010102 		addi	sp,sp,32
 234              		.cfi_def_cfa_offset 0
 235 0100 67800000 		jr	ra
 236              		.cfi_endproc
 237              	.LFE22:
 239              		.align	2
 240              		.globl	_Znam
 242              	_Znam:
 243              	.LFB10:
  15:src/syscall_cpp.cpp ****     return mem_alloc(size);
 244              		.loc 2 15 35 is_stmt 1
 245              		.cfi_startproc
 246              	.LVL16:
 247 0104 130101FF 		addi	sp,sp,-16
 248              		.cfi_def_cfa_offset 16
 249 0108 23341100 		sd	ra,8(sp)
 250 010c 23308100 		sd	s0,0(sp)
 251              		.cfi_offset 1, -8
 252              		.cfi_offset 8, -16
 253 0110 13040101 		addi	s0,sp,16
 254              		.cfi_def_cfa 8, 0
  16:src/syscall_cpp.cpp **** }
 255              		.loc 2 16 5
  16:src/syscall_cpp.cpp **** }
 256              		.loc 2 16 21 is_stmt 0
 257 0114 97000000 		call	_Z9mem_allocm@plt
 257      E7800000 
 258              	.LVL17:
  17:src/syscall_cpp.cpp **** 
 259              		.loc 2 17 1
 260 011c 83308100 		ld	ra,8(sp)
 261              		.cfi_restore 1
 262 0120 03340100 		ld	s0,0(sp)
GAS LISTING /tmp/ccx0rBVl.s 			page 7


 263              		.cfi_restore 8
 264              		.cfi_def_cfa 2, 16
 265 0124 13010101 		addi	sp,sp,16
 266              		.cfi_def_cfa_offset 0
 267 0128 67800000 		jr	ra
 268              		.cfi_endproc
 269              	.LFE10:
 271              		.align	2
 272              		.globl	_ZdaPv
 274              	_ZdaPv:
 275              	.LFB11:
  19:src/syscall_cpp.cpp ****     mem_free(ptr);
 276              		.loc 2 19 35 is_stmt 1
 277              		.cfi_startproc
 278              	.LVL18:
 279 012c 130101FF 		addi	sp,sp,-16
 280              		.cfi_def_cfa_offset 16
 281 0130 23341100 		sd	ra,8(sp)
 282 0134 23308100 		sd	s0,0(sp)
 283              		.cfi_offset 1, -8
 284              		.cfi_offset 8, -16
 285 0138 13040101 		addi	s0,sp,16
 286              		.cfi_def_cfa 8, 0
  20:src/syscall_cpp.cpp **** }
 287              		.loc 2 20 5
  20:src/syscall_cpp.cpp **** }
 288              		.loc 2 20 13 is_stmt 0
 289 013c 97000000 		call	_Z8mem_freePv@plt
 289      E7800000 
 290              	.LVL19:
  21:src/syscall_cpp.cpp **** 
 291              		.loc 2 21 1
 292 0144 83308100 		ld	ra,8(sp)
 293              		.cfi_restore 1
 294 0148 03340100 		ld	s0,0(sp)
 295              		.cfi_restore 8
 296              		.cfi_def_cfa 2, 16
 297 014c 13010101 		addi	sp,sp,16
 298              		.cfi_def_cfa_offset 0
 299 0150 67800000 		jr	ra
 300              		.cfi_endproc
 301              	.LFE11:
 303              		.align	2
 304              		.globl	_ZN6ThreadC2EPFvPvES0_
 306              	_ZN6ThreadC2EPFvPvES0_:
 307              	.LFB14:
  29:src/syscall_cpp.cpp ****     : myHandle(nullptr), body(body), arg(arg) {}
 308              		.loc 2 29 1 is_stmt 1
 309              		.cfi_startproc
 310              	.LVL20:
 311 0154 130101FF 		addi	sp,sp,-16
 312              		.cfi_def_cfa_offset 16
 313 0158 23348100 		sd	s0,8(sp)
 314              		.cfi_offset 8, -8
 315 015c 13040101 		addi	s0,sp,16
 316              		.cfi_def_cfa 8, 0
 317              	.LBB4:
GAS LISTING /tmp/ccx0rBVl.s 			page 8


  30:src/syscall_cpp.cpp **** 
 318              		.loc 2 30 45 is_stmt 0
 319 0160 97070000 		lla	a5,_ZTV6Thread+16
 319      93870700 
 320 0168 2330F500 		sd	a5,0(a0)
 321 016c 23340500 		sd	zero,8(a0)
 322 0170 2338B500 		sd	a1,16(a0)
 323 0174 233CC500 		sd	a2,24(a0)
 324              	.LBE4:
  30:src/syscall_cpp.cpp **** 
 325              		.loc 2 30 48
 326 0178 03348100 		ld	s0,8(sp)
 327              		.cfi_restore 8
 328              		.cfi_def_cfa 2, 16
 329 017c 13010101 		addi	sp,sp,16
 330              		.cfi_def_cfa_offset 0
 331 0180 67800000 		jr	ra
 332              		.cfi_endproc
 333              	.LFE14:
 335              		.globl	_ZN6ThreadC1EPFvPvES0_
 336              		.set	_ZN6ThreadC1EPFvPvES0_,_ZN6ThreadC2EPFvPvES0_
 337              		.align	2
 338              		.globl	_ZN6ThreadC2Ev
 340              	_ZN6ThreadC2Ev:
 341              	.LFB17:
  32:src/syscall_cpp.cpp ****     : myHandle(nullptr), body(nullptr), arg(nullptr) {}
 342              		.loc 2 32 1 is_stmt 1
 343              		.cfi_startproc
 344              	.LVL21:
 345 0184 130101FF 		addi	sp,sp,-16
 346              		.cfi_def_cfa_offset 16
 347 0188 23348100 		sd	s0,8(sp)
 348              		.cfi_offset 8, -8
 349 018c 13040101 		addi	s0,sp,16
 350              		.cfi_def_cfa 8, 0
 351              	.LBB5:
  33:src/syscall_cpp.cpp **** 
 352              		.loc 2 33 52 is_stmt 0
 353 0190 97070000 		lla	a5,_ZTV6Thread+16
 353      93870700 
 354 0198 2330F500 		sd	a5,0(a0)
 355 019c 23340500 		sd	zero,8(a0)
 356 01a0 23380500 		sd	zero,16(a0)
 357 01a4 233C0500 		sd	zero,24(a0)
 358              	.LBE5:
  33:src/syscall_cpp.cpp **** 
 359              		.loc 2 33 55
 360 01a8 03348100 		ld	s0,8(sp)
 361              		.cfi_restore 8
 362              		.cfi_def_cfa 2, 16
 363 01ac 13010101 		addi	sp,sp,16
 364              		.cfi_def_cfa_offset 0
 365 01b0 67800000 		jr	ra
 366              		.cfi_endproc
 367              	.LFE17:
 369              		.globl	_ZN6ThreadC1Ev
 370              		.set	_ZN6ThreadC1Ev,_ZN6ThreadC2Ev
GAS LISTING /tmp/ccx0rBVl.s 			page 9


 371              		.align	2
 372              		.globl	_ZN6Thread5startEv
 374              	_ZN6Thread5startEv:
 375              	.LFB23:
  41:src/syscall_cpp.cpp **** 
  42:src/syscall_cpp.cpp **** int Thread::start() {
 376              		.loc 2 42 21 is_stmt 1
 377              		.cfi_startproc
 378              	.LVL22:
 379 01b4 130101FF 		addi	sp,sp,-16
 380              		.cfi_def_cfa_offset 16
 381 01b8 23341100 		sd	ra,8(sp)
 382 01bc 23308100 		sd	s0,0(sp)
 383              		.cfi_offset 1, -8
 384              		.cfi_offset 8, -16
 385 01c0 13040101 		addi	s0,sp,16
 386              		.cfi_def_cfa 8, 0
  43:src/syscall_cpp.cpp ****     if (body != nullptr) {
 387              		.loc 2 43 5
 388              		.loc 2 43 9 is_stmt 0
 389 01c4 83350501 		ld	a1,16(a0)
 390              		.loc 2 43 5
 391 01c8 63820502 		beqz	a1,.L26
  44:src/syscall_cpp.cpp ****         return thread_create(&myHandle, body, arg);
 392              		.loc 2 44 9 is_stmt 1
 393              		.loc 2 44 29 is_stmt 0
 394 01cc 03368501 		ld	a2,24(a0)
 395 01d0 13058500 		addi	a0,a0,8
 396              	.LVL23:
 397 01d4 97000000 		call	_Z13thread_createPP7KThreadPFvPvES2_@plt
 397      E7800000 
 398              	.LVL24:
 399              	.L27:
  45:src/syscall_cpp.cpp ****     }
  46:src/syscall_cpp.cpp **** 
  47:src/syscall_cpp.cpp ****     return thread_create(&myHandle, wrapper, this);
  48:src/syscall_cpp.cpp **** }
 400              		.loc 2 48 1
 401 01dc 83308100 		ld	ra,8(sp)
 402              		.cfi_remember_state
 403              		.cfi_restore 1
 404 01e0 03340100 		ld	s0,0(sp)
 405              		.cfi_restore 8
 406              		.cfi_def_cfa 2, 16
 407 01e4 13010101 		addi	sp,sp,16
 408              		.cfi_def_cfa_offset 0
 409 01e8 67800000 		jr	ra
 410              	.LVL25:
 411              	.L26:
 412              		.cfi_restore_state
  47:src/syscall_cpp.cpp **** }
 413              		.loc 2 47 5 is_stmt 1
  47:src/syscall_cpp.cpp **** }
 414              		.loc 2 47 25 is_stmt 0
 415 01ec 13060500 		mv	a2,a0
 416 01f0 97050000 		lla	a1,_ZN6Thread7wrapperEPv
 416      93850500 
GAS LISTING /tmp/ccx0rBVl.s 			page 10


 417 01f8 13058500 		addi	a0,a0,8
 418              	.LVL26:
 419 01fc 97000000 		call	_Z13thread_createPP7KThreadPFvPvES2_@plt
 419      E7800000 
 420              	.LVL27:
  47:src/syscall_cpp.cpp **** }
 421              		.loc 2 47 50
 422 0204 6FF09FFD 		j	.L27
 423              		.cfi_endproc
 424              	.LFE23:
 426              		.align	2
 427              		.globl	_ZN6Thread8dispatchEv
 429              	_ZN6Thread8dispatchEv:
 430              	.LFB24:
  49:src/syscall_cpp.cpp **** 
  50:src/syscall_cpp.cpp **** void Thread::dispatch() {
 431              		.loc 2 50 25 is_stmt 1
 432              		.cfi_startproc
 433 0208 130101FF 		addi	sp,sp,-16
 434              		.cfi_def_cfa_offset 16
 435 020c 23341100 		sd	ra,8(sp)
 436 0210 23308100 		sd	s0,0(sp)
 437              		.cfi_offset 1, -8
 438              		.cfi_offset 8, -16
 439 0214 13040101 		addi	s0,sp,16
 440              		.cfi_def_cfa 8, 0
  51:src/syscall_cpp.cpp ****     thread_dispatch();
 441              		.loc 2 51 5
 442              		.loc 2 51 20 is_stmt 0
 443 0218 97000000 		call	_Z15thread_dispatchv@plt
 443      E7800000 
 444              	.LVL28:
  52:src/syscall_cpp.cpp **** }...
 445              		.loc 2 52 1
 446 0220 83308100 		ld	ra,8(sp)
 447              		.cfi_restore 1
 448 0224 03340100 		ld	s0,0(sp)
 449              		.cfi_restore 8
 450              		.cfi_def_cfa 2, 16
 451 0228 13010101 		addi	sp,sp,16
 452              		.cfi_def_cfa_offset 0
 453 022c 67800000 		jr	ra
 454              		.cfi_endproc
 455              	.LFE24:
 457              		.weak	_ZTV6Thread
 458              		.section	.data.rel.ro.local._ZTV6Thread,"awG",@progbits,_ZTV6Thread,comdat
 459              		.align	3
 462              	_ZTV6Thread:
 463 0000 00000000 		.dword	0
 463      00000000 
 464 0008 00000000 		.dword	0
 464      00000000 
 465 0010 00000000 		.dword	_ZN6ThreadD1Ev
 465      00000000 
 466 0018 00000000 		.dword	_ZN6ThreadD0Ev
 466      00000000 
 467 0020 00000000 		.dword	_ZN6Thread3runEv
GAS LISTING /tmp/ccx0rBVl.s 			page 11


 467      00000000 
 468              		.text
 469              	.Letext0:
 470              		.file 3 "src/../h/../lib/hw.h"
 471              		.file 4 "src/../h/syscall_c.hpp"
 472              		.file 5 "src/../h/KThread.hpp"
 2968              		.align	3
 2971              	DW.ref.__gxx_personality_v0:
 2972 0000 00000000 		.dword	__gxx_personality_v0
 2972      00000000 
 2973              		.ident	"GCC: (Ubuntu 9.4.0-1ubuntu1~20.04) 9.4.0"
 2974              		.section	.note.GNU-stack,"",@progbits
GAS LISTING /tmp/ccx0rBVl.s 			page 12


DEFINED SYMBOLS
                            *ABS*:0000000000000000 syscall_cpp.cpp
     /tmp/ccx0rBVl.s:10     .text._ZN6Thread3runEv:0000000000000000 _ZN6Thread3runEv
     /tmp/ccx0rBVl.s:14     .text._ZN6Thread3runEv:0000000000000000 .L0 
     /tmp/ccx0rBVl.s:16     .text._ZN6Thread3runEv:0000000000000000 .L0 
     /tmp/ccx0rBVl.s:17     .text._ZN6Thread3runEv:0000000000000004 .L0 
     /tmp/ccx0rBVl.s:19     .text._ZN6Thread3runEv:0000000000000008 .L0 
     /tmp/ccx0rBVl.s:21     .text._ZN6Thread3runEv:000000000000000c .L0 
     /tmp/ccx0rBVl.s:23     .text._ZN6Thread3runEv:000000000000000c .L0 
     /tmp/ccx0rBVl.s:24     .text._ZN6Thread3runEv:0000000000000010 .L0 
     /tmp/ccx0rBVl.s:25     .text._ZN6Thread3runEv:0000000000000010 .L0 
     /tmp/ccx0rBVl.s:27     .text._ZN6Thread3runEv:0000000000000014 .L0 
     /tmp/ccx0rBVl.s:29     .text._ZN6Thread3runEv:0000000000000018 .L0 
     /tmp/ccx0rBVl.s:36     .text:0000000000000000 _ZN6ThreadD2Ev
     /tmp/ccx0rBVl.s:40     .text:0000000000000000 .L0 
     /tmp/ccx0rBVl.s:2971   .data.rel.local.DW.ref.__gxx_personality_v0:0000000000000000 DW.ref.__gxx_personality_v0
     /tmp/ccx0rBVl.s:45     .text:0000000000000000 .L0 
     /tmp/ccx0rBVl.s:462    .data.rel.ro.local._ZTV6Thread:0000000000000000 _ZTV6Thread
     /tmp/ccx0rBVl.s:46     .text:0000000000000000 .L0 
     /tmp/ccx0rBVl.s:49     .text:000000000000000c .L0 
     /tmp/ccx0rBVl.s:50     .text:000000000000000c .L0 
     /tmp/ccx0rBVl.s:53     .text:0000000000000010 .L0 
     /tmp/ccx0rBVl.s:56     .text:0000000000000014 .L0 
     /tmp/ccx0rBVl.s:57     .text:0000000000000018 .L0 
     /tmp/ccx0rBVl.s:60     .text:0000000000000020 .L0 
     /tmp/ccx0rBVl.s:61     .text:0000000000000020 .L0 
     /tmp/ccx0rBVl.s:63     .text:0000000000000024 .L0 
     /tmp/ccx0rBVl.s:66     .text:0000000000000024 .L0 
     /tmp/ccx0rBVl.s:67     .text:0000000000000024 .L0 
     /tmp/ccx0rBVl.s:71     .text:000000000000002c .L0 
     /tmp/ccx0rBVl.s:72     .text:000000000000002c .L0 
     /tmp/ccx0rBVl.s:73     .text:0000000000000030 .L0 
     /tmp/ccx0rBVl.s:75     .text:0000000000000034 .L0 
     /tmp/ccx0rBVl.s:76     .text:0000000000000034 .L0 
     /tmp/ccx0rBVl.s:78     .text:0000000000000038 .L0 
     /tmp/ccx0rBVl.s:82     .text:0000000000000040 .L0 
     /tmp/ccx0rBVl.s:36     .text:0000000000000000 _ZN6ThreadD1Ev
     /tmp/ccx0rBVl.s:98     .text:0000000000000040 _ZN6Thread7wrapperEPv
     /tmp/ccx0rBVl.s:101    .text:0000000000000040 .L0 
     /tmp/ccx0rBVl.s:103    .text:0000000000000040 .L0 
     /tmp/ccx0rBVl.s:104    .text:0000000000000044 .L0 
     /tmp/ccx0rBVl.s:107    .text:000000000000004c .L0 
     /tmp/ccx0rBVl.s:108    .text:000000000000004c .L0 
     /tmp/ccx0rBVl.s:110    .text:0000000000000050 .L0 
     /tmp/ccx0rBVl.s:113    .text:0000000000000050 .L0 
     /tmp/ccx0rBVl.s:114    .text:0000000000000050 .L0 
     /tmp/ccx0rBVl.s:115    .text:0000000000000050 .L0 
     /tmp/ccx0rBVl.s:118    .text:0000000000000058 .L0 
     /tmp/ccx0rBVl.s:121    .text:000000000000005c .L0 
     /tmp/ccx0rBVl.s:122    .text:000000000000005c .L0 
     /tmp/ccx0rBVl.s:125    .text:0000000000000064 .L0 
     /tmp/ccx0rBVl.s:126    .text:0000000000000068 .L0 
     /tmp/ccx0rBVl.s:128    .text:000000000000006c .L0 
     /tmp/ccx0rBVl.s:129    .text:000000000000006c .L0 
     /tmp/ccx0rBVl.s:131    .text:0000000000000070 .L0 
     /tmp/ccx0rBVl.s:133    .text:0000000000000074 .L0 
     /tmp/ccx0rBVl.s:139    .text:0000000000000074 _Znwm
GAS LISTING /tmp/ccx0rBVl.s 			page 13


     /tmp/ccx0rBVl.s:142    .text:0000000000000074 .L0 
     /tmp/ccx0rBVl.s:144    .text:0000000000000074 .L0 
     /tmp/ccx0rBVl.s:145    .text:0000000000000078 .L0 
     /tmp/ccx0rBVl.s:148    .text:0000000000000080 .L0 
     /tmp/ccx0rBVl.s:149    .text:0000000000000080 .L0 
     /tmp/ccx0rBVl.s:151    .text:0000000000000084 .L0 
     /tmp/ccx0rBVl.s:153    .text:0000000000000084 .L0 
     /tmp/ccx0rBVl.s:154    .text:0000000000000084 .L0 
     /tmp/ccx0rBVl.s:157    .text:000000000000008c .L0 
     /tmp/ccx0rBVl.s:158    .text:0000000000000090 .L0 
     /tmp/ccx0rBVl.s:160    .text:0000000000000094 .L0 
     /tmp/ccx0rBVl.s:161    .text:0000000000000094 .L0 
     /tmp/ccx0rBVl.s:163    .text:0000000000000098 .L0 
     /tmp/ccx0rBVl.s:165    .text:000000000000009c .L0 
     /tmp/ccx0rBVl.s:171    .text:000000000000009c _ZdlPv
     /tmp/ccx0rBVl.s:174    .text:000000000000009c .L0 
     /tmp/ccx0rBVl.s:176    .text:000000000000009c .L0 
     /tmp/ccx0rBVl.s:177    .text:00000000000000a0 .L0 
     /tmp/ccx0rBVl.s:180    .text:00000000000000a8 .L0 
     /tmp/ccx0rBVl.s:181    .text:00000000000000a8 .L0 
     /tmp/ccx0rBVl.s:183    .text:00000000000000ac .L0 
     /tmp/ccx0rBVl.s:185    .text:00000000000000ac .L0 
     /tmp/ccx0rBVl.s:186    .text:00000000000000ac .L0 
     /tmp/ccx0rBVl.s:189    .text:00000000000000b4 .L0 
     /tmp/ccx0rBVl.s:190    .text:00000000000000b8 .L0 
     /tmp/ccx0rBVl.s:192    .text:00000000000000bc .L0 
     /tmp/ccx0rBVl.s:193    .text:00000000000000bc .L0 
     /tmp/ccx0rBVl.s:195    .text:00000000000000c0 .L0 
     /tmp/ccx0rBVl.s:197    .text:00000000000000c4 .L0 
     /tmp/ccx0rBVl.s:203    .text:00000000000000c4 _ZN6ThreadD0Ev
     /tmp/ccx0rBVl.s:206    .text:00000000000000c4 .L0 
     /tmp/ccx0rBVl.s:208    .text:00000000000000c4 .L0 
     /tmp/ccx0rBVl.s:209    .text:00000000000000c8 .L0 
     /tmp/ccx0rBVl.s:213    .text:00000000000000d4 .L0 
     /tmp/ccx0rBVl.s:214    .text:00000000000000d4 .L0 
     /tmp/ccx0rBVl.s:215    .text:00000000000000d4 .L0 
     /tmp/ccx0rBVl.s:217    .text:00000000000000d8 .L0 
     /tmp/ccx0rBVl.s:220    .text:00000000000000dc .L0 
     /tmp/ccx0rBVl.s:226    .text:00000000000000f4 .L0 
     /tmp/ccx0rBVl.s:228    .text:00000000000000f8 .L0 
     /tmp/ccx0rBVl.s:229    .text:00000000000000f8 .L0 
     /tmp/ccx0rBVl.s:231    .text:00000000000000fc .L0 
     /tmp/ccx0rBVl.s:234    .text:0000000000000100 .L0 
     /tmp/ccx0rBVl.s:236    .text:0000000000000104 .L0 
     /tmp/ccx0rBVl.s:242    .text:0000000000000104 _Znam
     /tmp/ccx0rBVl.s:245    .text:0000000000000104 .L0 
     /tmp/ccx0rBVl.s:247    .text:0000000000000104 .L0 
     /tmp/ccx0rBVl.s:248    .text:0000000000000108 .L0 
     /tmp/ccx0rBVl.s:251    .text:0000000000000110 .L0 
     /tmp/ccx0rBVl.s:252    .text:0000000000000110 .L0 
     /tmp/ccx0rBVl.s:254    .text:0000000000000114 .L0 
     /tmp/ccx0rBVl.s:256    .text:0000000000000114 .L0 
     /tmp/ccx0rBVl.s:257    .text:0000000000000114 .L0 
     /tmp/ccx0rBVl.s:260    .text:000000000000011c .L0 
     /tmp/ccx0rBVl.s:261    .text:0000000000000120 .L0 
     /tmp/ccx0rBVl.s:263    .text:0000000000000124 .L0 
     /tmp/ccx0rBVl.s:264    .text:0000000000000124 .L0 
GAS LISTING /tmp/ccx0rBVl.s 			page 14


     /tmp/ccx0rBVl.s:266    .text:0000000000000128 .L0 
     /tmp/ccx0rBVl.s:268    .text:000000000000012c .L0 
     /tmp/ccx0rBVl.s:274    .text:000000000000012c _ZdaPv
     /tmp/ccx0rBVl.s:277    .text:000000000000012c .L0 
     /tmp/ccx0rBVl.s:279    .text:000000000000012c .L0 
     /tmp/ccx0rBVl.s:280    .text:0000000000000130 .L0 
     /tmp/ccx0rBVl.s:283    .text:0000000000000138 .L0 
     /tmp/ccx0rBVl.s:284    .text:0000000000000138 .L0 
     /tmp/ccx0rBVl.s:286    .text:000000000000013c .L0 
     /tmp/ccx0rBVl.s:288    .text:000000000000013c .L0 
     /tmp/ccx0rBVl.s:289    .text:000000000000013c .L0 
     /tmp/ccx0rBVl.s:292    .text:0000000000000144 .L0 
     /tmp/ccx0rBVl.s:293    .text:0000000000000148 .L0 
     /tmp/ccx0rBVl.s:295    .text:000000000000014c .L0 
     /tmp/ccx0rBVl.s:296    .text:000000000000014c .L0 
     /tmp/ccx0rBVl.s:298    .text:0000000000000150 .L0 
     /tmp/ccx0rBVl.s:300    .text:0000000000000154 .L0 
     /tmp/ccx0rBVl.s:306    .text:0000000000000154 _ZN6ThreadC2EPFvPvES0_
     /tmp/ccx0rBVl.s:309    .text:0000000000000154 .L0 
     /tmp/ccx0rBVl.s:311    .text:0000000000000154 .L0 
     /tmp/ccx0rBVl.s:312    .text:0000000000000158 .L0 
     /tmp/ccx0rBVl.s:314    .text:000000000000015c .L0 
     /tmp/ccx0rBVl.s:316    .text:0000000000000160 .L0 
     /tmp/ccx0rBVl.s:319    .text:0000000000000160 .L0 
     /tmp/ccx0rBVl.s:326    .text:0000000000000178 .L0 
     /tmp/ccx0rBVl.s:327    .text:000000000000017c .L0 
     /tmp/ccx0rBVl.s:328    .text:000000000000017c .L0 
     /tmp/ccx0rBVl.s:330    .text:0000000000000180 .L0 
     /tmp/ccx0rBVl.s:332    .text:0000000000000184 .L0 
     /tmp/ccx0rBVl.s:306    .text:0000000000000154 _ZN6ThreadC1EPFvPvES0_
     /tmp/ccx0rBVl.s:340    .text:0000000000000184 _ZN6ThreadC2Ev
     /tmp/ccx0rBVl.s:343    .text:0000000000000184 .L0 
     /tmp/ccx0rBVl.s:345    .text:0000000000000184 .L0 
     /tmp/ccx0rBVl.s:346    .text:0000000000000188 .L0 
     /tmp/ccx0rBVl.s:348    .text:000000000000018c .L0 
     /tmp/ccx0rBVl.s:350    .text:0000000000000190 .L0 
     /tmp/ccx0rBVl.s:353    .text:0000000000000190 .L0 
     /tmp/ccx0rBVl.s:360    .text:00000000000001a8 .L0 
     /tmp/ccx0rBVl.s:361    .text:00000000000001ac .L0 
     /tmp/ccx0rBVl.s:362    .text:00000000000001ac .L0 
     /tmp/ccx0rBVl.s:364    .text:00000000000001b0 .L0 
     /tmp/ccx0rBVl.s:366    .text:00000000000001b4 .L0 
     /tmp/ccx0rBVl.s:340    .text:0000000000000184 _ZN6ThreadC1Ev
     /tmp/ccx0rBVl.s:374    .text:00000000000001b4 _ZN6Thread5startEv
     /tmp/ccx0rBVl.s:377    .text:00000000000001b4 .L0 
     /tmp/ccx0rBVl.s:379    .text:00000000000001b4 .L0 
     /tmp/ccx0rBVl.s:380    .text:00000000000001b8 .L0 
     /tmp/ccx0rBVl.s:383    .text:00000000000001c0 .L0 
     /tmp/ccx0rBVl.s:384    .text:00000000000001c0 .L0 
     /tmp/ccx0rBVl.s:386    .text:00000000000001c4 .L0 
     /tmp/ccx0rBVl.s:388    .text:00000000000001c4 .L0 
     /tmp/ccx0rBVl.s:389    .text:00000000000001c4 .L0 
     /tmp/ccx0rBVl.s:391    .text:00000000000001c8 .L0 
     /tmp/ccx0rBVl.s:393    .text:00000000000001cc .L0 
     /tmp/ccx0rBVl.s:394    .text:00000000000001cc .L0 
     /tmp/ccx0rBVl.s:401    .text:00000000000001dc .L0 
     /tmp/ccx0rBVl.s:402    .text:00000000000001e0 .L0 
GAS LISTING /tmp/ccx0rBVl.s 			page 15


     /tmp/ccx0rBVl.s:403    .text:00000000000001e0 .L0 
     /tmp/ccx0rBVl.s:405    .text:00000000000001e4 .L0 
     /tmp/ccx0rBVl.s:406    .text:00000000000001e4 .L0 
     /tmp/ccx0rBVl.s:408    .text:00000000000001e8 .L0 
     /tmp/ccx0rBVl.s:412    .text:00000000000001ec .L0 
     /tmp/ccx0rBVl.s:414    .text:00000000000001ec .L0 
     /tmp/ccx0rBVl.s:415    .text:00000000000001ec .L0 
     /tmp/ccx0rBVl.s:422    .text:0000000000000204 .L0 
     /tmp/ccx0rBVl.s:423    .text:0000000000000208 .L0 
     /tmp/ccx0rBVl.s:429    .text:0000000000000208 _ZN6Thread8dispatchEv
     /tmp/ccx0rBVl.s:432    .text:0000000000000208 .L0 
     /tmp/ccx0rBVl.s:433    .text:0000000000000208 .L0 
     /tmp/ccx0rBVl.s:434    .text:000000000000020c .L0 
     /tmp/ccx0rBVl.s:437    .text:0000000000000214 .L0 
     /tmp/ccx0rBVl.s:438    .text:0000000000000214 .L0 
     /tmp/ccx0rBVl.s:440    .text:0000000000000218 .L0 
     /tmp/ccx0rBVl.s:442    .text:0000000000000218 .L0 
     /tmp/ccx0rBVl.s:443    .text:0000000000000218 .L0 
     /tmp/ccx0rBVl.s:446    .text:0000000000000220 .L0 
     /tmp/ccx0rBVl.s:447    .text:0000000000000224 .L0 
     /tmp/ccx0rBVl.s:449    .text:0000000000000228 .L0 
     /tmp/ccx0rBVl.s:450    .text:0000000000000228 .L0 
     /tmp/ccx0rBVl.s:452    .text:000000000000022c .L0 
     /tmp/ccx0rBVl.s:454    .text:0000000000000230 .L0 
     /tmp/ccx0rBVl.s:32     .text._ZN6Thread3runEv:0000000000000018 .L0 
     /tmp/ccx0rBVl.s:473    .text:0000000000000230 .L0 
     /tmp/ccx0rBVl.s:46     .text:0000000000000000 .L0 
     /tmp/ccx0rBVl.s:319    .text:0000000000000160 .L0 
     /tmp/ccx0rBVl.s:353    .text:0000000000000190 .L0 
     /tmp/ccx0rBVl.s:416    .text:00000000000001f0 .L0 
     /tmp/ccx0rBVl.s:80     .text:000000000000003c .L6
     /tmp/ccx0rBVl.s:411    .text:00000000000001ec .L26
     /tmp/ccx0rBVl.s:399    .text:00000000000001dc .L27
     /tmp/ccx0rBVl.s:1588   .debug_abbrev:0000000000000000 .Ldebug_abbrev0
     /tmp/ccx0rBVl.s:2937   .debug_str:00000000000005dd .LASF102
     /tmp/ccx0rBVl.s:2909   .debug_str:0000000000000519 .LASF103
     /tmp/ccx0rBVl.s:2797   .debug_str:00000000000001e4 .LASF104
     /tmp/ccx0rBVl.s:2729   .debug_ranges:0000000000000000 .Ldebug_ranges0
     /tmp/ccx0rBVl.s:2737   .debug_line:0000000000000000 .Ldebug_line0
     /tmp/ccx0rBVl.s:2857   .debug_str:000000000000039b .LASF0
     /tmp/ccx0rBVl.s:2873   .debug_str:0000000000000408 .LASF1
     /tmp/ccx0rBVl.s:2845   .debug_str:000000000000033a .LASF2
     /tmp/ccx0rBVl.s:2825   .debug_str:00000000000002be .LASF4
     /tmp/ccx0rBVl.s:2919   .debug_str:0000000000000556 .LASF3
     /tmp/ccx0rBVl.s:2761   .debug_str:00000000000000c3 .LASF5
     /tmp/ccx0rBVl.s:2785   .debug_str:000000000000019c .LASF6
     /tmp/ccx0rBVl.s:2879   .debug_str:000000000000043e .LASF7
     /tmp/ccx0rBVl.s:2855   .debug_str:0000000000000388 .LASF8
     /tmp/ccx0rBVl.s:2943   .debug_str:00000000000006b7 .LASF9
     /tmp/ccx0rBVl.s:2811   .debug_str:000000000000025d .LASF10
     /tmp/ccx0rBVl.s:2889   .debug_str:000000000000046a .LASF11
     /tmp/ccx0rBVl.s:2939   .debug_str:00000000000006a1 .LASF12
     /tmp/ccx0rBVl.s:2763   .debug_str:00000000000000ca .LASF13
     /tmp/ccx0rBVl.s:2747   .debug_str:000000000000006d .LASF14
     /tmp/ccx0rBVl.s:2769   .debug_str:000000000000011c .LASF15
     /tmp/ccx0rBVl.s:2913   .debug_str:0000000000000533 .LASF16
     /tmp/ccx0rBVl.s:2777   .debug_str:000000000000015a .LASF17
GAS LISTING /tmp/ccx0rBVl.s 			page 16


     /tmp/ccx0rBVl.s:2739   .debug_str:0000000000000000 .LASF18
     /tmp/ccx0rBVl.s:2787   .debug_str:00000000000001a3 .LASF21
     /tmp/ccx0rBVl.s:2751   .debug_str:000000000000008c .LASF105
     /tmp/ccx0rBVl.s:2927   .debug_str:0000000000000595 .LASF19
     /tmp/ccx0rBVl.s:2791   .debug_str:00000000000001b4 .LASF20
     /tmp/ccx0rBVl.s:2901   .debug_str:00000000000004e2 .LASF22
     /tmp/ccx0rBVl.s:2801   .debug_str:0000000000000210 .LASF106
     /tmp/ccx0rBVl.s:2741   .debug_str:0000000000000009 .LASF23
     /tmp/ccx0rBVl.s:2907   .debug_str:0000000000000510 .LASF24
     /tmp/ccx0rBVl.s:2905   .debug_str:0000000000000500 .LASF25
     /tmp/ccx0rBVl.s:2837   .debug_str:00000000000002f6 .LASF26
     /tmp/ccx0rBVl.s:2839   .debug_str:0000000000000303 .LASF27
     /tmp/ccx0rBVl.s:2861   .debug_str:00000000000003b1 .LASF28
     /tmp/ccx0rBVl.s:2871   .debug_str:0000000000000402 .LASF29
     /tmp/ccx0rBVl.s:2771   .debug_str:0000000000000128 .LASF30
     /tmp/ccx0rBVl.s:2841   .debug_str:0000000000000328 .LASF31
     /tmp/ccx0rBVl.s:2925   .debug_str:0000000000000582 .LASF32
     /tmp/ccx0rBVl.s:2961   .debug_str:000000000000073b .LASF35
     /tmp/ccx0rBVl.s:2767   .debug_str:0000000000000106 .LASF37
     /tmp/ccx0rBVl.s:2835   .debug_str:00000000000002ed .LASF67
     /tmp/ccx0rBVl.s:2935   .debug_str:00000000000005c5 .LASF68
     /tmp/ccx0rBVl.s:2853   .debug_str:000000000000037f .LASF33
     /tmp/ccx0rBVl.s:2743   .debug_str:0000000000000025 .LASF34
     /tmp/ccx0rBVl.s:2911   .debug_str:000000000000052d .LASF36
     /tmp/ccx0rBVl.s:2817   .debug_str:000000000000028e .LASF38
     /tmp/ccx0rBVl.s:2859   .debug_str:00000000000003a8 .LASF39
     /tmp/ccx0rBVl.s:2947   .debug_str:00000000000006d7 .LASF40
     /tmp/ccx0rBVl.s:2953   .debug_str:0000000000000706 .LASF41
     /tmp/ccx0rBVl.s:2933   .debug_str:00000000000005b5 .LASF42
     /tmp/ccx0rBVl.s:2923   .debug_str:0000000000000572 .LASF45
     /tmp/ccx0rBVl.s:2929   .debug_str:000000000000059e .LASF47
     /tmp/ccx0rBVl.s:2805   .debug_str:000000000000022b .LASF43
     /tmp/ccx0rBVl.s:2815   .debug_str:000000000000027e .LASF44
     /tmp/ccx0rBVl.s:2829   .debug_str:00000000000002cd .LASF46
     /tmp/ccx0rBVl.s:2957   .debug_str:0000000000000721 .LASF48
     /tmp/ccx0rBVl.s:2821   .debug_str:00000000000002ae .LASF49
     /tmp/ccx0rBVl.s:2951   .debug_str:00000000000006fc .LASF50
     /tmp/ccx0rBVl.s:2833   .debug_str:00000000000002e5 .LASF51
     /tmp/ccx0rBVl.s:2831   .debug_str:00000000000002e0 .LASF52
     /tmp/ccx0rBVl.s:2863   .debug_str:00000000000003d9 .LASF53
     /tmp/ccx0rBVl.s:2759   .debug_str:00000000000000bd .LASF54
     /tmp/ccx0rBVl.s:2955   .debug_str:0000000000000713 .LASF55
     /tmp/ccx0rBVl.s:2851   .debug_str:0000000000000371 .LASF56
     /tmp/ccx0rBVl.s:2799   .debug_str:0000000000000202 .LASF57
     /tmp/ccx0rBVl.s:2849   .debug_str:0000000000000354 .LASF58
     /tmp/ccx0rBVl.s:2949   .debug_str:00000000000006ee .LASF64
     /tmp/ccx0rBVl.s:2765   .debug_str:00000000000000da .LASF107
     /tmp/ccx0rBVl.s:2847   .debug_str:0000000000000348 .LASF75
     /tmp/ccx0rBVl.s:2899   .debug_str:00000000000004b4 .LASF76
     /tmp/ccx0rBVl.s:2819   .debug_str:00000000000002a2 .LASF108
     /tmp/ccx0rBVl.s:2887   .debug_str:0000000000000464 .LASF59
     /tmp/ccx0rBVl.s:2883   .debug_str:0000000000000456 .LASF60
     /tmp/ccx0rBVl.s:2827   .debug_str:00000000000002c5 .LASF61
     /tmp/ccx0rBVl.s:2895   .debug_str:00000000000004a6 .LASF62
     /tmp/ccx0rBVl.s:2881   .debug_str:0000000000000451 .LASF63
     /tmp/ccx0rBVl.s:2941   .debug_str:00000000000006b0 .LASF65
     /tmp/ccx0rBVl.s:2875   .debug_str:000000000000041b .LASF109
GAS LISTING /tmp/ccx0rBVl.s 			page 17


     /tmp/ccx0rBVl.s:2843   .debug_str:000000000000032d .LASF110
     /tmp/ccx0rBVl.s:2893   .debug_str:000000000000048f .LASF66
     /tmp/ccx0rBVl.s:2757   .debug_str:00000000000000b5 .LASF86
     /tmp/ccx0rBVl.s:2867   .debug_str:00000000000003e5 .LASF87
     /tmp/ccx0rBVl.s:2807   .debug_str:000000000000023b .LASF69
     /tmp/ccx0rBVl.s:2803   .debug_str:0000000000000215 .LASF70
     /tmp/ccx0rBVl.s:2931   .debug_str:00000000000005af .LASF71
     /tmp/ccx0rBVl.s:2813   .debug_str:000000000000026b .LASF72
     /tmp/ccx0rBVl.s:2809   .debug_str:000000000000024e .LASF73
     /tmp/ccx0rBVl.s:2795   .debug_str:00000000000001d3 .LASF111
     /tmp/ccx0rBVl.s:2959   .debug_str:0000000000000732 .LASF74
     /tmp/ccx0rBVl.s:2891   .debug_str:0000000000000479 .LASF77
     /tmp/ccx0rBVl.s:2945   .debug_str:00000000000006c7 .LASF112
     /tmp/ccx0rBVl.s:430    .text:0000000000000208 .LFB24
     /tmp/ccx0rBVl.s:455    .text:0000000000000230 .LFE24
     /tmp/ccx0rBVl.s:444    .text:0000000000000220 .LVL28
     /tmp/ccx0rBVl.s:375    .text:00000000000001b4 .LFB23
     /tmp/ccx0rBVl.s:424    .text:0000000000000208 .LFE23
     /tmp/ccx0rBVl.s:2897   .debug_str:00000000000004af .LASF78
     /tmp/ccx0rBVl.s:2563   .debug_loc:0000000000000000 .LLST8
     /tmp/ccx0rBVl.s:398    .text:00000000000001dc .LVL24
     /tmp/ccx0rBVl.s:420    .text:0000000000000204 .LVL27
     /tmp/ccx0rBVl.s:2823   .debug_str:00000000000002b4 .LASF79
     /tmp/ccx0rBVl.s:2779   .debug_str:0000000000000170 .LASF80
     /tmp/ccx0rBVl.s:204    .text:00000000000000c4 .LFB22
     /tmp/ccx0rBVl.s:237    .text:0000000000000104 .LFE22
     /tmp/ccx0rBVl.s:2598   .debug_loc:000000000000008a .LLST5
     /tmp/ccx0rBVl.s:221    .text:00000000000000e4 .LVL13
     /tmp/ccx0rBVl.s:224    .text:00000000000000f0 .LVL14
     /tmp/ccx0rBVl.s:2749   .debug_str:000000000000007d .LASF81
     /tmp/ccx0rBVl.s:37     .text:0000000000000000 .LFB20
     /tmp/ccx0rBVl.s:83     .text:0000000000000040 .LFE20
     /tmp/ccx0rBVl.s:2616   .debug_loc:00000000000000d6 .LLST0
     /tmp/ccx0rBVl.s:68     .text:000000000000002c .LVL3
     /tmp/ccx0rBVl.s:2783   .debug_str:000000000000018d .LASF82
     /tmp/ccx0rBVl.s:341    .text:0000000000000184 .LFB17
     /tmp/ccx0rBVl.s:367    .text:00000000000001b4 .LFE17
     /tmp/ccx0rBVl.s:2793   .debug_str:00000000000001bc .LASF83
     /tmp/ccx0rBVl.s:307    .text:0000000000000154 .LFB14
     /tmp/ccx0rBVl.s:333    .text:0000000000000184 .LFE14
     /tmp/ccx0rBVl.s:99     .text:0000000000000040 .LFB12
     /tmp/ccx0rBVl.s:134    .text:0000000000000074 .LFE12
     /tmp/ccx0rBVl.s:2630   .debug_loc:000000000000010f .LLST1
     /tmp/ccx0rBVl.s:2865   .debug_str:00000000000003de .LASF84
     /tmp/ccx0rBVl.s:2644   .debug_loc:0000000000000148 .LLST2
     /tmp/ccx0rBVl.s:119    .text:000000000000005c .LVL6
     /tmp/ccx0rBVl.s:123    .text:0000000000000064 .LVL7
     /tmp/ccx0rBVl.s:2917   .debug_str:000000000000054f .LASF85
     /tmp/ccx0rBVl.s:275    .text:000000000000012c .LFB11
     /tmp/ccx0rBVl.s:301    .text:0000000000000154 .LFE11
     /tmp/ccx0rBVl.s:2658   .debug_loc:0000000000000181 .LLST7
     /tmp/ccx0rBVl.s:290    .text:0000000000000144 .LVL19
     /tmp/ccx0rBVl.s:2885   .debug_str:000000000000045e .LASF88
     /tmp/ccx0rBVl.s:243    .text:0000000000000104 .LFB10
     /tmp/ccx0rBVl.s:269    .text:000000000000012c .LFE10
     /tmp/ccx0rBVl.s:2903   .debug_str:00000000000004fb .LASF89
     /tmp/ccx0rBVl.s:2672   .debug_loc:00000000000001ba .LLST6
GAS LISTING /tmp/ccx0rBVl.s 			page 18


     /tmp/ccx0rBVl.s:258    .text:000000000000011c .LVL17
     /tmp/ccx0rBVl.s:2963   .debug_str:0000000000000743 .LASF90
     /tmp/ccx0rBVl.s:172    .text:000000000000009c .LFB9
     /tmp/ccx0rBVl.s:198    .text:00000000000000c4 .LFE9
     /tmp/ccx0rBVl.s:2686   .debug_loc:00000000000001f3 .LLST4
     /tmp/ccx0rBVl.s:187    .text:00000000000000b4 .LVL11
     /tmp/ccx0rBVl.s:2915   .debug_str:0000000000000549 .LASF91
     /tmp/ccx0rBVl.s:140    .text:0000000000000074 .LFB8
     /tmp/ccx0rBVl.s:166    .text:000000000000009c .LFE8
     /tmp/ccx0rBVl.s:2700   .debug_loc:000000000000022c .LLST3
     /tmp/ccx0rBVl.s:155    .text:000000000000008c .LVL9
     /tmp/ccx0rBVl.s:11     .text._ZN6Thread3runEv:0000000000000000 .LFB6
     /tmp/ccx0rBVl.s:30     .text._ZN6Thread3runEv:0000000000000018 .LFE6
     /tmp/ccx0rBVl.s:2755   .debug_str:00000000000000a0 .LASF92
     /tmp/ccx0rBVl.s:2773   .debug_str:000000000000013c .LASF94
     /tmp/ccx0rBVl.s:2745   .debug_str:0000000000000048 .LASF93
     /tmp/ccx0rBVl.s:2781   .debug_str:000000000000017f .LASF95
     /tmp/ccx0rBVl.s:2869   .debug_str:00000000000003f4 .LASF96
     /tmp/ccx0rBVl.s:2789   .debug_str:00000000000001ab .LASF97
     /tmp/ccx0rBVl.s:2877   .debug_str:000000000000042d .LASF98
     /tmp/ccx0rBVl.s:2753   .debug_str:0000000000000094 .LASF99
     /tmp/ccx0rBVl.s:2775   .debug_str:000000000000014c .LASF100
     /tmp/ccx0rBVl.s:2921   .debug_str:0000000000000568 .LASF101
     /tmp/ccx0rBVl.s:378    .text:00000000000001b4 .LVL22
     /tmp/ccx0rBVl.s:396    .text:00000000000001d4 .LVL23
     /tmp/ccx0rBVl.s:410    .text:00000000000001ec .LVL25
     /tmp/ccx0rBVl.s:418    .text:00000000000001fc .LVL26
     /tmp/ccx0rBVl.s:207    .text:00000000000000c4 .LVL12
     /tmp/ccx0rBVl.s:232    .text:00000000000000fc .LVL15
     /tmp/ccx0rBVl.s:43     .text:0000000000000000 .LVL1
     /tmp/ccx0rBVl.s:51     .text:0000000000000010 .LVL2
     /tmp/ccx0rBVl.s:102    .text:0000000000000040 .LVL4
     /tmp/ccx0rBVl.s:112    .text:0000000000000050 .LVL5
     /tmp/ccx0rBVl.s:278    .text:000000000000012c .LVL18
     /tmp/ccx0rBVl.s:246    .text:0000000000000104 .LVL16
     /tmp/ccx0rBVl.s:175    .text:000000000000009c .LVL10
     /tmp/ccx0rBVl.s:143    .text:0000000000000074 .LVL8
     /tmp/ccx0rBVl.s:474    .debug_info:0000000000000000 .Ldebug_info0
     /tmp/ccx0rBVl.s:5      .text:0000000000000000 .Ltext0
     /tmp/ccx0rBVl.s:469    .text:0000000000000230 .Letext0
     /tmp/ccx0rBVl.s:86     .gcc_except_table:0000000000000000 .LLSDA20

UNDEFINED SYMBOLS
_Z8mem_freePv
__gxx_personality_v0
_Z11thread_exitv
_Z9mem_allocm
_Z13thread_createPP7KThreadPFvPvES2_
_Z15thread_dispatchv
