GAS LISTING /tmp/cc0wmPoy.s 			page 1


   1              		.file	"syscall_cpp.cpp"
   2              		.option pic
   3              		.option norelax
   4              		.text
   5              	.Ltext0:
   6              		.section	.text._ZN6Thread3runEv,"axG",@progbits,_ZN6Thread3runEv,comdat
   7              		.align	2
   8              		.weak	_ZN6Thread3runEv
  10              	_ZN6Thread3runEv:
  11              	.LFB13:
  12              		.file 1 "src/../h/syscall_cpp.hpp"
   1:src/../h/syscall_cpp.hpp **** //
   2:src/../h/syscall_cpp.hpp **** // Created by os on 10/15/25.
   3:src/../h/syscall_cpp.hpp **** //
   4:src/../h/syscall_cpp.hpp **** 
   5:src/../h/syscall_cpp.hpp **** #ifndef PROJECT_BASE_SYSCALL_CPP_HPP
   6:src/../h/syscall_cpp.hpp **** #define PROJECT_BASE_SYSCALL_CPP_HPP
   7:src/../h/syscall_cpp.hpp **** 
   8:src/../h/syscall_cpp.hpp **** #include "syscall_c.hpp"
   9:src/../h/syscall_cpp.hpp **** #include "KThread.hpp"
  10:src/../h/syscall_cpp.hpp **** #include "KSemaphore.hpp"
  11:src/../h/syscall_cpp.hpp **** 
  12:src/../h/syscall_cpp.hpp **** void* operator new (size_t);
  13:src/../h/syscall_cpp.hpp **** void operator delete (void*);
  14:src/../h/syscall_cpp.hpp **** 
  15:src/../h/syscall_cpp.hpp **** class Thread {
  16:src/../h/syscall_cpp.hpp **** public:
  17:src/../h/syscall_cpp.hpp ****     Thread (void (*body)(void*), void* arg);
  18:src/../h/syscall_cpp.hpp ****     virtual ~Thread ();
  19:src/../h/syscall_cpp.hpp ****     int start ();
  20:src/../h/syscall_cpp.hpp ****     static void dispatch ();
  21:src/../h/syscall_cpp.hpp ****     static int sleep (time_t);
  22:src/../h/syscall_cpp.hpp **** protected:
  23:src/../h/syscall_cpp.hpp ****     Thread ();
  24:src/../h/syscall_cpp.hpp ****     virtual void run () {}
  13              		.loc 1 24 18
  14              		.cfi_startproc
  15              	.LVL0:
  16 0000 130101FF 		addi	sp,sp,-16
  17              		.cfi_def_cfa_offset 16
  18 0004 23348100 		sd	s0,8(sp)
  19              		.cfi_offset 8, -8
  20 0008 13040101 		addi	s0,sp,16
  21              		.cfi_def_cfa 8, 0
  22              		.loc 1 24 26 is_stmt 0
  23 000c 03348100 		ld	s0,8(sp)
  24              		.cfi_restore 8
  25              		.cfi_def_cfa 2, 16
  26 0010 13010101 		addi	sp,sp,16
  27              		.cfi_def_cfa_offset 0
  28 0014 67800000 		jr	ra
  29              		.cfi_endproc
  30              	.LFE13:
  32              		.text
  33              		.align	2
  34              		.globl	_ZN6ThreadD2Ev
  36              	_ZN6ThreadD2Ev:
GAS LISTING /tmp/cc0wmPoy.s 			page 2


  37              	.LFB27:
  38              		.file 2 "src/syscall_cpp.cpp"
   1:src/syscall_cpp.cpp **** //
   2:src/syscall_cpp.cpp **** // Created by os on 10/15/25.
   3:src/syscall_cpp.cpp **** //
   4:src/syscall_cpp.cpp **** 
   5:src/syscall_cpp.cpp **** #include "../h/syscall_cpp.hpp"
   6:src/syscall_cpp.cpp **** 
   7:src/syscall_cpp.cpp **** void* operator new(size_t size) {
   8:src/syscall_cpp.cpp ****     return mem_alloc(size);
   9:src/syscall_cpp.cpp **** }
  10:src/syscall_cpp.cpp **** 
  11:src/syscall_cpp.cpp **** void operator delete(void* ptr) {
  12:src/syscall_cpp.cpp ****     mem_free(ptr);
  13:src/syscall_cpp.cpp **** }
  14:src/syscall_cpp.cpp **** 
  15:src/syscall_cpp.cpp **** void* operator new[](size_t size) {
  16:src/syscall_cpp.cpp ****     return mem_alloc(size);
  17:src/syscall_cpp.cpp **** }
  18:src/syscall_cpp.cpp **** 
  19:src/syscall_cpp.cpp **** void operator delete[](void* ptr) {
  20:src/syscall_cpp.cpp ****     mem_free(ptr);
  21:src/syscall_cpp.cpp **** }
  22:src/syscall_cpp.cpp **** 
  23:src/syscall_cpp.cpp **** void Thread::wrapper(void* arg) {
  24:src/syscall_cpp.cpp ****     Thread* thread = (Thread*)arg;
  25:src/syscall_cpp.cpp ****     thread->run();
  26:src/syscall_cpp.cpp ****     thread_exit();
  27:src/syscall_cpp.cpp **** }
  28:src/syscall_cpp.cpp **** 
  29:src/syscall_cpp.cpp **** Thread::Thread(void (*body)(void*), void* arg)
  30:src/syscall_cpp.cpp ****     : myHandle(nullptr), body(body), arg(arg) {}
  31:src/syscall_cpp.cpp **** 
  32:src/syscall_cpp.cpp **** Thread::Thread()
  33:src/syscall_cpp.cpp ****     : myHandle(nullptr), body(nullptr), arg(nullptr) {}
  34:src/syscall_cpp.cpp **** 
  35:src/syscall_cpp.cpp **** Thread::~Thread() {
  39              		.loc 2 35 1 is_stmt 1
  40              		.cfi_startproc
  41              		.cfi_personality 0x9b,DW.ref.__gxx_personality_v0
  42              		.cfi_lsda 0x1b,.LLSDA27
  43              	.LVL1:
  44              	.LBB2:
  45              		.loc 2 35 17 is_stmt 0
  46 0000 97070000 		lla	a5,_ZTV6Thread+16
  46      93870700 
  47 0008 2330F500 		sd	a5,0(a0)
  36:src/syscall_cpp.cpp ****     if (myHandle) {
  48              		.loc 2 36 5 is_stmt 1
  49              		.loc 2 36 9 is_stmt 0
  50 000c 03358500 		ld	a0,8(a0)
  51              	.LVL2:
  52              		.loc 2 36 5
  53 0010 63060502 		beqz	a0,.L6
  54              	.LBE2:
  35:src/syscall_cpp.cpp ****     if (myHandle) {
  55              		.loc 2 35 1
GAS LISTING /tmp/cc0wmPoy.s 			page 3


  56 0014 130101FF 		addi	sp,sp,-16
  57              		.cfi_def_cfa_offset 16
  58 0018 23341100 		sd	ra,8(sp)
  59 001c 23308100 		sd	s0,0(sp)
  60              		.cfi_offset 1, -8
  61              		.cfi_offset 8, -16
  62 0020 13040101 		addi	s0,sp,16
  63              		.cfi_def_cfa 8, 0
  64              	.LBB3:
  37:src/syscall_cpp.cpp ****         mem_free(myHandle);
  65              		.loc 2 37 9 is_stmt 1
  66              		.loc 2 37 17 is_stmt 0
  67 0024 97000000 		call	_Z8mem_freePv@plt
  67      E7800000 
  68              	.LVL3:
  38:src/syscall_cpp.cpp ****         myHandle = nullptr;
  69              		.loc 2 38 9 is_stmt 1
  70              	.LBE3:
  39:src/syscall_cpp.cpp ****     }
  40:src/syscall_cpp.cpp **** }
  71              		.loc 2 40 1 is_stmt 0
  72 002c 83308100 		ld	ra,8(sp)
  73              		.cfi_restore 1
  74 0030 03340100 		ld	s0,0(sp)
  75              		.cfi_restore 8
  76              		.cfi_def_cfa 2, 16
  77 0034 13010101 		addi	sp,sp,16
  78              		.cfi_def_cfa_offset 0
  79 0038 67800000 		jr	ra
  80              	.L6:
  81 003c 67800000 		ret
  82              		.cfi_endproc
  83              	.LFE27:
  84              		.globl	__gxx_personality_v0
  85              		.section	.gcc_except_table,"a",@progbits
  86              	.LLSDA27:
  87 0000 FF       		.byte	0xff
  88 0001 FF       		.byte	0xff
  89 0002 03       		.byte	0x3
  90 0003 00       		.byte	0
  91              		.text
  93              		.globl	_ZN6ThreadD1Ev
  94              		.set	_ZN6ThreadD1Ev,_ZN6ThreadD2Ev
  95              		.align	2
  96              		.globl	_ZN6Thread7wrapperEPv
  98              	_ZN6Thread7wrapperEPv:
  99              	.LFB19:
  23:src/syscall_cpp.cpp ****     Thread* thread = (Thread*)arg;
 100              		.loc 2 23 33 is_stmt 1
 101              		.cfi_startproc
 102              	.LVL4:
 103 0040 130101FF 		addi	sp,sp,-16
 104              		.cfi_def_cfa_offset 16
 105 0044 23341100 		sd	ra,8(sp)
 106 0048 23308100 		sd	s0,0(sp)
 107              		.cfi_offset 1, -8
 108              		.cfi_offset 8, -16
GAS LISTING /tmp/cc0wmPoy.s 			page 4


 109 004c 13040101 		addi	s0,sp,16
 110              		.cfi_def_cfa 8, 0
  24:src/syscall_cpp.cpp ****     thread->run();
 111              		.loc 2 24 5
 112              	.LVL5:
  25:src/syscall_cpp.cpp ****     thread_exit();
 113              		.loc 2 25 5
  25:src/syscall_cpp.cpp ****     thread_exit();
 114              		.loc 2 25 17 is_stmt 0
 115 0050 83370500 		ld	a5,0(a0)
 116 0054 83B70701 		ld	a5,16(a5)
  25:src/syscall_cpp.cpp ****     thread_exit();
 117              		.loc 2 25 16
 118 0058 E7800700 		jalr	a5
 119              	.LVL6:
  26:src/syscall_cpp.cpp **** }
 120              		.loc 2 26 5 is_stmt 1
  26:src/syscall_cpp.cpp **** }
 121              		.loc 2 26 16 is_stmt 0
 122 005c 97000000 		call	_Z11thread_exitv@plt
 122      E7800000 
 123              	.LVL7:
  27:src/syscall_cpp.cpp **** 
 124              		.loc 2 27 1
 125 0064 83308100 		ld	ra,8(sp)
 126              		.cfi_restore 1
 127 0068 03340100 		ld	s0,0(sp)
 128              		.cfi_restore 8
 129              		.cfi_def_cfa 2, 16
 130 006c 13010101 		addi	sp,sp,16
 131              		.cfi_def_cfa_offset 0
 132 0070 67800000 		jr	ra
 133              		.cfi_endproc
 134              	.LFE19:
 136              		.align	2
 137              		.globl	_ZN9SemaphoreD2Ev
 139              	_ZN9SemaphoreD2Ev:
 140              	.LFB36:
  41:src/syscall_cpp.cpp **** 
  42:src/syscall_cpp.cpp **** int Thread::start() {
  43:src/syscall_cpp.cpp ****     if (body != nullptr) {
  44:src/syscall_cpp.cpp ****         return thread_create(&myHandle, body, arg);
  45:src/syscall_cpp.cpp ****     }
  46:src/syscall_cpp.cpp **** 
  47:src/syscall_cpp.cpp ****     return thread_create(&myHandle, wrapper, this);
  48:src/syscall_cpp.cpp **** }
  49:src/syscall_cpp.cpp **** 
  50:src/syscall_cpp.cpp **** void Thread::dispatch() {
  51:src/syscall_cpp.cpp ****     thread_dispatch();
  52:src/syscall_cpp.cpp **** }
  53:src/syscall_cpp.cpp **** 
  54:src/syscall_cpp.cpp **** 
  55:src/syscall_cpp.cpp **** Semaphore::Semaphore(unsigned init) {
  56:src/syscall_cpp.cpp ****     sem_open(&myHandle, init);
  57:src/syscall_cpp.cpp **** }
  58:src/syscall_cpp.cpp **** 
  59:src/syscall_cpp.cpp **** Semaphore::~Semaphore() {
GAS LISTING /tmp/cc0wmPoy.s 			page 5


 141              		.loc 2 59 1 is_stmt 1
 142              		.cfi_startproc
 143              		.cfi_personality 0x9b,DW.ref.__gxx_personality_v0
 144              		.cfi_lsda 0x1b,.LLSDA36
 145              	.LVL8:
 146 0074 130101FF 		addi	sp,sp,-16
 147              		.cfi_def_cfa_offset 16
 148 0078 23341100 		sd	ra,8(sp)
 149 007c 23308100 		sd	s0,0(sp)
 150              		.cfi_offset 1, -8
 151              		.cfi_offset 8, -16
 152 0080 13040101 		addi	s0,sp,16
 153              		.cfi_def_cfa 8, 0
 154              	.LBB4:
 155              		.loc 2 59 23 is_stmt 0
 156 0084 97070000 		lla	a5,_ZTV9Semaphore+16
 156      93870700 
 157 008c 2330F500 		sd	a5,0(a0)
  60:src/syscall_cpp.cpp ****     sem_close(myHandle);
 158              		.loc 2 60 5 is_stmt 1
 159              		.loc 2 60 14 is_stmt 0
 160 0090 03358500 		ld	a0,8(a0)
 161              	.LVL9:
 162 0094 97000000 		call	_Z9sem_closeP10KSemaphore@plt
 162      E7800000 
 163              	.LVL10:
 164              	.LBE4:
  61:src/syscall_cpp.cpp **** }
 165              		.loc 2 61 1
 166 009c 83308100 		ld	ra,8(sp)
 167              		.cfi_restore 1
 168 00a0 03340100 		ld	s0,0(sp)
 169              		.cfi_restore 8
 170              		.cfi_def_cfa 2, 16
 171 00a4 13010101 		addi	sp,sp,16
 172              		.cfi_def_cfa_offset 0
 173 00a8 67800000 		jr	ra
 174              		.cfi_endproc
 175              	.LFE36:
 176              		.section	.gcc_except_table
 177              	.LLSDA36:
 178 0004 FF       		.byte	0xff
 179 0005 FF       		.byte	0xff
 180 0006 03       		.byte	0x3
 181 0007 00       		.byte	0
 182              		.text
 184              		.globl	_ZN9SemaphoreD1Ev
 185              		.set	_ZN9SemaphoreD1Ev,_ZN9SemaphoreD2Ev
 186              		.align	2
 187              		.globl	_Znwm
 189              	_Znwm:
 190              	.LFB15:
   7:src/syscall_cpp.cpp ****     return mem_alloc(size);
 191              		.loc 2 7 33 is_stmt 1
 192              		.cfi_startproc
 193              	.LVL11:
 194 00ac 130101FF 		addi	sp,sp,-16
GAS LISTING /tmp/cc0wmPoy.s 			page 6


 195              		.cfi_def_cfa_offset 16
 196 00b0 23341100 		sd	ra,8(sp)
 197 00b4 23308100 		sd	s0,0(sp)
 198              		.cfi_offset 1, -8
 199              		.cfi_offset 8, -16
 200 00b8 13040101 		addi	s0,sp,16
 201              		.cfi_def_cfa 8, 0
   8:src/syscall_cpp.cpp **** }
 202              		.loc 2 8 5
   8:src/syscall_cpp.cpp **** }
 203              		.loc 2 8 21 is_stmt 0
 204 00bc 97000000 		call	_Z9mem_allocm@plt
 204      E7800000 
 205              	.LVL12:
   9:src/syscall_cpp.cpp **** 
 206              		.loc 2 9 1
 207 00c4 83308100 		ld	ra,8(sp)
 208              		.cfi_restore 1
 209 00c8 03340100 		ld	s0,0(sp)
 210              		.cfi_restore 8
 211              		.cfi_def_cfa 2, 16
 212 00cc 13010101 		addi	sp,sp,16
 213              		.cfi_def_cfa_offset 0
 214 00d0 67800000 		jr	ra
 215              		.cfi_endproc
 216              	.LFE15:
 218              		.align	2
 219              		.globl	_ZdlPv
 221              	_ZdlPv:
 222              	.LFB16:
  11:src/syscall_cpp.cpp ****     mem_free(ptr);
 223              		.loc 2 11 33 is_stmt 1
 224              		.cfi_startproc
 225              	.LVL13:
 226 00d4 130101FF 		addi	sp,sp,-16
 227              		.cfi_def_cfa_offset 16
 228 00d8 23341100 		sd	ra,8(sp)
 229 00dc 23308100 		sd	s0,0(sp)
 230              		.cfi_offset 1, -8
 231              		.cfi_offset 8, -16
 232 00e0 13040101 		addi	s0,sp,16
 233              		.cfi_def_cfa 8, 0
  12:src/syscall_cpp.cpp **** }
 234              		.loc 2 12 5
  12:src/syscall_cpp.cpp **** }
 235              		.loc 2 12 13 is_stmt 0
 236 00e4 97000000 		call	_Z8mem_freePv@plt
 236      E7800000 
 237              	.LVL14:
  13:src/syscall_cpp.cpp **** 
 238              		.loc 2 13 1
 239 00ec 83308100 		ld	ra,8(sp)
 240              		.cfi_restore 1
 241 00f0 03340100 		ld	s0,0(sp)
 242              		.cfi_restore 8
 243              		.cfi_def_cfa 2, 16
 244 00f4 13010101 		addi	sp,sp,16
GAS LISTING /tmp/cc0wmPoy.s 			page 7


 245              		.cfi_def_cfa_offset 0
 246 00f8 67800000 		jr	ra
 247              		.cfi_endproc
 248              	.LFE16:
 250              		.align	2
 251              		.globl	_ZN6ThreadD0Ev
 253              	_ZN6ThreadD0Ev:
 254              	.LFB29:
  35:src/syscall_cpp.cpp ****     if (myHandle) {
 255              		.loc 2 35 1 is_stmt 1
 256              		.cfi_startproc
 257              	.LVL15:
 258 00fc 130101FE 		addi	sp,sp,-32
 259              		.cfi_def_cfa_offset 32
 260 0100 233C1100 		sd	ra,24(sp)
 261 0104 23388100 		sd	s0,16(sp)
 262 0108 23349100 		sd	s1,8(sp)
 263              		.cfi_offset 1, -8
 264              		.cfi_offset 8, -16
 265              		.cfi_offset 9, -24
 266 010c 13040102 		addi	s0,sp,32
 267              		.cfi_def_cfa 8, 0
 268 0110 93040500 		mv	s1,a0
  40:src/syscall_cpp.cpp **** 
 269              		.loc 2 40 1 is_stmt 0
 270 0114 97000000 		call	_ZN6ThreadD1Ev
 270      E7800000 
 271              	.LVL16:
 272 011c 13850400 		mv	a0,s1
 273 0120 97000000 		call	_ZdlPv
 273      E7800000 
 274              	.LVL17:
 275 0128 83308101 		ld	ra,24(sp)
 276              		.cfi_restore 1
 277 012c 03340101 		ld	s0,16(sp)
 278              		.cfi_restore 8
 279              		.cfi_def_cfa 2, 32
 280 0130 83348100 		ld	s1,8(sp)
 281              		.cfi_restore 9
 282              	.LVL18:
 283 0134 13010102 		addi	sp,sp,32
 284              		.cfi_def_cfa_offset 0
 285 0138 67800000 		jr	ra
 286              		.cfi_endproc
 287              	.LFE29:
 289              		.align	2
 290              		.globl	_ZN9SemaphoreD0Ev
 292              	_ZN9SemaphoreD0Ev:
 293              	.LFB38:
  59:src/syscall_cpp.cpp ****     sem_close(myHandle);
 294              		.loc 2 59 1 is_stmt 1
 295              		.cfi_startproc
 296              	.LVL19:
 297 013c 130101FE 		addi	sp,sp,-32
 298              		.cfi_def_cfa_offset 32
 299 0140 233C1100 		sd	ra,24(sp)
 300 0144 23388100 		sd	s0,16(sp)
GAS LISTING /tmp/cc0wmPoy.s 			page 8


 301 0148 23349100 		sd	s1,8(sp)
 302              		.cfi_offset 1, -8
 303              		.cfi_offset 8, -16
 304              		.cfi_offset 9, -24
 305 014c 13040102 		addi	s0,sp,32
 306              		.cfi_def_cfa 8, 0
 307 0150 93040500 		mv	s1,a0
 308              		.loc 2 61 1 is_stmt 0
 309 0154 97000000 		call	_ZN9SemaphoreD1Ev
 309      E7800000 
 310              	.LVL20:
 311 015c 13850400 		mv	a0,s1
 312 0160 97000000 		call	_ZdlPv
 312      E7800000 
 313              	.LVL21:
 314 0168 83308101 		ld	ra,24(sp)
 315              		.cfi_restore 1
 316 016c 03340101 		ld	s0,16(sp)
 317              		.cfi_restore 8
 318              		.cfi_def_cfa 2, 32
 319 0170 83348100 		ld	s1,8(sp)
 320              		.cfi_restore 9
 321              	.LVL22:
 322 0174 13010102 		addi	sp,sp,32
 323              		.cfi_def_cfa_offset 0
 324 0178 67800000 		jr	ra
 325              		.cfi_endproc
 326              	.LFE38:
 328              		.align	2
 329              		.globl	_Znam
 331              	_Znam:
 332              	.LFB17:
  15:src/syscall_cpp.cpp ****     return mem_alloc(size);
 333              		.loc 2 15 35 is_stmt 1
 334              		.cfi_startproc
 335              	.LVL23:
 336 017c 130101FF 		addi	sp,sp,-16
 337              		.cfi_def_cfa_offset 16
 338 0180 23341100 		sd	ra,8(sp)
 339 0184 23308100 		sd	s0,0(sp)
 340              		.cfi_offset 1, -8
 341              		.cfi_offset 8, -16
 342 0188 13040101 		addi	s0,sp,16
 343              		.cfi_def_cfa 8, 0
  16:src/syscall_cpp.cpp **** }
 344              		.loc 2 16 5
  16:src/syscall_cpp.cpp **** }
 345              		.loc 2 16 21 is_stmt 0
 346 018c 97000000 		call	_Z9mem_allocm@plt
 346      E7800000 
 347              	.LVL24:
  17:src/syscall_cpp.cpp **** 
 348              		.loc 2 17 1
 349 0194 83308100 		ld	ra,8(sp)
 350              		.cfi_restore 1
 351 0198 03340100 		ld	s0,0(sp)
 352              		.cfi_restore 8
GAS LISTING /tmp/cc0wmPoy.s 			page 9


 353              		.cfi_def_cfa 2, 16
 354 019c 13010101 		addi	sp,sp,16
 355              		.cfi_def_cfa_offset 0
 356 01a0 67800000 		jr	ra
 357              		.cfi_endproc
 358              	.LFE17:
 360              		.align	2
 361              		.globl	_ZdaPv
 363              	_ZdaPv:
 364              	.LFB18:
  19:src/syscall_cpp.cpp ****     mem_free(ptr);
 365              		.loc 2 19 35 is_stmt 1
 366              		.cfi_startproc
 367              	.LVL25:
 368 01a4 130101FF 		addi	sp,sp,-16
 369              		.cfi_def_cfa_offset 16
 370 01a8 23341100 		sd	ra,8(sp)
 371 01ac 23308100 		sd	s0,0(sp)
 372              		.cfi_offset 1, -8
 373              		.cfi_offset 8, -16
 374 01b0 13040101 		addi	s0,sp,16
 375              		.cfi_def_cfa 8, 0
  20:src/syscall_cpp.cpp **** }
 376              		.loc 2 20 5
  20:src/syscall_cpp.cpp **** }
 377              		.loc 2 20 13 is_stmt 0
 378 01b4 97000000 		call	_Z8mem_freePv@plt
 378      E7800000 
 379              	.LVL26:
  21:src/syscall_cpp.cpp **** 
 380              		.loc 2 21 1
 381 01bc 83308100 		ld	ra,8(sp)
 382              		.cfi_restore 1
 383 01c0 03340100 		ld	s0,0(sp)
 384              		.cfi_restore 8
 385              		.cfi_def_cfa 2, 16
 386 01c4 13010101 		addi	sp,sp,16
 387              		.cfi_def_cfa_offset 0
 388 01c8 67800000 		jr	ra
 389              		.cfi_endproc
 390              	.LFE18:
 392              		.align	2
 393              		.globl	_ZN6ThreadC2EPFvPvES0_
 395              	_ZN6ThreadC2EPFvPvES0_:
 396              	.LFB21:
  29:src/syscall_cpp.cpp ****     : myHandle(nullptr), body(body), arg(arg) {}
 397              		.loc 2 29 1 is_stmt 1
 398              		.cfi_startproc
 399              	.LVL27:
 400 01cc 130101FF 		addi	sp,sp,-16
 401              		.cfi_def_cfa_offset 16
 402 01d0 23348100 		sd	s0,8(sp)
 403              		.cfi_offset 8, -8
 404 01d4 13040101 		addi	s0,sp,16
 405              		.cfi_def_cfa 8, 0
 406              	.LBB5:
  30:src/syscall_cpp.cpp **** 
GAS LISTING /tmp/cc0wmPoy.s 			page 10


 407              		.loc 2 30 45 is_stmt 0
 408 01d8 97070000 		lla	a5,_ZTV6Thread+16
 408      93870700 
 409 01e0 2330F500 		sd	a5,0(a0)
 410 01e4 23340500 		sd	zero,8(a0)
 411 01e8 2338B500 		sd	a1,16(a0)
 412 01ec 233CC500 		sd	a2,24(a0)
 413              	.LBE5:
  30:src/syscall_cpp.cpp **** 
 414              		.loc 2 30 48
 415 01f0 03348100 		ld	s0,8(sp)
 416              		.cfi_restore 8
 417              		.cfi_def_cfa 2, 16
 418 01f4 13010101 		addi	sp,sp,16
 419              		.cfi_def_cfa_offset 0
 420 01f8 67800000 		jr	ra
 421              		.cfi_endproc
 422              	.LFE21:
 424              		.globl	_ZN6ThreadC1EPFvPvES0_
 425              		.set	_ZN6ThreadC1EPFvPvES0_,_ZN6ThreadC2EPFvPvES0_
 426              		.align	2
 427              		.globl	_ZN6ThreadC2Ev
 429              	_ZN6ThreadC2Ev:
 430              	.LFB24:
  32:src/syscall_cpp.cpp ****     : myHandle(nullptr), body(nullptr), arg(nullptr) {}
 431              		.loc 2 32 1 is_stmt 1
 432              		.cfi_startproc
 433              	.LVL28:
 434 01fc 130101FF 		addi	sp,sp,-16
 435              		.cfi_def_cfa_offset 16
 436 0200 23348100 		sd	s0,8(sp)
 437              		.cfi_offset 8, -8
 438 0204 13040101 		addi	s0,sp,16
 439              		.cfi_def_cfa 8, 0
 440              	.LBB6:
  33:src/syscall_cpp.cpp **** 
 441              		.loc 2 33 52 is_stmt 0
 442 0208 97070000 		lla	a5,_ZTV6Thread+16
 442      93870700 
 443 0210 2330F500 		sd	a5,0(a0)
 444 0214 23340500 		sd	zero,8(a0)
 445 0218 23380500 		sd	zero,16(a0)
 446 021c 233C0500 		sd	zero,24(a0)
 447              	.LBE6:
  33:src/syscall_cpp.cpp **** 
 448              		.loc 2 33 55
 449 0220 03348100 		ld	s0,8(sp)
 450              		.cfi_restore 8
 451              		.cfi_def_cfa 2, 16
 452 0224 13010101 		addi	sp,sp,16
 453              		.cfi_def_cfa_offset 0
 454 0228 67800000 		jr	ra
 455              		.cfi_endproc
 456              	.LFE24:
 458              		.globl	_ZN6ThreadC1Ev
 459              		.set	_ZN6ThreadC1Ev,_ZN6ThreadC2Ev
 460              		.align	2
GAS LISTING /tmp/cc0wmPoy.s 			page 11


 461              		.globl	_ZN6Thread5startEv
 463              	_ZN6Thread5startEv:
 464              	.LFB30:
  42:src/syscall_cpp.cpp ****     if (body != nullptr) {
 465              		.loc 2 42 21 is_stmt 1
 466              		.cfi_startproc
 467              	.LVL29:
 468 022c 130101FF 		addi	sp,sp,-16
 469              		.cfi_def_cfa_offset 16
 470 0230 23341100 		sd	ra,8(sp)
 471 0234 23308100 		sd	s0,0(sp)
 472              		.cfi_offset 1, -8
 473              		.cfi_offset 8, -16
 474 0238 13040101 		addi	s0,sp,16
 475              		.cfi_def_cfa 8, 0
  43:src/syscall_cpp.cpp ****         return thread_create(&myHandle, body, arg);
 476              		.loc 2 43 5
  43:src/syscall_cpp.cpp ****         return thread_create(&myHandle, body, arg);
 477              		.loc 2 43 9 is_stmt 0
 478 023c 83350501 		ld	a1,16(a0)
  43:src/syscall_cpp.cpp ****         return thread_create(&myHandle, body, arg);
 479              		.loc 2 43 5
 480 0240 63820502 		beqz	a1,.L30
  44:src/syscall_cpp.cpp ****     }
 481              		.loc 2 44 9 is_stmt 1
  44:src/syscall_cpp.cpp ****     }
 482              		.loc 2 44 29 is_stmt 0
 483 0244 03368501 		ld	a2,24(a0)
 484 0248 13058500 		addi	a0,a0,8
 485              	.LVL30:
 486 024c 97000000 		call	_Z13thread_createPP7KThreadPFvPvES2_@plt
 486      E7800000 
 487              	.LVL31:
 488              	.L31:
  48:src/syscall_cpp.cpp **** 
 489              		.loc 2 48 1
 490 0254 83308100 		ld	ra,8(sp)
 491              		.cfi_remember_state
 492              		.cfi_restore 1
 493 0258 03340100 		ld	s0,0(sp)
 494              		.cfi_restore 8
 495              		.cfi_def_cfa 2, 16
 496 025c 13010101 		addi	sp,sp,16
 497              		.cfi_def_cfa_offset 0
 498 0260 67800000 		jr	ra
 499              	.LVL32:
 500              	.L30:
 501              		.cfi_restore_state
  47:src/syscall_cpp.cpp **** }
 502              		.loc 2 47 5 is_stmt 1
  47:src/syscall_cpp.cpp **** }
 503              		.loc 2 47 25 is_stmt 0
 504 0264 13060500 		mv	a2,a0
 505 0268 97050000 		lla	a1,_ZN6Thread7wrapperEPv
 505      93850500 
 506 0270 13058500 		addi	a0,a0,8
 507              	.LVL33:
GAS LISTING /tmp/cc0wmPoy.s 			page 12


 508 0274 97000000 		call	_Z13thread_createPP7KThreadPFvPvES2_@plt
 508      E7800000 
 509              	.LVL34:
  47:src/syscall_cpp.cpp **** }
 510              		.loc 2 47 50
 511 027c 6FF09FFD 		j	.L31
 512              		.cfi_endproc
 513              	.LFE30:
 515              		.align	2
 516              		.globl	_ZN6Thread8dispatchEv
 518              	_ZN6Thread8dispatchEv:
 519              	.LFB31:
  50:src/syscall_cpp.cpp ****     thread_dispatch();
 520              		.loc 2 50 25 is_stmt 1
 521              		.cfi_startproc
 522 0280 130101FF 		addi	sp,sp,-16
 523              		.cfi_def_cfa_offset 16
 524 0284 23341100 		sd	ra,8(sp)
 525 0288 23308100 		sd	s0,0(sp)
 526              		.cfi_offset 1, -8
 527              		.cfi_offset 8, -16
 528 028c 13040101 		addi	s0,sp,16
 529              		.cfi_def_cfa 8, 0
  51:src/syscall_cpp.cpp **** }
 530              		.loc 2 51 5
  51:src/syscall_cpp.cpp **** }
 531              		.loc 2 51 20 is_stmt 0
 532 0290 97000000 		call	_Z15thread_dispatchv@plt
 532      E7800000 
 533              	.LVL35:
  52:src/syscall_cpp.cpp **** 
 534              		.loc 2 52 1
 535 0298 83308100 		ld	ra,8(sp)
 536              		.cfi_restore 1
 537 029c 03340100 		ld	s0,0(sp)
 538              		.cfi_restore 8
 539              		.cfi_def_cfa 2, 16
 540 02a0 13010101 		addi	sp,sp,16
 541              		.cfi_def_cfa_offset 0
 542 02a4 67800000 		jr	ra
 543              		.cfi_endproc
 544              	.LFE31:
 546              		.align	2
 547              		.globl	_ZN9SemaphoreC2Ej
 549              	_ZN9SemaphoreC2Ej:
 550              	.LFB33:
  55:src/syscall_cpp.cpp ****     sem_open(&myHandle, init);
 551              		.loc 2 55 1 is_stmt 1
 552              		.cfi_startproc
 553              	.LVL36:
 554 02a8 130101FF 		addi	sp,sp,-16
 555              		.cfi_def_cfa_offset 16
 556 02ac 23341100 		sd	ra,8(sp)
 557 02b0 23308100 		sd	s0,0(sp)
 558              		.cfi_offset 1, -8
 559              		.cfi_offset 8, -16
 560 02b4 13040101 		addi	s0,sp,16
GAS LISTING /tmp/cc0wmPoy.s 			page 13


 561              		.cfi_def_cfa 8, 0
 562              	.LBB7:
  55:src/syscall_cpp.cpp ****     sem_open(&myHandle, init);
 563              		.loc 2 55 35 is_stmt 0
 564 02b8 97070000 		lla	a5,_ZTV9Semaphore+16
 564      93870700 
 565 02c0 2330F500 		sd	a5,0(a0)
  56:src/syscall_cpp.cpp **** }
 566              		.loc 2 56 5 is_stmt 1
  56:src/syscall_cpp.cpp **** }
 567              		.loc 2 56 13 is_stmt 0
 568 02c4 13058500 		addi	a0,a0,8
 569              	.LVL37:
 570 02c8 97000000 		call	_Z8sem_openPP10KSemaphorej@plt
 570      E7800000 
 571              	.LVL38:
 572              	.LBE7:
  57:src/syscall_cpp.cpp **** 
 573              		.loc 2 57 1
 574 02d0 83308100 		ld	ra,8(sp)
 575              		.cfi_restore 1
 576 02d4 03340100 		ld	s0,0(sp)
 577              		.cfi_restore 8
 578              		.cfi_def_cfa 2, 16
 579 02d8 13010101 		addi	sp,sp,16
 580              		.cfi_def_cfa_offset 0
 581 02dc 67800000 		jr	ra
 582              		.cfi_endproc
 583              	.LFE33:
 585              		.globl	_ZN9SemaphoreC1Ej
 586              		.set	_ZN9SemaphoreC1Ej,_ZN9SemaphoreC2Ej
 587              		.align	2
 588              		.globl	_ZN9Semaphore4waitEv
 590              	_ZN9Semaphore4waitEv:
 591              	.LFB39:
  62:src/syscall_cpp.cpp **** 
  63:src/syscall_cpp.cpp **** int Semaphore::wait() {
 592              		.loc 2 63 23 is_stmt 1
 593              		.cfi_startproc
 594              	.LVL39:
 595 02e0 130101FF 		addi	sp,sp,-16
 596              		.cfi_def_cfa_offset 16
 597 02e4 23341100 		sd	ra,8(sp)
 598 02e8 23308100 		sd	s0,0(sp)
 599              		.cfi_offset 1, -8
 600              		.cfi_offset 8, -16
 601 02ec 13040101 		addi	s0,sp,16
 602              		.cfi_def_cfa 8, 0
  64:src/syscall_cpp.cpp ****     return sem_wait(myHandle);
 603              		.loc 2 64 5
 604              		.loc 2 64 20 is_stmt 0
 605 02f0 03358500 		ld	a0,8(a0)
 606              	.LVL40:
 607 02f4 97000000 		call	_Z8sem_waitP10KSemaphore@plt
 607      E7800000 
 608              	.LVL41:
  65:src/syscall_cpp.cpp **** }
GAS LISTING /tmp/cc0wmPoy.s 			page 14


 609              		.loc 2 65 1
 610 02fc 83308100 		ld	ra,8(sp)
 611              		.cfi_restore 1
 612 0300 03340100 		ld	s0,0(sp)
 613              		.cfi_restore 8
 614              		.cfi_def_cfa 2, 16
 615 0304 13010101 		addi	sp,sp,16
 616              		.cfi_def_cfa_offset 0
 617 0308 67800000 		jr	ra
 618              		.cfi_endproc
 619              	.LFE39:
 621              		.align	2
 622              		.globl	_ZN9Semaphore6signalEv
 624              	_ZN9Semaphore6signalEv:
 625              	.LFB40:
  66:src/syscall_cpp.cpp **** 
  67:src/syscall_cpp.cpp **** int Semaphore::signal() {
 626              		.loc 2 67 25 is_stmt 1
 627              		.cfi_startproc
 628              	.LVL42:
 629 030c 130101FF 		addi	sp,sp,-16
 630              		.cfi_def_cfa_offset 16
 631 0310 23341100 		sd	ra,8(sp)
 632 0314 23308100 		sd	s0,0(sp)
 633              		.cfi_offset 1, -8
 634              		.cfi_offset 8, -16
 635 0318 13040101 		addi	s0,sp,16
 636              		.cfi_def_cfa 8, 0
  68:src/syscall_cpp.cpp ****     return sem_signal(myHandle);
 637              		.loc 2 68 5
 638              		.loc 2 68 22 is_stmt 0
 639 031c 03358500 		ld	a0,8(a0)
 640              	.LVL43:
 641 0320 97000000 		call	_Z10sem_signalP10KSemaphore@plt
 641      E7800000 
 642              	.LVL44:
  69:src/syscall_cpp.cpp **** }
 643              		.loc 2 69 1
 644 0328 83308100 		ld	ra,8(sp)
 645              		.cfi_restore 1
 646 032c 03340100 		ld	s0,0(sp)
 647              		.cfi_restore 8
 648              		.cfi_def_cfa 2, 16
 649 0330 13010101 		addi	sp,sp,16
 650              		.cfi_def_cfa_offset 0
 651 0334 67800000 		jr	ra
 652              		.cfi_endproc
 653              	.LFE40:
 655              		.align	2
 656              		.globl	_ZN7Console4getcEv
 658              	_ZN7Console4getcEv:
 659              	.LFB41:
  70:src/syscall_cpp.cpp **** 
  71:src/syscall_cpp.cpp **** char Console::getc() {
 660              		.loc 2 71 22 is_stmt 1
 661              		.cfi_startproc
 662 0338 130101FF 		addi	sp,sp,-16
GAS LISTING /tmp/cc0wmPoy.s 			page 15


 663              		.cfi_def_cfa_offset 16
 664 033c 23341100 		sd	ra,8(sp)
 665 0340 23308100 		sd	s0,0(sp)
 666              		.cfi_offset 1, -8
 667              		.cfi_offset 8, -16
 668 0344 13040101 		addi	s0,sp,16
 669              		.cfi_def_cfa 8, 0
  72:src/syscall_cpp.cpp ****     return ::getc();
 670              		.loc 2 72 5
 671              		.loc 2 72 18 is_stmt 0
 672 0348 97000000 		call	_Z4getcv@plt
 672      E7800000 
 673              	.LVL45:
  73:src/syscall_cpp.cpp **** }
 674              		.loc 2 73 1
 675 0350 83308100 		ld	ra,8(sp)
 676              		.cfi_restore 1
 677 0354 03340100 		ld	s0,0(sp)
 678              		.cfi_restore 8
 679              		.cfi_def_cfa 2, 16
 680 0358 13010101 		addi	sp,sp,16
 681              		.cfi_def_cfa_offset 0
 682 035c 67800000 		jr	ra
 683              		.cfi_endproc
 684              	.LFE41:
 686              		.align	2
 687              		.globl	_ZN7Console4putcEc
 689              	_ZN7Console4putcEc:
 690              	.LFB42:
  74:src/syscall_cpp.cpp **** 
  75:src/syscall_cpp.cpp **** void Console::putc(char c) {
 691              		.loc 2 75 28 is_stmt 1
 692              		.cfi_startproc
 693              	.LVL46:
 694 0360 130101FF 		addi	sp,sp,-16
 695              		.cfi_def_cfa_offset 16
 696 0364 23341100 		sd	ra,8(sp)
 697 0368 23308100 		sd	s0,0(sp)
 698              		.cfi_offset 1, -8
 699              		.cfi_offset 8, -16
 700 036c 13040101 		addi	s0,sp,16
 701              		.cfi_def_cfa 8, 0
  76:src/syscall_cpp.cpp ****     ::putc(c);
 702              		.loc 2 76 5
 703              		.loc 2 76 11 is_stmt 0
 704 0370 97000000 		call	_Z4putcc@plt
 704      E7800000 
 705              	.LVL47:
  77:src/syscall_cpp.cpp **** }...
 706              		.loc 2 77 1
 707 0378 83308100 		ld	ra,8(sp)
 708              		.cfi_restore 1
 709 037c 03340100 		ld	s0,0(sp)
 710              		.cfi_restore 8
 711              		.cfi_def_cfa 2, 16
 712 0380 13010101 		addi	sp,sp,16
 713              		.cfi_def_cfa_offset 0
GAS LISTING /tmp/cc0wmPoy.s 			page 16


 714 0384 67800000 		jr	ra
 715              		.cfi_endproc
 716              	.LFE42:
 718              		.weak	_ZTV6Thread
 719              		.section	.data.rel.ro.local._ZTV6Thread,"awG",@progbits,_ZTV6Thread,comdat
 720              		.align	3
 723              	_ZTV6Thread:
 724 0000 00000000 		.dword	0
 724      00000000 
 725 0008 00000000 		.dword	0
 725      00000000 
 726 0010 00000000 		.dword	_ZN6ThreadD1Ev
 726      00000000 
 727 0018 00000000 		.dword	_ZN6ThreadD0Ev
 727      00000000 
 728 0020 00000000 		.dword	_ZN6Thread3runEv
 728      00000000 
 729              		.weak	_ZTV9Semaphore
 730              		.section	.data.rel.ro.local._ZTV9Semaphore,"awG",@progbits,_ZTV9Semaphore,comdat
 731              		.align	3
 734              	_ZTV9Semaphore:
 735 0000 00000000 		.dword	0
 735      00000000 
 736 0008 00000000 		.dword	0
 736      00000000 
 737 0010 00000000 		.dword	_ZN9SemaphoreD1Ev
 737      00000000 
 738 0018 00000000 		.dword	_ZN9SemaphoreD0Ev
 738      00000000 
 739              		.text
 740              	.Letext0:
 741              		.file 3 "src/../h/../lib/hw.h"
 742              		.file 4 "src/../h/syscall_c.hpp"
 743              		.file 5 "src/../h/KThread.hpp"
 744              		.file 6 "src/../h/KSemaphore.hpp"
 4019              		.align	3
 4022              	DW.ref.__gxx_personality_v0:
 4023 0000 00000000 		.dword	__gxx_personality_v0
 4023      00000000 
 4024              		.ident	"GCC: (Ubuntu 9.4.0-1ubuntu1~20.04) 9.4.0"
 4025              		.section	.note.GNU-stack,"",@progbits
GAS LISTING /tmp/cc0wmPoy.s 			page 17


DEFINED SYMBOLS
                            *ABS*:0000000000000000 syscall_cpp.cpp
     /tmp/cc0wmPoy.s:10     .text._ZN6Thread3runEv:0000000000000000 _ZN6Thread3runEv
     /tmp/cc0wmPoy.s:14     .text._ZN6Thread3runEv:0000000000000000 .L0 
     /tmp/cc0wmPoy.s:16     .text._ZN6Thread3runEv:0000000000000000 .L0 
     /tmp/cc0wmPoy.s:17     .text._ZN6Thread3runEv:0000000000000004 .L0 
     /tmp/cc0wmPoy.s:19     .text._ZN6Thread3runEv:0000000000000008 .L0 
     /tmp/cc0wmPoy.s:21     .text._ZN6Thread3runEv:000000000000000c .L0 
     /tmp/cc0wmPoy.s:23     .text._ZN6Thread3runEv:000000000000000c .L0 
     /tmp/cc0wmPoy.s:24     .text._ZN6Thread3runEv:0000000000000010 .L0 
     /tmp/cc0wmPoy.s:25     .text._ZN6Thread3runEv:0000000000000010 .L0 
     /tmp/cc0wmPoy.s:27     .text._ZN6Thread3runEv:0000000000000014 .L0 
     /tmp/cc0wmPoy.s:29     .text._ZN6Thread3runEv:0000000000000018 .L0 
     /tmp/cc0wmPoy.s:36     .text:0000000000000000 _ZN6ThreadD2Ev
     /tmp/cc0wmPoy.s:40     .text:0000000000000000 .L0 
     /tmp/cc0wmPoy.s:4022   .data.rel.local.DW.ref.__gxx_personality_v0:0000000000000000 DW.ref.__gxx_personality_v0
     /tmp/cc0wmPoy.s:45     .text:0000000000000000 .L0 
     /tmp/cc0wmPoy.s:723    .data.rel.ro.local._ZTV6Thread:0000000000000000 _ZTV6Thread
     /tmp/cc0wmPoy.s:46     .text:0000000000000000 .L0 
     /tmp/cc0wmPoy.s:49     .text:000000000000000c .L0 
     /tmp/cc0wmPoy.s:50     .text:000000000000000c .L0 
     /tmp/cc0wmPoy.s:53     .text:0000000000000010 .L0 
     /tmp/cc0wmPoy.s:56     .text:0000000000000014 .L0 
     /tmp/cc0wmPoy.s:57     .text:0000000000000018 .L0 
     /tmp/cc0wmPoy.s:60     .text:0000000000000020 .L0 
     /tmp/cc0wmPoy.s:61     .text:0000000000000020 .L0 
     /tmp/cc0wmPoy.s:63     .text:0000000000000024 .L0 
     /tmp/cc0wmPoy.s:66     .text:0000000000000024 .L0 
     /tmp/cc0wmPoy.s:67     .text:0000000000000024 .L0 
     /tmp/cc0wmPoy.s:71     .text:000000000000002c .L0 
     /tmp/cc0wmPoy.s:72     .text:000000000000002c .L0 
     /tmp/cc0wmPoy.s:73     .text:0000000000000030 .L0 
     /tmp/cc0wmPoy.s:75     .text:0000000000000034 .L0 
     /tmp/cc0wmPoy.s:76     .text:0000000000000034 .L0 
     /tmp/cc0wmPoy.s:78     .text:0000000000000038 .L0 
     /tmp/cc0wmPoy.s:82     .text:0000000000000040 .L0 
     /tmp/cc0wmPoy.s:36     .text:0000000000000000 _ZN6ThreadD1Ev
     /tmp/cc0wmPoy.s:98     .text:0000000000000040 _ZN6Thread7wrapperEPv
     /tmp/cc0wmPoy.s:101    .text:0000000000000040 .L0 
     /tmp/cc0wmPoy.s:103    .text:0000000000000040 .L0 
     /tmp/cc0wmPoy.s:104    .text:0000000000000044 .L0 
     /tmp/cc0wmPoy.s:107    .text:000000000000004c .L0 
     /tmp/cc0wmPoy.s:108    .text:000000000000004c .L0 
     /tmp/cc0wmPoy.s:110    .text:0000000000000050 .L0 
     /tmp/cc0wmPoy.s:113    .text:0000000000000050 .L0 
     /tmp/cc0wmPoy.s:114    .text:0000000000000050 .L0 
     /tmp/cc0wmPoy.s:115    .text:0000000000000050 .L0 
     /tmp/cc0wmPoy.s:118    .text:0000000000000058 .L0 
     /tmp/cc0wmPoy.s:121    .text:000000000000005c .L0 
     /tmp/cc0wmPoy.s:122    .text:000000000000005c .L0 
     /tmp/cc0wmPoy.s:125    .text:0000000000000064 .L0 
     /tmp/cc0wmPoy.s:126    .text:0000000000000068 .L0 
     /tmp/cc0wmPoy.s:128    .text:000000000000006c .L0 
     /tmp/cc0wmPoy.s:129    .text:000000000000006c .L0 
     /tmp/cc0wmPoy.s:131    .text:0000000000000070 .L0 
     /tmp/cc0wmPoy.s:133    .text:0000000000000074 .L0 
     /tmp/cc0wmPoy.s:139    .text:0000000000000074 _ZN9SemaphoreD2Ev
GAS LISTING /tmp/cc0wmPoy.s 			page 18


     /tmp/cc0wmPoy.s:142    .text:0000000000000074 .L0 
     /tmp/cc0wmPoy.s:146    .text:0000000000000074 .L0 
     /tmp/cc0wmPoy.s:147    .text:0000000000000078 .L0 
     /tmp/cc0wmPoy.s:150    .text:0000000000000080 .L0 
     /tmp/cc0wmPoy.s:151    .text:0000000000000080 .L0 
     /tmp/cc0wmPoy.s:153    .text:0000000000000084 .L0 
     /tmp/cc0wmPoy.s:734    .data.rel.ro.local._ZTV9Semaphore:0000000000000000 _ZTV9Semaphore
     /tmp/cc0wmPoy.s:156    .text:0000000000000084 .L0 
     /tmp/cc0wmPoy.s:159    .text:0000000000000090 .L0 
     /tmp/cc0wmPoy.s:160    .text:0000000000000090 .L0 
     /tmp/cc0wmPoy.s:166    .text:000000000000009c .L0 
     /tmp/cc0wmPoy.s:167    .text:00000000000000a0 .L0 
     /tmp/cc0wmPoy.s:169    .text:00000000000000a4 .L0 
     /tmp/cc0wmPoy.s:170    .text:00000000000000a4 .L0 
     /tmp/cc0wmPoy.s:172    .text:00000000000000a8 .L0 
     /tmp/cc0wmPoy.s:174    .text:00000000000000ac .L0 
     /tmp/cc0wmPoy.s:139    .text:0000000000000074 _ZN9SemaphoreD1Ev
     /tmp/cc0wmPoy.s:189    .text:00000000000000ac _Znwm
     /tmp/cc0wmPoy.s:192    .text:00000000000000ac .L0 
     /tmp/cc0wmPoy.s:194    .text:00000000000000ac .L0 
     /tmp/cc0wmPoy.s:195    .text:00000000000000b0 .L0 
     /tmp/cc0wmPoy.s:198    .text:00000000000000b8 .L0 
     /tmp/cc0wmPoy.s:199    .text:00000000000000b8 .L0 
     /tmp/cc0wmPoy.s:201    .text:00000000000000bc .L0 
     /tmp/cc0wmPoy.s:203    .text:00000000000000bc .L0 
     /tmp/cc0wmPoy.s:204    .text:00000000000000bc .L0 
     /tmp/cc0wmPoy.s:207    .text:00000000000000c4 .L0 
     /tmp/cc0wmPoy.s:208    .text:00000000000000c8 .L0 
     /tmp/cc0wmPoy.s:210    .text:00000000000000cc .L0 
     /tmp/cc0wmPoy.s:211    .text:00000000000000cc .L0 
     /tmp/cc0wmPoy.s:213    .text:00000000000000d0 .L0 
     /tmp/cc0wmPoy.s:215    .text:00000000000000d4 .L0 
     /tmp/cc0wmPoy.s:221    .text:00000000000000d4 _ZdlPv
     /tmp/cc0wmPoy.s:224    .text:00000000000000d4 .L0 
     /tmp/cc0wmPoy.s:226    .text:00000000000000d4 .L0 
     /tmp/cc0wmPoy.s:227    .text:00000000000000d8 .L0 
     /tmp/cc0wmPoy.s:230    .text:00000000000000e0 .L0 
     /tmp/cc0wmPoy.s:231    .text:00000000000000e0 .L0 
     /tmp/cc0wmPoy.s:233    .text:00000000000000e4 .L0 
     /tmp/cc0wmPoy.s:235    .text:00000000000000e4 .L0 
     /tmp/cc0wmPoy.s:236    .text:00000000000000e4 .L0 
     /tmp/cc0wmPoy.s:239    .text:00000000000000ec .L0 
     /tmp/cc0wmPoy.s:240    .text:00000000000000f0 .L0 
     /tmp/cc0wmPoy.s:242    .text:00000000000000f4 .L0 
     /tmp/cc0wmPoy.s:243    .text:00000000000000f4 .L0 
     /tmp/cc0wmPoy.s:245    .text:00000000000000f8 .L0 
     /tmp/cc0wmPoy.s:247    .text:00000000000000fc .L0 
     /tmp/cc0wmPoy.s:253    .text:00000000000000fc _ZN6ThreadD0Ev
     /tmp/cc0wmPoy.s:256    .text:00000000000000fc .L0 
     /tmp/cc0wmPoy.s:258    .text:00000000000000fc .L0 
     /tmp/cc0wmPoy.s:259    .text:0000000000000100 .L0 
     /tmp/cc0wmPoy.s:263    .text:000000000000010c .L0 
     /tmp/cc0wmPoy.s:264    .text:000000000000010c .L0 
     /tmp/cc0wmPoy.s:265    .text:000000000000010c .L0 
     /tmp/cc0wmPoy.s:267    .text:0000000000000110 .L0 
     /tmp/cc0wmPoy.s:270    .text:0000000000000114 .L0 
     /tmp/cc0wmPoy.s:276    .text:000000000000012c .L0 
GAS LISTING /tmp/cc0wmPoy.s 			page 19


     /tmp/cc0wmPoy.s:278    .text:0000000000000130 .L0 
     /tmp/cc0wmPoy.s:279    .text:0000000000000130 .L0 
     /tmp/cc0wmPoy.s:281    .text:0000000000000134 .L0 
     /tmp/cc0wmPoy.s:284    .text:0000000000000138 .L0 
     /tmp/cc0wmPoy.s:286    .text:000000000000013c .L0 
     /tmp/cc0wmPoy.s:292    .text:000000000000013c _ZN9SemaphoreD0Ev
     /tmp/cc0wmPoy.s:295    .text:000000000000013c .L0 
     /tmp/cc0wmPoy.s:297    .text:000000000000013c .L0 
     /tmp/cc0wmPoy.s:298    .text:0000000000000140 .L0 
     /tmp/cc0wmPoy.s:302    .text:000000000000014c .L0 
     /tmp/cc0wmPoy.s:303    .text:000000000000014c .L0 
     /tmp/cc0wmPoy.s:304    .text:000000000000014c .L0 
     /tmp/cc0wmPoy.s:306    .text:0000000000000150 .L0 
     /tmp/cc0wmPoy.s:309    .text:0000000000000154 .L0 
     /tmp/cc0wmPoy.s:315    .text:000000000000016c .L0 
     /tmp/cc0wmPoy.s:317    .text:0000000000000170 .L0 
     /tmp/cc0wmPoy.s:318    .text:0000000000000170 .L0 
     /tmp/cc0wmPoy.s:320    .text:0000000000000174 .L0 
     /tmp/cc0wmPoy.s:323    .text:0000000000000178 .L0 
     /tmp/cc0wmPoy.s:325    .text:000000000000017c .L0 
     /tmp/cc0wmPoy.s:331    .text:000000000000017c _Znam
     /tmp/cc0wmPoy.s:334    .text:000000000000017c .L0 
     /tmp/cc0wmPoy.s:336    .text:000000000000017c .L0 
     /tmp/cc0wmPoy.s:337    .text:0000000000000180 .L0 
     /tmp/cc0wmPoy.s:340    .text:0000000000000188 .L0 
     /tmp/cc0wmPoy.s:341    .text:0000000000000188 .L0 
     /tmp/cc0wmPoy.s:343    .text:000000000000018c .L0 
     /tmp/cc0wmPoy.s:345    .text:000000000000018c .L0 
     /tmp/cc0wmPoy.s:346    .text:000000000000018c .L0 
     /tmp/cc0wmPoy.s:349    .text:0000000000000194 .L0 
     /tmp/cc0wmPoy.s:350    .text:0000000000000198 .L0 
     /tmp/cc0wmPoy.s:352    .text:000000000000019c .L0 
     /tmp/cc0wmPoy.s:353    .text:000000000000019c .L0 
     /tmp/cc0wmPoy.s:355    .text:00000000000001a0 .L0 
     /tmp/cc0wmPoy.s:357    .text:00000000000001a4 .L0 
     /tmp/cc0wmPoy.s:363    .text:00000000000001a4 _ZdaPv
     /tmp/cc0wmPoy.s:366    .text:00000000000001a4 .L0 
     /tmp/cc0wmPoy.s:368    .text:00000000000001a4 .L0 
     /tmp/cc0wmPoy.s:369    .text:00000000000001a8 .L0 
     /tmp/cc0wmPoy.s:372    .text:00000000000001b0 .L0 
     /tmp/cc0wmPoy.s:373    .text:00000000000001b0 .L0 
     /tmp/cc0wmPoy.s:375    .text:00000000000001b4 .L0 
     /tmp/cc0wmPoy.s:377    .text:00000000000001b4 .L0 
     /tmp/cc0wmPoy.s:378    .text:00000000000001b4 .L0 
     /tmp/cc0wmPoy.s:381    .text:00000000000001bc .L0 
     /tmp/cc0wmPoy.s:382    .text:00000000000001c0 .L0 
     /tmp/cc0wmPoy.s:384    .text:00000000000001c4 .L0 
     /tmp/cc0wmPoy.s:385    .text:00000000000001c4 .L0 
     /tmp/cc0wmPoy.s:387    .text:00000000000001c8 .L0 
     /tmp/cc0wmPoy.s:389    .text:00000000000001cc .L0 
     /tmp/cc0wmPoy.s:395    .text:00000000000001cc _ZN6ThreadC2EPFvPvES0_
     /tmp/cc0wmPoy.s:398    .text:00000000000001cc .L0 
     /tmp/cc0wmPoy.s:400    .text:00000000000001cc .L0 
     /tmp/cc0wmPoy.s:401    .text:00000000000001d0 .L0 
     /tmp/cc0wmPoy.s:403    .text:00000000000001d4 .L0 
     /tmp/cc0wmPoy.s:405    .text:00000000000001d8 .L0 
     /tmp/cc0wmPoy.s:408    .text:00000000000001d8 .L0 
GAS LISTING /tmp/cc0wmPoy.s 			page 20


     /tmp/cc0wmPoy.s:415    .text:00000000000001f0 .L0 
     /tmp/cc0wmPoy.s:416    .text:00000000000001f4 .L0 
     /tmp/cc0wmPoy.s:417    .text:00000000000001f4 .L0 
     /tmp/cc0wmPoy.s:419    .text:00000000000001f8 .L0 
     /tmp/cc0wmPoy.s:421    .text:00000000000001fc .L0 
     /tmp/cc0wmPoy.s:395    .text:00000000000001cc _ZN6ThreadC1EPFvPvES0_
     /tmp/cc0wmPoy.s:429    .text:00000000000001fc _ZN6ThreadC2Ev
     /tmp/cc0wmPoy.s:432    .text:00000000000001fc .L0 
     /tmp/cc0wmPoy.s:434    .text:00000000000001fc .L0 
     /tmp/cc0wmPoy.s:435    .text:0000000000000200 .L0 
     /tmp/cc0wmPoy.s:437    .text:0000000000000204 .L0 
     /tmp/cc0wmPoy.s:439    .text:0000000000000208 .L0 
     /tmp/cc0wmPoy.s:442    .text:0000000000000208 .L0 
     /tmp/cc0wmPoy.s:449    .text:0000000000000220 .L0 
     /tmp/cc0wmPoy.s:450    .text:0000000000000224 .L0 
     /tmp/cc0wmPoy.s:451    .text:0000000000000224 .L0 
     /tmp/cc0wmPoy.s:453    .text:0000000000000228 .L0 
     /tmp/cc0wmPoy.s:455    .text:000000000000022c .L0 
     /tmp/cc0wmPoy.s:429    .text:00000000000001fc _ZN6ThreadC1Ev
     /tmp/cc0wmPoy.s:463    .text:000000000000022c _ZN6Thread5startEv
     /tmp/cc0wmPoy.s:466    .text:000000000000022c .L0 
     /tmp/cc0wmPoy.s:468    .text:000000000000022c .L0 
     /tmp/cc0wmPoy.s:469    .text:0000000000000230 .L0 
     /tmp/cc0wmPoy.s:472    .text:0000000000000238 .L0 
     /tmp/cc0wmPoy.s:473    .text:0000000000000238 .L0 
     /tmp/cc0wmPoy.s:475    .text:000000000000023c .L0 
     /tmp/cc0wmPoy.s:477    .text:000000000000023c .L0 
     /tmp/cc0wmPoy.s:478    .text:000000000000023c .L0 
     /tmp/cc0wmPoy.s:480    .text:0000000000000240 .L0 
     /tmp/cc0wmPoy.s:482    .text:0000000000000244 .L0 
     /tmp/cc0wmPoy.s:483    .text:0000000000000244 .L0 
     /tmp/cc0wmPoy.s:490    .text:0000000000000254 .L0 
     /tmp/cc0wmPoy.s:491    .text:0000000000000258 .L0 
     /tmp/cc0wmPoy.s:492    .text:0000000000000258 .L0 
     /tmp/cc0wmPoy.s:494    .text:000000000000025c .L0 
     /tmp/cc0wmPoy.s:495    .text:000000000000025c .L0 
     /tmp/cc0wmPoy.s:497    .text:0000000000000260 .L0 
     /tmp/cc0wmPoy.s:501    .text:0000000000000264 .L0 
     /tmp/cc0wmPoy.s:503    .text:0000000000000264 .L0 
     /tmp/cc0wmPoy.s:504    .text:0000000000000264 .L0 
     /tmp/cc0wmPoy.s:511    .text:000000000000027c .L0 
     /tmp/cc0wmPoy.s:512    .text:0000000000000280 .L0 
     /tmp/cc0wmPoy.s:518    .text:0000000000000280 _ZN6Thread8dispatchEv
     /tmp/cc0wmPoy.s:521    .text:0000000000000280 .L0 
     /tmp/cc0wmPoy.s:522    .text:0000000000000280 .L0 
     /tmp/cc0wmPoy.s:523    .text:0000000000000284 .L0 
     /tmp/cc0wmPoy.s:526    .text:000000000000028c .L0 
     /tmp/cc0wmPoy.s:527    .text:000000000000028c .L0 
     /tmp/cc0wmPoy.s:529    .text:0000000000000290 .L0 
     /tmp/cc0wmPoy.s:531    .text:0000000000000290 .L0 
     /tmp/cc0wmPoy.s:532    .text:0000000000000290 .L0 
     /tmp/cc0wmPoy.s:535    .text:0000000000000298 .L0 
     /tmp/cc0wmPoy.s:536    .text:000000000000029c .L0 
     /tmp/cc0wmPoy.s:538    .text:00000000000002a0 .L0 
     /tmp/cc0wmPoy.s:539    .text:00000000000002a0 .L0 
     /tmp/cc0wmPoy.s:541    .text:00000000000002a4 .L0 
     /tmp/cc0wmPoy.s:543    .text:00000000000002a8 .L0 
GAS LISTING /tmp/cc0wmPoy.s 			page 21


     /tmp/cc0wmPoy.s:549    .text:00000000000002a8 _ZN9SemaphoreC2Ej
     /tmp/cc0wmPoy.s:552    .text:00000000000002a8 .L0 
     /tmp/cc0wmPoy.s:554    .text:00000000000002a8 .L0 
     /tmp/cc0wmPoy.s:555    .text:00000000000002ac .L0 
     /tmp/cc0wmPoy.s:558    .text:00000000000002b4 .L0 
     /tmp/cc0wmPoy.s:559    .text:00000000000002b4 .L0 
     /tmp/cc0wmPoy.s:561    .text:00000000000002b8 .L0 
     /tmp/cc0wmPoy.s:564    .text:00000000000002b8 .L0 
     /tmp/cc0wmPoy.s:567    .text:00000000000002c4 .L0 
     /tmp/cc0wmPoy.s:568    .text:00000000000002c4 .L0 
     /tmp/cc0wmPoy.s:574    .text:00000000000002d0 .L0 
     /tmp/cc0wmPoy.s:575    .text:00000000000002d4 .L0 
     /tmp/cc0wmPoy.s:577    .text:00000000000002d8 .L0 
     /tmp/cc0wmPoy.s:578    .text:00000000000002d8 .L0 
     /tmp/cc0wmPoy.s:580    .text:00000000000002dc .L0 
     /tmp/cc0wmPoy.s:582    .text:00000000000002e0 .L0 
     /tmp/cc0wmPoy.s:549    .text:00000000000002a8 _ZN9SemaphoreC1Ej
     /tmp/cc0wmPoy.s:590    .text:00000000000002e0 _ZN9Semaphore4waitEv
     /tmp/cc0wmPoy.s:593    .text:00000000000002e0 .L0 
     /tmp/cc0wmPoy.s:595    .text:00000000000002e0 .L0 
     /tmp/cc0wmPoy.s:596    .text:00000000000002e4 .L0 
     /tmp/cc0wmPoy.s:599    .text:00000000000002ec .L0 
     /tmp/cc0wmPoy.s:600    .text:00000000000002ec .L0 
     /tmp/cc0wmPoy.s:602    .text:00000000000002f0 .L0 
     /tmp/cc0wmPoy.s:604    .text:00000000000002f0 .L0 
     /tmp/cc0wmPoy.s:605    .text:00000000000002f0 .L0 
     /tmp/cc0wmPoy.s:610    .text:00000000000002fc .L0 
     /tmp/cc0wmPoy.s:611    .text:0000000000000300 .L0 
     /tmp/cc0wmPoy.s:613    .text:0000000000000304 .L0 
     /tmp/cc0wmPoy.s:614    .text:0000000000000304 .L0 
     /tmp/cc0wmPoy.s:616    .text:0000000000000308 .L0 
     /tmp/cc0wmPoy.s:618    .text:000000000000030c .L0 
     /tmp/cc0wmPoy.s:624    .text:000000000000030c _ZN9Semaphore6signalEv
     /tmp/cc0wmPoy.s:627    .text:000000000000030c .L0 
     /tmp/cc0wmPoy.s:629    .text:000000000000030c .L0 
     /tmp/cc0wmPoy.s:630    .text:0000000000000310 .L0 
     /tmp/cc0wmPoy.s:633    .text:0000000000000318 .L0 
     /tmp/cc0wmPoy.s:634    .text:0000000000000318 .L0 
     /tmp/cc0wmPoy.s:636    .text:000000000000031c .L0 
     /tmp/cc0wmPoy.s:638    .text:000000000000031c .L0 
     /tmp/cc0wmPoy.s:639    .text:000000000000031c .L0 
     /tmp/cc0wmPoy.s:644    .text:0000000000000328 .L0 
     /tmp/cc0wmPoy.s:645    .text:000000000000032c .L0 
     /tmp/cc0wmPoy.s:647    .text:0000000000000330 .L0 
     /tmp/cc0wmPoy.s:648    .text:0000000000000330 .L0 
     /tmp/cc0wmPoy.s:650    .text:0000000000000334 .L0 
     /tmp/cc0wmPoy.s:652    .text:0000000000000338 .L0 
     /tmp/cc0wmPoy.s:658    .text:0000000000000338 _ZN7Console4getcEv
     /tmp/cc0wmPoy.s:661    .text:0000000000000338 .L0 
     /tmp/cc0wmPoy.s:662    .text:0000000000000338 .L0 
     /tmp/cc0wmPoy.s:663    .text:000000000000033c .L0 
     /tmp/cc0wmPoy.s:666    .text:0000000000000344 .L0 
     /tmp/cc0wmPoy.s:667    .text:0000000000000344 .L0 
     /tmp/cc0wmPoy.s:669    .text:0000000000000348 .L0 
     /tmp/cc0wmPoy.s:671    .text:0000000000000348 .L0 
     /tmp/cc0wmPoy.s:672    .text:0000000000000348 .L0 
     /tmp/cc0wmPoy.s:675    .text:0000000000000350 .L0 
GAS LISTING /tmp/cc0wmPoy.s 			page 22


     /tmp/cc0wmPoy.s:676    .text:0000000000000354 .L0 
     /tmp/cc0wmPoy.s:678    .text:0000000000000358 .L0 
     /tmp/cc0wmPoy.s:679    .text:0000000000000358 .L0 
     /tmp/cc0wmPoy.s:681    .text:000000000000035c .L0 
     /tmp/cc0wmPoy.s:683    .text:0000000000000360 .L0 
     /tmp/cc0wmPoy.s:689    .text:0000000000000360 _ZN7Console4putcEc
     /tmp/cc0wmPoy.s:692    .text:0000000000000360 .L0 
     /tmp/cc0wmPoy.s:694    .text:0000000000000360 .L0 
     /tmp/cc0wmPoy.s:695    .text:0000000000000364 .L0 
     /tmp/cc0wmPoy.s:698    .text:000000000000036c .L0 
     /tmp/cc0wmPoy.s:699    .text:000000000000036c .L0 
     /tmp/cc0wmPoy.s:701    .text:0000000000000370 .L0 
     /tmp/cc0wmPoy.s:703    .text:0000000000000370 .L0 
     /tmp/cc0wmPoy.s:704    .text:0000000000000370 .L0 
     /tmp/cc0wmPoy.s:707    .text:0000000000000378 .L0 
     /tmp/cc0wmPoy.s:708    .text:000000000000037c .L0 
     /tmp/cc0wmPoy.s:710    .text:0000000000000380 .L0 
     /tmp/cc0wmPoy.s:711    .text:0000000000000380 .L0 
     /tmp/cc0wmPoy.s:713    .text:0000000000000384 .L0 
     /tmp/cc0wmPoy.s:715    .text:0000000000000388 .L0 
     /tmp/cc0wmPoy.s:32     .text._ZN6Thread3runEv:0000000000000018 .L0 
     /tmp/cc0wmPoy.s:745    .text:0000000000000388 .L0 
     /tmp/cc0wmPoy.s:46     .text:0000000000000000 .L0 
     /tmp/cc0wmPoy.s:156    .text:0000000000000084 .L0 
     /tmp/cc0wmPoy.s:408    .text:00000000000001d8 .L0 
     /tmp/cc0wmPoy.s:442    .text:0000000000000208 .L0 
     /tmp/cc0wmPoy.s:505    .text:0000000000000268 .L0 
     /tmp/cc0wmPoy.s:564    .text:00000000000002b8 .L0 
     /tmp/cc0wmPoy.s:80     .text:000000000000003c .L6
     /tmp/cc0wmPoy.s:500    .text:0000000000000264 .L30
     /tmp/cc0wmPoy.s:488    .text:0000000000000254 .L31
     /tmp/cc0wmPoy.s:2330   .debug_abbrev:0000000000000000 .Ldebug_abbrev0
     /tmp/cc0wmPoy.s:3972   .debug_str:00000000000007c7 .LASF145
     /tmp/cc0wmPoy.s:3938   .debug_str:00000000000006d5 .LASF146
     /tmp/cc0wmPoy.s:3794   .debug_str:000000000000026f .LASF147
     /tmp/cc0wmPoy.s:3694   .debug_ranges:0000000000000000 .Ldebug_ranges0
     /tmp/cc0wmPoy.s:3702   .debug_line:0000000000000000 .Ldebug_line0
     /tmp/cc0wmPoy.s:3872   .debug_str:00000000000004db .LASF0
     /tmp/cc0wmPoy.s:3890   .debug_str:0000000000000541 .LASF1
     /tmp/cc0wmPoy.s:3854   .debug_str:000000000000043d .LASF2
     /tmp/cc0wmPoy.s:3826   .debug_str:0000000000000392 .LASF4
     /tmp/cc0wmPoy.s:3948   .debug_str:0000000000000712 .LASF3
     /tmp/cc0wmPoy.s:3732   .debug_str:00000000000000c6 .LASF5
     /tmp/cc0wmPoy.s:3770   .debug_str:00000000000001dd .LASF6
     /tmp/cc0wmPoy.s:3896   .debug_str:0000000000000578 .LASF7
     /tmp/cc0wmPoy.s:3870   .debug_str:00000000000004c8 .LASF8
     /tmp/cc0wmPoy.s:3982   .debug_str:00000000000008be .LASF9
     /tmp/cc0wmPoy.s:3806   .debug_str:00000000000002ef .LASF10
     /tmp/cc0wmPoy.s:3910   .debug_str:00000000000005d8 .LASF11
     /tmp/cc0wmPoy.s:3974   .debug_str:000000000000088b .LASF12
     /tmp/cc0wmPoy.s:3738   .debug_str:00000000000000ea .LASF13
     /tmp/cc0wmPoy.s:3712   .debug_str:0000000000000057 .LASF14
     /tmp/cc0wmPoy.s:3750   .debug_str:0000000000000158 .LASF15
     /tmp/cc0wmPoy.s:3942   .debug_str:00000000000006ef .LASF16
     /tmp/cc0wmPoy.s:3760   .debug_str:0000000000000196 .LASF17
     /tmp/cc0wmPoy.s:3704   .debug_str:0000000000000000 .LASF18
     /tmp/cc0wmPoy.s:3778   .debug_str:0000000000000218 .LASF46
GAS LISTING /tmp/cc0wmPoy.s 			page 23


     /tmp/cc0wmPoy.s:3718   .debug_str:0000000000000082 .LASF148
     /tmp/cc0wmPoy.s:3958   .debug_str:000000000000075a .LASF19
     /tmp/cc0wmPoy.s:3784   .debug_str:000000000000022f .LASF20
     /tmp/cc0wmPoy.s:3934   .debug_str:00000000000006c1 .LASF21
     /tmp/cc0wmPoy.s:3930   .debug_str:000000000000069a .LASF23
     /tmp/cc0wmPoy.s:3838   .debug_str:00000000000003c7 .LASF22
     /tmp/cc0wmPoy.s:3798   .debug_str:0000000000000296 .LASF24
     /tmp/cc0wmPoy.s:3926   .debug_str:0000000000000690 .LASF149
     /tmp/cc0wmPoy.s:3742   .debug_str:000000000000010a .LASF25
     /tmp/cc0wmPoy.s:3888   .debug_str:000000000000053b .LASF26
     /tmp/cc0wmPoy.s:3752   .debug_str:0000000000000164 .LASF27
     /tmp/cc0wmPoy.s:3844   .debug_str:00000000000003f9 .LASF28
     /tmp/cc0wmPoy.s:3956   .debug_str:0000000000000747 .LASF29
     /tmp/cc0wmPoy.s:4012   .debug_str:00000000000009d3 .LASF32
     /tmp/cc0wmPoy.s:3746   .debug_str:0000000000000130 .LASF34
     /tmp/cc0wmPoy.s:3836   .debug_str:00000000000003be .LASF85
     /tmp/cc0wmPoy.s:3970   .debug_str:00000000000007af .LASF86
     /tmp/cc0wmPoy.s:3860   .debug_str:0000000000000465 .LASF30
     /tmp/cc0wmPoy.s:3708   .debug_str:000000000000000f .LASF31
     /tmp/cc0wmPoy.s:3940   .debug_str:00000000000006e9 .LASF33
     /tmp/cc0wmPoy.s:3816   .debug_str:0000000000000341 .LASF35
     /tmp/cc0wmPoy.s:3874   .debug_str:00000000000004e8 .LASF36
     /tmp/cc0wmPoy.s:3988   .debug_str:00000000000008ec .LASF37
     /tmp/cc0wmPoy.s:3996   .debug_str:0000000000000939 .LASF38
     /tmp/cc0wmPoy.s:3968   .debug_str:000000000000079f .LASF39
     /tmp/cc0wmPoy.s:3952   .debug_str:000000000000072e .LASF42
     /tmp/cc0wmPoy.s:3962   .debug_str:000000000000076d .LASF44
     /tmp/cc0wmPoy.s:3800   .debug_str:00000000000002bd .LASF40
     /tmp/cc0wmPoy.s:3814   .debug_str:0000000000000331 .LASF41
     /tmp/cc0wmPoy.s:3828   .debug_str:0000000000000399 .LASF43
     /tmp/cc0wmPoy.s:4000   .debug_str:0000000000000954 .LASF45
     /tmp/cc0wmPoy.s:3902   .debug_str:00000000000005a9 .LASF47
     /tmp/cc0wmPoy.s:3992   .debug_str:0000000000000916 .LASF48
     /tmp/cc0wmPoy.s:3832   .debug_str:00000000000003b1 .LASF49
     /tmp/cc0wmPoy.s:3878   .debug_str:00000000000004f7 .LASF50
     /tmp/cc0wmPoy.s:3876   .debug_str:00000000000004f1 .LASF51
     /tmp/cc0wmPoy.s:3834   .debug_str:00000000000003b6 .LASF52
     /tmp/cc0wmPoy.s:3726   .debug_str:00000000000000a8 .LASF53
     /tmp/cc0wmPoy.s:3998   .debug_str:0000000000000946 .LASF54
     /tmp/cc0wmPoy.s:3858   .debug_str:0000000000000457 .LASF55
     /tmp/cc0wmPoy.s:3994   .debug_str:000000000000092b .LASF73
     /tmp/cc0wmPoy.s:3918   .debug_str:000000000000061d .LASF81
     /tmp/cc0wmPoy.s:3856   .debug_str:000000000000044b .LASF105
     /tmp/cc0wmPoy.s:3922   .debug_str:000000000000064e .LASF106
     /tmp/cc0wmPoy.s:3782   .debug_str:0000000000000229 .LASF56
     /tmp/cc0wmPoy.s:3776   .debug_str:000000000000020d .LASF57
     /tmp/cc0wmPoy.s:3740   .debug_str:00000000000000fa .LASF58
     /tmp/cc0wmPoy.s:4010   .debug_str:00000000000009b0 .LASF59
     /tmp/cc0wmPoy.s:3790   .debug_str:0000000000000259 .LASF60
     /tmp/cc0wmPoy.s:3812   .debug_str:000000000000031a .LASF61
     /tmp/cc0wmPoy.s:3758   .debug_str:000000000000018f .LASF62
     /tmp/cc0wmPoy.s:3898   .debug_str:000000000000058b .LASF63
     /tmp/cc0wmPoy.s:3706   .debug_str:0000000000000009 .LASF64
     /tmp/cc0wmPoy.s:4002   .debug_str:0000000000000965 .LASF65
     /tmp/cc0wmPoy.s:3924   .debug_str:000000000000067c .LASF66
     /tmp/cc0wmPoy.s:3840   .debug_str:00000000000003d4 .LASF67
     /tmp/cc0wmPoy.s:3774   .debug_str:00000000000001f9 .LASF68
GAS LISTING /tmp/cc0wmPoy.s 			page 24


     /tmp/cc0wmPoy.s:3882   .debug_str:0000000000000503 .LASF69
     /tmp/cc0wmPoy.s:3886   .debug_str:0000000000000527 .LASF70
     /tmp/cc0wmPoy.s:3766   .debug_str:00000000000001c9 .LASF71
     /tmp/cc0wmPoy.s:3850   .debug_str:000000000000042b .LASF72
     /tmp/cc0wmPoy.s:3716   .debug_str:000000000000006c .LASF150
     /tmp/cc0wmPoy.s:3848   .debug_str:000000000000040d .LASF151
     /tmp/cc0wmPoy.s:3818   .debug_str:0000000000000355 .LASF152
     /tmp/cc0wmPoy.s:3908   .debug_str:00000000000005d2 .LASF74
     /tmp/cc0wmPoy.s:3904   .debug_str:00000000000005c4 .LASF75
     /tmp/cc0wmPoy.s:3728   .debug_str:00000000000000ae .LASF76
     /tmp/cc0wmPoy.s:3916   .debug_str:0000000000000614 .LASF77
     /tmp/cc0wmPoy.s:3900   .debug_str:00000000000005a4 .LASF78
     /tmp/cc0wmPoy.s:3822   .debug_str:0000000000000378 .LASF79
     /tmp/cc0wmPoy.s:3714   .debug_str:0000000000000067 .LASF126
     /tmp/cc0wmPoy.s:3892   .debug_str:0000000000000554 .LASF153
     /tmp/cc0wmPoy.s:3744   .debug_str:000000000000012b .LASF80
     /tmp/cc0wmPoy.s:3990   .debug_str:0000000000000903 .LASF82
     /tmp/cc0wmPoy.s:3810   .debug_str:0000000000000310 .LASF83
     /tmp/cc0wmPoy.s:4004   .debug_str:000000000000097d .LASF91
     /tmp/cc0wmPoy.s:3730   .debug_str:00000000000000b6 .LASF93
     /tmp/cc0wmPoy.s:3976   .debug_str:000000000000089a .LASF84
     /tmp/cc0wmPoy.s:3936   .debug_str:00000000000006ca .LASF96
     /tmp/cc0wmPoy.s:3748   .debug_str:0000000000000146 .LASF98
     /tmp/cc0wmPoy.s:4006   .debug_str:0000000000000992 .LASF87
     /tmp/cc0wmPoy.s:3932   .debug_str:00000000000006aa .LASF88
     /tmp/cc0wmPoy.s:4008   .debug_str:00000000000009a7 .LASF89
     /tmp/cc0wmPoy.s:3984   .debug_str:00000000000008ce .LASF154
     /tmp/cc0wmPoy.s:3978   .debug_str:00000000000008ac .LASF90
     /tmp/cc0wmPoy.s:3862   .debug_str:000000000000046e .LASF92
     /tmp/cc0wmPoy.s:3852   .debug_str:0000000000000430 .LASF94
     /tmp/cc0wmPoy.s:3914   .debug_str:00000000000005fd .LASF95
     /tmp/cc0wmPoy.s:3724   .debug_str:00000000000000a0 .LASF97
     /tmp/cc0wmPoy.s:3884   .debug_str:0000000000000518 .LASF99
     /tmp/cc0wmPoy.s:3802   .debug_str:00000000000002cd .LASF100
     /tmp/cc0wmPoy.s:3736   .debug_str:00000000000000d4 .LASF101
     /tmp/cc0wmPoy.s:3966   .debug_str:0000000000000799 .LASF102
     /tmp/cc0wmPoy.s:3808   .debug_str:00000000000002fd .LASF103
     /tmp/cc0wmPoy.s:3804   .debug_str:00000000000002e0 .LASF104
     /tmp/cc0wmPoy.s:3792   .debug_str:000000000000025e .LASF155
     /tmp/cc0wmPoy.s:3912   .debug_str:00000000000005e7 .LASF107
     /tmp/cc0wmPoy.s:690    .text:0000000000000360 .LFB42
     /tmp/cc0wmPoy.s:716    .text:0000000000000388 .LFE42
     /tmp/cc0wmPoy.s:3420   .debug_loc:0000000000000000 .LLST15
     /tmp/cc0wmPoy.s:705    .text:0000000000000378 .LVL47
     /tmp/cc0wmPoy.s:659    .text:0000000000000338 .LFB41
     /tmp/cc0wmPoy.s:684    .text:0000000000000360 .LFE41
     /tmp/cc0wmPoy.s:673    .text:0000000000000350 .LVL45
     /tmp/cc0wmPoy.s:625    .text:000000000000030c .LFB40
     /tmp/cc0wmPoy.s:653    .text:0000000000000338 .LFE40
     /tmp/cc0wmPoy.s:3920   .debug_str:0000000000000649 .LASF108
     /tmp/cc0wmPoy.s:3434   .debug_loc:0000000000000039 .LLST14
     /tmp/cc0wmPoy.s:642    .text:0000000000000328 .LVL44
     /tmp/cc0wmPoy.s:591    .text:00000000000002e0 .LFB39
     /tmp/cc0wmPoy.s:619    .text:000000000000030c .LFE39
     /tmp/cc0wmPoy.s:3448   .debug_loc:0000000000000072 .LLST13
     /tmp/cc0wmPoy.s:608    .text:00000000000002fc .LVL41
     /tmp/cc0wmPoy.s:3722   .debug_str:0000000000000096 .LASF109
GAS LISTING /tmp/cc0wmPoy.s 			page 25


     /tmp/cc0wmPoy.s:4014   .debug_str:00000000000009db .LASF110
     /tmp/cc0wmPoy.s:293    .text:000000000000013c .LFB38
     /tmp/cc0wmPoy.s:326    .text:000000000000017c .LFE38
     /tmp/cc0wmPoy.s:3462   .debug_loc:00000000000000ab .LLST7
     /tmp/cc0wmPoy.s:310    .text:000000000000015c .LVL20
     /tmp/cc0wmPoy.s:313    .text:0000000000000168 .LVL21
     /tmp/cc0wmPoy.s:3824   .debug_str:0000000000000380 .LASF111
     /tmp/cc0wmPoy.s:140    .text:0000000000000074 .LFB36
     /tmp/cc0wmPoy.s:175    .text:00000000000000ac .LFE36
     /tmp/cc0wmPoy.s:3480   .debug_loc:00000000000000f7 .LLST3
     /tmp/cc0wmPoy.s:163    .text:000000000000009c .LVL10
     /tmp/cc0wmPoy.s:3830   .debug_str:00000000000003ac .LASF116
     /tmp/cc0wmPoy.s:3864   .debug_str:0000000000000480 .LASF112
     /tmp/cc0wmPoy.s:550    .text:00000000000002a8 .LFB33
     /tmp/cc0wmPoy.s:583    .text:00000000000002e0 .LFE33
     /tmp/cc0wmPoy.s:3494   .debug_loc:0000000000000130 .LLST11
     /tmp/cc0wmPoy.s:3514   .debug_loc:000000000000017e .LLST12
     /tmp/cc0wmPoy.s:571    .text:00000000000002d0 .LVL38
     /tmp/cc0wmPoy.s:519    .text:0000000000000280 .LFB31
     /tmp/cc0wmPoy.s:544    .text:00000000000002a8 .LFE31
     /tmp/cc0wmPoy.s:533    .text:0000000000000298 .LVL35
     /tmp/cc0wmPoy.s:464    .text:000000000000022c .LFB30
     /tmp/cc0wmPoy.s:513    .text:0000000000000280 .LFE30
     /tmp/cc0wmPoy.s:3528   .debug_loc:00000000000001b7 .LLST10
     /tmp/cc0wmPoy.s:487    .text:0000000000000254 .LVL31
     /tmp/cc0wmPoy.s:509    .text:000000000000027c .LVL34
     /tmp/cc0wmPoy.s:3762   .debug_str:00000000000001ac .LASF113
     /tmp/cc0wmPoy.s:254    .text:00000000000000fc .LFB29
     /tmp/cc0wmPoy.s:287    .text:000000000000013c .LFE29
     /tmp/cc0wmPoy.s:3563   .debug_loc:0000000000000241 .LLST6
     /tmp/cc0wmPoy.s:271    .text:000000000000011c .LVL16
     /tmp/cc0wmPoy.s:274    .text:0000000000000128 .LVL17
     /tmp/cc0wmPoy.s:3846   .debug_str:00000000000003fe .LASF114
     /tmp/cc0wmPoy.s:37     .text:0000000000000000 .LFB27
     /tmp/cc0wmPoy.s:83     .text:0000000000000040 .LFE27
     /tmp/cc0wmPoy.s:3581   .debug_loc:000000000000028d .LLST0
     /tmp/cc0wmPoy.s:68     .text:000000000000002c .LVL3
     /tmp/cc0wmPoy.s:3768   .debug_str:00000000000001ce .LASF115
     /tmp/cc0wmPoy.s:430    .text:00000000000001fc .LFB24
     /tmp/cc0wmPoy.s:456    .text:000000000000022c .LFE24
     /tmp/cc0wmPoy.s:3820   .debug_str:0000000000000361 .LASF117
     /tmp/cc0wmPoy.s:396    .text:00000000000001cc .LFB21
     /tmp/cc0wmPoy.s:422    .text:00000000000001fc .LFE21
     /tmp/cc0wmPoy.s:99     .text:0000000000000040 .LFB19
     /tmp/cc0wmPoy.s:134    .text:0000000000000074 .LFE19
     /tmp/cc0wmPoy.s:3595   .debug_loc:00000000000002c6 .LLST1
     /tmp/cc0wmPoy.s:3880   .debug_str:00000000000004fc .LASF118
     /tmp/cc0wmPoy.s:3609   .debug_loc:00000000000002ff .LLST2
     /tmp/cc0wmPoy.s:119    .text:000000000000005c .LVL6
     /tmp/cc0wmPoy.s:123    .text:0000000000000064 .LVL7
     /tmp/cc0wmPoy.s:3946   .debug_str:000000000000070b .LASF119
     /tmp/cc0wmPoy.s:364    .text:00000000000001a4 .LFB18
     /tmp/cc0wmPoy.s:390    .text:00000000000001cc .LFE18
     /tmp/cc0wmPoy.s:3623   .debug_loc:0000000000000338 .LLST9
     /tmp/cc0wmPoy.s:379    .text:00000000000001bc .LVL26
     /tmp/cc0wmPoy.s:3906   .debug_str:00000000000005cc .LASF120
     /tmp/cc0wmPoy.s:332    .text:000000000000017c .LFB17
GAS LISTING /tmp/cc0wmPoy.s 			page 26


     /tmp/cc0wmPoy.s:358    .text:00000000000001a4 .LFE17
     /tmp/cc0wmPoy.s:3928   .debug_str:0000000000000695 .LASF121
     /tmp/cc0wmPoy.s:3637   .debug_loc:0000000000000371 .LLST8
     /tmp/cc0wmPoy.s:347    .text:0000000000000194 .LVL24
     /tmp/cc0wmPoy.s:3734   .debug_str:00000000000000cd .LASF122
     /tmp/cc0wmPoy.s:222    .text:00000000000000d4 .LFB16
     /tmp/cc0wmPoy.s:248    .text:00000000000000fc .LFE16
     /tmp/cc0wmPoy.s:3651   .debug_loc:00000000000003aa .LLST5
     /tmp/cc0wmPoy.s:237    .text:00000000000000ec .LVL14
     /tmp/cc0wmPoy.s:3944   .debug_str:0000000000000705 .LASF123
     /tmp/cc0wmPoy.s:190    .text:00000000000000ac .LFB15
     /tmp/cc0wmPoy.s:216    .text:00000000000000d4 .LFE15
     /tmp/cc0wmPoy.s:3665   .debug_loc:00000000000003e3 .LLST4
     /tmp/cc0wmPoy.s:205    .text:00000000000000c4 .LVL12
     /tmp/cc0wmPoy.s:11     .text._ZN6Thread3runEv:0000000000000000 .LFB13
     /tmp/cc0wmPoy.s:30     .text._ZN6Thread3runEv:0000000000000018 .LFE13
     /tmp/cc0wmPoy.s:3796   .debug_str:000000000000028d .LASF124
     /tmp/cc0wmPoy.s:3954   .debug_str:000000000000073e .LASF125
     /tmp/cc0wmPoy.s:3868   .debug_str:00000000000004ac .LASF127
     /tmp/cc0wmPoy.s:3980   .debug_str:00000000000008b3 .LASF128
     /tmp/cc0wmPoy.s:3786   .debug_str:0000000000000237 .LASF129
     /tmp/cc0wmPoy.s:3754   .debug_str:0000000000000178 .LASF130
     /tmp/cc0wmPoy.s:3866   .debug_str:0000000000000492 .LASF131
     /tmp/cc0wmPoy.s:3960   .debug_str:0000000000000763 .LASF132
     /tmp/cc0wmPoy.s:3964   .debug_str:000000000000077e .LASF133
     /tmp/cc0wmPoy.s:3788   .debug_str:0000000000000250 .LASF134
     /tmp/cc0wmPoy.s:3772   .debug_str:00000000000001e4 .LASF135
     /tmp/cc0wmPoy.s:3842   .debug_str:00000000000003e9 .LASF136
     /tmp/cc0wmPoy.s:3710   .debug_str:0000000000000032 .LASF137
     /tmp/cc0wmPoy.s:3764   .debug_str:00000000000001bb .LASF138
     /tmp/cc0wmPoy.s:3986   .debug_str:00000000000008de .LASF139
     /tmp/cc0wmPoy.s:3780   .debug_str:0000000000000220 .LASF140
     /tmp/cc0wmPoy.s:3894   .debug_str:0000000000000567 .LASF141
     /tmp/cc0wmPoy.s:3720   .debug_str:000000000000008a .LASF142
     /tmp/cc0wmPoy.s:3756   .debug_str:0000000000000181 .LASF143
     /tmp/cc0wmPoy.s:3950   .debug_str:0000000000000724 .LASF144
     /tmp/cc0wmPoy.s:693    .text:0000000000000360 .LVL46
     /tmp/cc0wmPoy.s:628    .text:000000000000030c .LVL42
     /tmp/cc0wmPoy.s:640    .text:0000000000000320 .LVL43
     /tmp/cc0wmPoy.s:594    .text:00000000000002e0 .LVL39
     /tmp/cc0wmPoy.s:606    .text:00000000000002f4 .LVL40
     /tmp/cc0wmPoy.s:296    .text:000000000000013c .LVL19
     /tmp/cc0wmPoy.s:321    .text:0000000000000174 .LVL22
     /tmp/cc0wmPoy.s:145    .text:0000000000000074 .LVL8
     /tmp/cc0wmPoy.s:161    .text:0000000000000094 .LVL9
     /tmp/cc0wmPoy.s:553    .text:00000000000002a8 .LVL36
     /tmp/cc0wmPoy.s:569    .text:00000000000002c8 .LVL37
     /tmp/cc0wmPoy.s:467    .text:000000000000022c .LVL29
     /tmp/cc0wmPoy.s:485    .text:000000000000024c .LVL30
     /tmp/cc0wmPoy.s:499    .text:0000000000000264 .LVL32
     /tmp/cc0wmPoy.s:507    .text:0000000000000274 .LVL33
     /tmp/cc0wmPoy.s:257    .text:00000000000000fc .LVL15
     /tmp/cc0wmPoy.s:282    .text:0000000000000134 .LVL18
     /tmp/cc0wmPoy.s:43     .text:0000000000000000 .LVL1
     /tmp/cc0wmPoy.s:51     .text:0000000000000010 .LVL2
     /tmp/cc0wmPoy.s:102    .text:0000000000000040 .LVL4
     /tmp/cc0wmPoy.s:112    .text:0000000000000050 .LVL5
GAS LISTING /tmp/cc0wmPoy.s 			page 27


     /tmp/cc0wmPoy.s:367    .text:00000000000001a4 .LVL25
     /tmp/cc0wmPoy.s:335    .text:000000000000017c .LVL23
     /tmp/cc0wmPoy.s:225    .text:00000000000000d4 .LVL13
     /tmp/cc0wmPoy.s:193    .text:00000000000000ac .LVL11
     /tmp/cc0wmPoy.s:746    .debug_info:0000000000000000 .Ldebug_info0
     /tmp/cc0wmPoy.s:5      .text:0000000000000000 .Ltext0
     /tmp/cc0wmPoy.s:740    .text:0000000000000388 .Letext0
     /tmp/cc0wmPoy.s:86     .gcc_except_table:0000000000000000 .LLSDA27
     /tmp/cc0wmPoy.s:177    .gcc_except_table:0000000000000004 .LLSDA36

UNDEFINED SYMBOLS
_Z8mem_freePv
__gxx_personality_v0
_Z11thread_exitv
_Z9sem_closeP10KSemaphore
_Z9mem_allocm
_Z13thread_createPP7KThreadPFvPvES2_
_Z15thread_dispatchv
_Z8sem_openPP10KSemaphorej
_Z8sem_waitP10KSemaphore
_Z10sem_signalP10KSemaphore
_Z4getcv
_Z4putcc
