GAS LISTING /tmp/cccKGXH1.s 			page 1


   1              		.file	"syscall_cpp.cpp"
   2              		.option pic
   3              		.option norelax
   4              		.text
   5              	.Ltext0:
   6              		.section	.text._ZN6Thread3runEv,"axG",@progbits,_ZN6Thread3runEv,comdat
   7              		.align	2
   8              		.weak	_ZN6Thread3runEv
  10              	_ZN6Thread3runEv:
  11              	.LFB13:
  12              		.file 1 "src/../h/syscall_cpp.hpp"
   1:src/../h/syscall_cpp.hpp **** //
   2:src/../h/syscall_cpp.hpp **** // Created by os on 10/15/25.
   3:src/../h/syscall_cpp.hpp **** //
   4:src/../h/syscall_cpp.hpp **** 
   5:src/../h/syscall_cpp.hpp **** #ifndef PROJECT_BASE_SYSCALL_CPP_HPP
   6:src/../h/syscall_cpp.hpp **** #define PROJECT_BASE_SYSCALL_CPP_HPP
   7:src/../h/syscall_cpp.hpp **** 
   8:src/../h/syscall_cpp.hpp **** #include "syscall_c.hpp"
   9:src/../h/syscall_cpp.hpp **** #include "KThread.hpp"
  10:src/../h/syscall_cpp.hpp **** #include "KSemaphore.hpp"
  11:src/../h/syscall_cpp.hpp **** 
  12:src/../h/syscall_cpp.hpp **** void* operator new (size_t);
  13:src/../h/syscall_cpp.hpp **** void operator delete (void*);
  14:src/../h/syscall_cpp.hpp **** 
  15:src/../h/syscall_cpp.hpp **** class Thread {
  16:src/../h/syscall_cpp.hpp **** public:
  17:src/../h/syscall_cpp.hpp ****     Thread (void (*body)(void*), void* arg);
  18:src/../h/syscall_cpp.hpp ****     virtual ~Thread ();
  19:src/../h/syscall_cpp.hpp ****     int start ();
  20:src/../h/syscall_cpp.hpp ****     static void dispatch ();
  21:src/../h/syscall_cpp.hpp ****     static int sleep (time_t);
  22:src/../h/syscall_cpp.hpp **** protected:
  23:src/../h/syscall_cpp.hpp ****     Thread ();
  24:src/../h/syscall_cpp.hpp ****     virtual void run () {}
  13              		.loc 1 24 18
  14              		.cfi_startproc
  15              	.LVL0:
  16 0000 130101FF 		addi	sp,sp,-16
  17              		.cfi_def_cfa_offset 16
  18 0004 23348100 		sd	s0,8(sp)
  19              		.cfi_offset 8, -8
  20 0008 13040101 		addi	s0,sp,16
  21              		.cfi_def_cfa 8, 0
  22              		.loc 1 24 26 is_stmt 0
  23 000c 03348100 		ld	s0,8(sp)
  24              		.cfi_restore 8
  25              		.cfi_def_cfa 2, 16
  26 0010 13010101 		addi	sp,sp,16
  27              		.cfi_def_cfa_offset 0
  28 0014 67800000 		jr	ra
  29              		.cfi_endproc
  30              	.LFE13:
  32              		.text
  33              		.align	2
  34              		.globl	_ZN6ThreadD2Ev
  36              	_ZN6ThreadD2Ev:
GAS LISTING /tmp/cccKGXH1.s 			page 2


  37              	.LFB27:
  38              		.file 2 "src/syscall_cpp.cpp"
   1:src/syscall_cpp.cpp **** //
   2:src/syscall_cpp.cpp **** // Created by os on 10/15/25.
   3:src/syscall_cpp.cpp **** //
   4:src/syscall_cpp.cpp **** 
   5:src/syscall_cpp.cpp **** #include "../h/syscall_cpp.hpp"
   6:src/syscall_cpp.cpp **** 
   7:src/syscall_cpp.cpp **** void* operator new(size_t size) {
   8:src/syscall_cpp.cpp ****     return mem_alloc(size);
   9:src/syscall_cpp.cpp **** }
  10:src/syscall_cpp.cpp **** 
  11:src/syscall_cpp.cpp **** void operator delete(void* ptr) {
  12:src/syscall_cpp.cpp ****     mem_free(ptr);
  13:src/syscall_cpp.cpp **** }
  14:src/syscall_cpp.cpp **** 
  15:src/syscall_cpp.cpp **** void* operator new[](size_t size) {
  16:src/syscall_cpp.cpp ****     return mem_alloc(size);
  17:src/syscall_cpp.cpp **** }
  18:src/syscall_cpp.cpp **** 
  19:src/syscall_cpp.cpp **** void operator delete[](void* ptr) {
  20:src/syscall_cpp.cpp ****     mem_free(ptr);
  21:src/syscall_cpp.cpp **** }
  22:src/syscall_cpp.cpp **** 
  23:src/syscall_cpp.cpp **** void Thread::wrapper(void* arg) {
  24:src/syscall_cpp.cpp ****     Thread* thread = (Thread*)arg;
  25:src/syscall_cpp.cpp ****     thread->run();
  26:src/syscall_cpp.cpp ****     thread_exit();
  27:src/syscall_cpp.cpp **** }
  28:src/syscall_cpp.cpp **** 
  29:src/syscall_cpp.cpp **** Thread::Thread(void (*body)(void*), void* arg)
  30:src/syscall_cpp.cpp ****     : myHandle(nullptr), body(body), arg(arg) {}
  31:src/syscall_cpp.cpp **** 
  32:src/syscall_cpp.cpp **** Thread::Thread()
  33:src/syscall_cpp.cpp ****     : myHandle(nullptr), body(nullptr), arg(nullptr) {}
  34:src/syscall_cpp.cpp **** 
  35:src/syscall_cpp.cpp **** Thread::~Thread() {
  39              		.loc 2 35 1 is_stmt 1
  40              		.cfi_startproc
  41              		.cfi_personality 0x9b,DW.ref.__gxx_personality_v0
  42              		.cfi_lsda 0x1b,.LLSDA27
  43              	.LVL1:
  44              	.LBB2:
  45              		.loc 2 35 17 is_stmt 0
  46 0000 97070000 		lla	a5,_ZTV6Thread+16
  46      93870700 
  47 0008 2330F500 		sd	a5,0(a0)
  36:src/syscall_cpp.cpp ****     if (myHandle) {
  48              		.loc 2 36 5 is_stmt 1
  49              		.loc 2 36 9 is_stmt 0
  50 000c 03358500 		ld	a0,8(a0)
  51              	.LVL2:
  52              		.loc 2 36 5
  53 0010 63060502 		beqz	a0,.L6
  54              	.LBE2:
  35:src/syscall_cpp.cpp ****     if (myHandle) {
  55              		.loc 2 35 1
GAS LISTING /tmp/cccKGXH1.s 			page 3


  56 0014 130101FF 		addi	sp,sp,-16
  57              		.cfi_def_cfa_offset 16
  58 0018 23341100 		sd	ra,8(sp)
  59 001c 23308100 		sd	s0,0(sp)
  60              		.cfi_offset 1, -8
  61              		.cfi_offset 8, -16
  62 0020 13040101 		addi	s0,sp,16
  63              		.cfi_def_cfa 8, 0
  64              	.LBB3:
  37:src/syscall_cpp.cpp ****         mem_free(myHandle);
  65              		.loc 2 37 9 is_stmt 1
  66              		.loc 2 37 17 is_stmt 0
  67 0024 97000000 		call	_Z8mem_freePv@plt
  67      E7800000 
  68              	.LVL3:
  38:src/syscall_cpp.cpp ****         myHandle = nullptr;
  69              		.loc 2 38 9 is_stmt 1
  70              	.LBE3:
  39:src/syscall_cpp.cpp ****     }
  40:src/syscall_cpp.cpp **** }
  71              		.loc 2 40 1 is_stmt 0
  72 002c 83308100 		ld	ra,8(sp)
  73              		.cfi_restore 1
  74 0030 03340100 		ld	s0,0(sp)
  75              		.cfi_restore 8
  76              		.cfi_def_cfa 2, 16
  77 0034 13010101 		addi	sp,sp,16
  78              		.cfi_def_cfa_offset 0
  79 0038 67800000 		jr	ra
  80              	.L6:
  81 003c 67800000 		ret
  82              		.cfi_endproc
  83              	.LFE27:
  84              		.globl	__gxx_personality_v0
  85              		.section	.gcc_except_table,"a",@progbits
  86              	.LLSDA27:
  87 0000 FF       		.byte	0xff
  88 0001 FF       		.byte	0xff
  89 0002 03       		.byte	0x3
  90 0003 00       		.byte	0
  91              		.text
  93              		.globl	_ZN6ThreadD1Ev
  94              		.set	_ZN6ThreadD1Ev,_ZN6ThreadD2Ev
  95              		.align	2
  96              		.globl	_ZN6Thread7wrapperEPv
  98              	_ZN6Thread7wrapperEPv:
  99              	.LFB19:
  23:src/syscall_cpp.cpp ****     Thread* thread = (Thread*)arg;
 100              		.loc 2 23 33 is_stmt 1
 101              		.cfi_startproc
 102              	.LVL4:
 103 0040 130101FF 		addi	sp,sp,-16
 104              		.cfi_def_cfa_offset 16
 105 0044 23341100 		sd	ra,8(sp)
 106 0048 23308100 		sd	s0,0(sp)
 107              		.cfi_offset 1, -8
 108              		.cfi_offset 8, -16
GAS LISTING /tmp/cccKGXH1.s 			page 4


 109 004c 13040101 		addi	s0,sp,16
 110              		.cfi_def_cfa 8, 0
  24:src/syscall_cpp.cpp ****     thread->run();
 111              		.loc 2 24 5
 112              	.LVL5:
  25:src/syscall_cpp.cpp ****     thread_exit();
 113              		.loc 2 25 5
  25:src/syscall_cpp.cpp ****     thread_exit();
 114              		.loc 2 25 17 is_stmt 0
 115 0050 83370500 		ld	a5,0(a0)
 116 0054 83B70701 		ld	a5,16(a5)
  25:src/syscall_cpp.cpp ****     thread_exit();
 117              		.loc 2 25 16
 118 0058 E7800700 		jalr	a5
 119              	.LVL6:
  26:src/syscall_cpp.cpp **** }
 120              		.loc 2 26 5 is_stmt 1
  26:src/syscall_cpp.cpp **** }
 121              		.loc 2 26 16 is_stmt 0
 122 005c 97000000 		call	_Z11thread_exitv@plt
 122      E7800000 
 123              	.LVL7:
  27:src/syscall_cpp.cpp **** 
 124              		.loc 2 27 1
 125 0064 83308100 		ld	ra,8(sp)
 126              		.cfi_restore 1
 127 0068 03340100 		ld	s0,0(sp)
 128              		.cfi_restore 8
 129              		.cfi_def_cfa 2, 16
 130 006c 13010101 		addi	sp,sp,16
 131              		.cfi_def_cfa_offset 0
 132 0070 67800000 		jr	ra
 133              		.cfi_endproc
 134              	.LFE19:
 136              		.align	2
 137              		.globl	_ZN9SemaphoreD2Ev
 139              	_ZN9SemaphoreD2Ev:
 140              	.LFB36:
  41:src/syscall_cpp.cpp **** 
  42:src/syscall_cpp.cpp **** int Thread::start() {
  43:src/syscall_cpp.cpp ****     if (body != nullptr) {
  44:src/syscall_cpp.cpp ****         return thread_create(&myHandle, body, arg);
  45:src/syscall_cpp.cpp ****     }
  46:src/syscall_cpp.cpp **** 
  47:src/syscall_cpp.cpp ****     return thread_create(&myHandle, wrapper, this);
  48:src/syscall_cpp.cpp **** }
  49:src/syscall_cpp.cpp **** 
  50:src/syscall_cpp.cpp **** void Thread::dispatch() {
  51:src/syscall_cpp.cpp ****     thread_dispatch();
  52:src/syscall_cpp.cpp **** }
  53:src/syscall_cpp.cpp **** 
  54:src/syscall_cpp.cpp **** 
  55:src/syscall_cpp.cpp **** Semaphore::Semaphore(unsigned init) {
  56:src/syscall_cpp.cpp ****     sem_open(&myHandle, init);
  57:src/syscall_cpp.cpp **** }
  58:src/syscall_cpp.cpp **** 
  59:src/syscall_cpp.cpp **** Semaphore::~Semaphore() {
GAS LISTING /tmp/cccKGXH1.s 			page 5


 141              		.loc 2 59 1 is_stmt 1
 142              		.cfi_startproc
 143              		.cfi_personality 0x9b,DW.ref.__gxx_personality_v0
 144              		.cfi_lsda 0x1b,.LLSDA36
 145              	.LVL8:
 146 0074 130101FF 		addi	sp,sp,-16
 147              		.cfi_def_cfa_offset 16
 148 0078 23341100 		sd	ra,8(sp)
 149 007c 23308100 		sd	s0,0(sp)
 150              		.cfi_offset 1, -8
 151              		.cfi_offset 8, -16
 152 0080 13040101 		addi	s0,sp,16
 153              		.cfi_def_cfa 8, 0
 154              	.LBB4:
 155              		.loc 2 59 23 is_stmt 0
 156 0084 97070000 		lla	a5,_ZTV9Semaphore+16
 156      93870700 
 157 008c 2330F500 		sd	a5,0(a0)
  60:src/syscall_cpp.cpp ****     sem_close(myHandle);
 158              		.loc 2 60 5 is_stmt 1
 159              		.loc 2 60 14 is_stmt 0
 160 0090 03358500 		ld	a0,8(a0)
 161              	.LVL9:
 162 0094 97000000 		call	_Z9sem_closeP10KSemaphore@plt
 162      E7800000 
 163              	.LVL10:
 164              	.LBE4:
  61:src/syscall_cpp.cpp **** }
 165              		.loc 2 61 1
 166 009c 83308100 		ld	ra,8(sp)
 167              		.cfi_restore 1
 168 00a0 03340100 		ld	s0,0(sp)
 169              		.cfi_restore 8
 170              		.cfi_def_cfa 2, 16
 171 00a4 13010101 		addi	sp,sp,16
 172              		.cfi_def_cfa_offset 0
 173 00a8 67800000 		jr	ra
 174              		.cfi_endproc
 175              	.LFE36:
 176              		.section	.gcc_except_table
 177              	.LLSDA36:
 178 0004 FF       		.byte	0xff
 179 0005 FF       		.byte	0xff
 180 0006 03       		.byte	0x3
 181 0007 00       		.byte	0
 182              		.text
 184              		.globl	_ZN9SemaphoreD1Ev
 185              		.set	_ZN9SemaphoreD1Ev,_ZN9SemaphoreD2Ev
 186              		.align	2
 187              		.globl	_Znwm
 189              	_Znwm:
 190              	.LFB15:
   7:src/syscall_cpp.cpp ****     return mem_alloc(size);
 191              		.loc 2 7 33 is_stmt 1
 192              		.cfi_startproc
 193              	.LVL11:
 194 00ac 130101FF 		addi	sp,sp,-16
GAS LISTING /tmp/cccKGXH1.s 			page 6


 195              		.cfi_def_cfa_offset 16
 196 00b0 23341100 		sd	ra,8(sp)
 197 00b4 23308100 		sd	s0,0(sp)
 198              		.cfi_offset 1, -8
 199              		.cfi_offset 8, -16
 200 00b8 13040101 		addi	s0,sp,16
 201              		.cfi_def_cfa 8, 0
   8:src/syscall_cpp.cpp **** }
 202              		.loc 2 8 5
   8:src/syscall_cpp.cpp **** }
 203              		.loc 2 8 21 is_stmt 0
 204 00bc 97000000 		call	_Z9mem_allocm@plt
 204      E7800000 
 205              	.LVL12:
   9:src/syscall_cpp.cpp **** 
 206              		.loc 2 9 1
 207 00c4 83308100 		ld	ra,8(sp)
 208              		.cfi_restore 1
 209 00c8 03340100 		ld	s0,0(sp)
 210              		.cfi_restore 8
 211              		.cfi_def_cfa 2, 16
 212 00cc 13010101 		addi	sp,sp,16
 213              		.cfi_def_cfa_offset 0
 214 00d0 67800000 		jr	ra
 215              		.cfi_endproc
 216              	.LFE15:
 218              		.align	2
 219              		.globl	_ZdlPv
 221              	_ZdlPv:
 222              	.LFB16:
  11:src/syscall_cpp.cpp ****     mem_free(ptr);
 223              		.loc 2 11 33 is_stmt 1
 224              		.cfi_startproc
 225              	.LVL13:
 226 00d4 130101FF 		addi	sp,sp,-16
 227              		.cfi_def_cfa_offset 16
 228 00d8 23341100 		sd	ra,8(sp)
 229 00dc 23308100 		sd	s0,0(sp)
 230              		.cfi_offset 1, -8
 231              		.cfi_offset 8, -16
 232 00e0 13040101 		addi	s0,sp,16
 233              		.cfi_def_cfa 8, 0
  12:src/syscall_cpp.cpp **** }
 234              		.loc 2 12 5
  12:src/syscall_cpp.cpp **** }
 235              		.loc 2 12 13 is_stmt 0
 236 00e4 97000000 		call	_Z8mem_freePv@plt
 236      E7800000 
 237              	.LVL14:
  13:src/syscall_cpp.cpp **** 
 238              		.loc 2 13 1
 239 00ec 83308100 		ld	ra,8(sp)
 240              		.cfi_restore 1
 241 00f0 03340100 		ld	s0,0(sp)
 242              		.cfi_restore 8
 243              		.cfi_def_cfa 2, 16
 244 00f4 13010101 		addi	sp,sp,16
GAS LISTING /tmp/cccKGXH1.s 			page 7


 245              		.cfi_def_cfa_offset 0
 246 00f8 67800000 		jr	ra
 247              		.cfi_endproc
 248              	.LFE16:
 250              		.align	2
 251              		.globl	_ZN6ThreadD0Ev
 253              	_ZN6ThreadD0Ev:
 254              	.LFB29:
  35:src/syscall_cpp.cpp ****     if (myHandle) {
 255              		.loc 2 35 1 is_stmt 1
 256              		.cfi_startproc
 257              	.LVL15:
 258 00fc 130101FE 		addi	sp,sp,-32
 259              		.cfi_def_cfa_offset 32
 260 0100 233C1100 		sd	ra,24(sp)
 261 0104 23388100 		sd	s0,16(sp)
 262 0108 23349100 		sd	s1,8(sp)
 263              		.cfi_offset 1, -8
 264              		.cfi_offset 8, -16
 265              		.cfi_offset 9, -24
 266 010c 13040102 		addi	s0,sp,32
 267              		.cfi_def_cfa 8, 0
 268 0110 93040500 		mv	s1,a0
  40:src/syscall_cpp.cpp **** 
 269              		.loc 2 40 1 is_stmt 0
 270 0114 97000000 		call	_ZN6ThreadD1Ev
 270      E7800000 
 271              	.LVL16:
 272 011c 13850400 		mv	a0,s1
 273 0120 97000000 		call	_ZdlPv
 273      E7800000 
 274              	.LVL17:
 275 0128 83308101 		ld	ra,24(sp)
 276              		.cfi_restore 1
 277 012c 03340101 		ld	s0,16(sp)
 278              		.cfi_restore 8
 279              		.cfi_def_cfa 2, 32
 280 0130 83348100 		ld	s1,8(sp)
 281              		.cfi_restore 9
 282              	.LVL18:
 283 0134 13010102 		addi	sp,sp,32
 284              		.cfi_def_cfa_offset 0
 285 0138 67800000 		jr	ra
 286              		.cfi_endproc
 287              	.LFE29:
 289              		.align	2
 290              		.globl	_ZN9SemaphoreD0Ev
 292              	_ZN9SemaphoreD0Ev:
 293              	.LFB38:
  59:src/syscall_cpp.cpp ****     sem_close(myHandle);
 294              		.loc 2 59 1 is_stmt 1
 295              		.cfi_startproc
 296              	.LVL19:
 297 013c 130101FE 		addi	sp,sp,-32
 298              		.cfi_def_cfa_offset 32
 299 0140 233C1100 		sd	ra,24(sp)
 300 0144 23388100 		sd	s0,16(sp)
GAS LISTING /tmp/cccKGXH1.s 			page 8


 301 0148 23349100 		sd	s1,8(sp)
 302              		.cfi_offset 1, -8
 303              		.cfi_offset 8, -16
 304              		.cfi_offset 9, -24
 305 014c 13040102 		addi	s0,sp,32
 306              		.cfi_def_cfa 8, 0
 307 0150 93040500 		mv	s1,a0
 308              		.loc 2 61 1 is_stmt 0
 309 0154 97000000 		call	_ZN9SemaphoreD1Ev
 309      E7800000 
 310              	.LVL20:
 311 015c 13850400 		mv	a0,s1
 312 0160 97000000 		call	_ZdlPv
 312      E7800000 
 313              	.LVL21:
 314 0168 83308101 		ld	ra,24(sp)
 315              		.cfi_restore 1
 316 016c 03340101 		ld	s0,16(sp)
 317              		.cfi_restore 8
 318              		.cfi_def_cfa 2, 32
 319 0170 83348100 		ld	s1,8(sp)
 320              		.cfi_restore 9
 321              	.LVL22:
 322 0174 13010102 		addi	sp,sp,32
 323              		.cfi_def_cfa_offset 0
 324 0178 67800000 		jr	ra
 325              		.cfi_endproc
 326              	.LFE38:
 328              		.align	2
 329              		.globl	_Znam
 331              	_Znam:
 332              	.LFB17:
  15:src/syscall_cpp.cpp ****     return mem_alloc(size);
 333              		.loc 2 15 35 is_stmt 1
 334              		.cfi_startproc
 335              	.LVL23:
 336 017c 130101FF 		addi	sp,sp,-16
 337              		.cfi_def_cfa_offset 16
 338 0180 23341100 		sd	ra,8(sp)
 339 0184 23308100 		sd	s0,0(sp)
 340              		.cfi_offset 1, -8
 341              		.cfi_offset 8, -16
 342 0188 13040101 		addi	s0,sp,16
 343              		.cfi_def_cfa 8, 0
  16:src/syscall_cpp.cpp **** }
 344              		.loc 2 16 5
  16:src/syscall_cpp.cpp **** }
 345              		.loc 2 16 21 is_stmt 0
 346 018c 97000000 		call	_Z9mem_allocm@plt
 346      E7800000 
 347              	.LVL24:
  17:src/syscall_cpp.cpp **** 
 348              		.loc 2 17 1
 349 0194 83308100 		ld	ra,8(sp)
 350              		.cfi_restore 1
 351 0198 03340100 		ld	s0,0(sp)
 352              		.cfi_restore 8
GAS LISTING /tmp/cccKGXH1.s 			page 9


 353              		.cfi_def_cfa 2, 16
 354 019c 13010101 		addi	sp,sp,16
 355              		.cfi_def_cfa_offset 0
 356 01a0 67800000 		jr	ra
 357              		.cfi_endproc
 358              	.LFE17:
 360              		.align	2
 361              		.globl	_ZdaPv
 363              	_ZdaPv:
 364              	.LFB18:
  19:src/syscall_cpp.cpp ****     mem_free(ptr);
 365              		.loc 2 19 35 is_stmt 1
 366              		.cfi_startproc
 367              	.LVL25:
 368 01a4 130101FF 		addi	sp,sp,-16
 369              		.cfi_def_cfa_offset 16
 370 01a8 23341100 		sd	ra,8(sp)
 371 01ac 23308100 		sd	s0,0(sp)
 372              		.cfi_offset 1, -8
 373              		.cfi_offset 8, -16
 374 01b0 13040101 		addi	s0,sp,16
 375              		.cfi_def_cfa 8, 0
  20:src/syscall_cpp.cpp **** }
 376              		.loc 2 20 5
  20:src/syscall_cpp.cpp **** }
 377              		.loc 2 20 13 is_stmt 0
 378 01b4 97000000 		call	_Z8mem_freePv@plt
 378      E7800000 
 379              	.LVL26:
  21:src/syscall_cpp.cpp **** 
 380              		.loc 2 21 1
 381 01bc 83308100 		ld	ra,8(sp)
 382              		.cfi_restore 1
 383 01c0 03340100 		ld	s0,0(sp)
 384              		.cfi_restore 8
 385              		.cfi_def_cfa 2, 16
 386 01c4 13010101 		addi	sp,sp,16
 387              		.cfi_def_cfa_offset 0
 388 01c8 67800000 		jr	ra
 389              		.cfi_endproc
 390              	.LFE18:
 392              		.align	2
 393              		.globl	_ZN6ThreadC2EPFvPvES0_
 395              	_ZN6ThreadC2EPFvPvES0_:
 396              	.LFB21:
  29:src/syscall_cpp.cpp ****     : myHandle(nullptr), body(body), arg(arg) {}
 397              		.loc 2 29 1 is_stmt 1
 398              		.cfi_startproc
 399              	.LVL27:
 400 01cc 130101FF 		addi	sp,sp,-16
 401              		.cfi_def_cfa_offset 16
 402 01d0 23348100 		sd	s0,8(sp)
 403              		.cfi_offset 8, -8
 404 01d4 13040101 		addi	s0,sp,16
 405              		.cfi_def_cfa 8, 0
 406              	.LBB5:
  30:src/syscall_cpp.cpp **** 
GAS LISTING /tmp/cccKGXH1.s 			page 10


 407              		.loc 2 30 45 is_stmt 0
 408 01d8 97070000 		lla	a5,_ZTV6Thread+16
 408      93870700 
 409 01e0 2330F500 		sd	a5,0(a0)
 410 01e4 23340500 		sd	zero,8(a0)
 411 01e8 2338B500 		sd	a1,16(a0)
 412 01ec 233CC500 		sd	a2,24(a0)
 413              	.LBE5:
  30:src/syscall_cpp.cpp **** 
 414              		.loc 2 30 48
 415 01f0 03348100 		ld	s0,8(sp)
 416              		.cfi_restore 8
 417              		.cfi_def_cfa 2, 16
 418 01f4 13010101 		addi	sp,sp,16
 419              		.cfi_def_cfa_offset 0
 420 01f8 67800000 		jr	ra
 421              		.cfi_endproc
 422              	.LFE21:
 424              		.globl	_ZN6ThreadC1EPFvPvES0_
 425              		.set	_ZN6ThreadC1EPFvPvES0_,_ZN6ThreadC2EPFvPvES0_
 426              		.align	2
 427              		.globl	_ZN6ThreadC2Ev
 429              	_ZN6ThreadC2Ev:
 430              	.LFB24:
  32:src/syscall_cpp.cpp ****     : myHandle(nullptr), body(nullptr), arg(nullptr) {}
 431              		.loc 2 32 1 is_stmt 1
 432              		.cfi_startproc
 433              	.LVL28:
 434 01fc 130101FF 		addi	sp,sp,-16
 435              		.cfi_def_cfa_offset 16
 436 0200 23348100 		sd	s0,8(sp)
 437              		.cfi_offset 8, -8
 438 0204 13040101 		addi	s0,sp,16
 439              		.cfi_def_cfa 8, 0
 440              	.LBB6:
  33:src/syscall_cpp.cpp **** 
 441              		.loc 2 33 52 is_stmt 0
 442 0208 97070000 		lla	a5,_ZTV6Thread+16
 442      93870700 
 443 0210 2330F500 		sd	a5,0(a0)
 444 0214 23340500 		sd	zero,8(a0)
 445 0218 23380500 		sd	zero,16(a0)
 446 021c 233C0500 		sd	zero,24(a0)
 447              	.LBE6:
  33:src/syscall_cpp.cpp **** 
 448              		.loc 2 33 55
 449 0220 03348100 		ld	s0,8(sp)
 450              		.cfi_restore 8
 451              		.cfi_def_cfa 2, 16
 452 0224 13010101 		addi	sp,sp,16
 453              		.cfi_def_cfa_offset 0
 454 0228 67800000 		jr	ra
 455              		.cfi_endproc
 456              	.LFE24:
 458              		.globl	_ZN6ThreadC1Ev
 459              		.set	_ZN6ThreadC1Ev,_ZN6ThreadC2Ev
 460              		.align	2
GAS LISTING /tmp/cccKGXH1.s 			page 11


 461              		.globl	_ZN6Thread5startEv
 463              	_ZN6Thread5startEv:
 464              	.LFB30:
  42:src/syscall_cpp.cpp ****     if (body != nullptr) {
 465              		.loc 2 42 21 is_stmt 1
 466              		.cfi_startproc
 467              	.LVL29:
 468 022c 130101FF 		addi	sp,sp,-16
 469              		.cfi_def_cfa_offset 16
 470 0230 23341100 		sd	ra,8(sp)
 471 0234 23308100 		sd	s0,0(sp)
 472              		.cfi_offset 1, -8
 473              		.cfi_offset 8, -16
 474 0238 13040101 		addi	s0,sp,16
 475              		.cfi_def_cfa 8, 0
  43:src/syscall_cpp.cpp ****         return thread_create(&myHandle, body, arg);
 476              		.loc 2 43 5
  43:src/syscall_cpp.cpp ****         return thread_create(&myHandle, body, arg);
 477              		.loc 2 43 9 is_stmt 0
 478 023c 83350501 		ld	a1,16(a0)
  43:src/syscall_cpp.cpp ****         return thread_create(&myHandle, body, arg);
 479              		.loc 2 43 5
 480 0240 63820502 		beqz	a1,.L30
  44:src/syscall_cpp.cpp ****     }
 481              		.loc 2 44 9 is_stmt 1
  44:src/syscall_cpp.cpp ****     }
 482              		.loc 2 44 29 is_stmt 0
 483 0244 03368501 		ld	a2,24(a0)
 484 0248 13058500 		addi	a0,a0,8
 485              	.LVL30:
 486 024c 97000000 		call	_Z13thread_createPP7KThreadPFvPvES2_@plt
 486      E7800000 
 487              	.LVL31:
 488              	.L31:
  48:src/syscall_cpp.cpp **** 
 489              		.loc 2 48 1
 490 0254 83308100 		ld	ra,8(sp)
 491              		.cfi_remember_state
 492              		.cfi_restore 1
 493 0258 03340100 		ld	s0,0(sp)
 494              		.cfi_restore 8
 495              		.cfi_def_cfa 2, 16
 496 025c 13010101 		addi	sp,sp,16
 497              		.cfi_def_cfa_offset 0
 498 0260 67800000 		jr	ra
 499              	.LVL32:
 500              	.L30:
 501              		.cfi_restore_state
  47:src/syscall_cpp.cpp **** }
 502              		.loc 2 47 5 is_stmt 1
  47:src/syscall_cpp.cpp **** }
 503              		.loc 2 47 25 is_stmt 0
 504 0264 13060500 		mv	a2,a0
 505 0268 97050000 		lla	a1,_ZN6Thread7wrapperEPv
 505      93850500 
 506 0270 13058500 		addi	a0,a0,8
 507              	.LVL33:
GAS LISTING /tmp/cccKGXH1.s 			page 12


 508 0274 97000000 		call	_Z13thread_createPP7KThreadPFvPvES2_@plt
 508      E7800000 
 509              	.LVL34:
  47:src/syscall_cpp.cpp **** }
 510              		.loc 2 47 50
 511 027c 6FF09FFD 		j	.L31
 512              		.cfi_endproc
 513              	.LFE30:
 515              		.align	2
 516              		.globl	_ZN6Thread8dispatchEv
 518              	_ZN6Thread8dispatchEv:
 519              	.LFB31:
  50:src/syscall_cpp.cpp ****     thread_dispatch();
 520              		.loc 2 50 25 is_stmt 1
 521              		.cfi_startproc
 522 0280 130101FF 		addi	sp,sp,-16
 523              		.cfi_def_cfa_offset 16
 524 0284 23341100 		sd	ra,8(sp)
 525 0288 23308100 		sd	s0,0(sp)
 526              		.cfi_offset 1, -8
 527              		.cfi_offset 8, -16
 528 028c 13040101 		addi	s0,sp,16
 529              		.cfi_def_cfa 8, 0
  51:src/syscall_cpp.cpp **** }
 530              		.loc 2 51 5
  51:src/syscall_cpp.cpp **** }
 531              		.loc 2 51 20 is_stmt 0
 532 0290 97000000 		call	_Z15thread_dispatchv@plt
 532      E7800000 
 533              	.LVL35:
  52:src/syscall_cpp.cpp **** 
 534              		.loc 2 52 1
 535 0298 83308100 		ld	ra,8(sp)
 536              		.cfi_restore 1
 537 029c 03340100 		ld	s0,0(sp)
 538              		.cfi_restore 8
 539              		.cfi_def_cfa 2, 16
 540 02a0 13010101 		addi	sp,sp,16
 541              		.cfi_def_cfa_offset 0
 542 02a4 67800000 		jr	ra
 543              		.cfi_endproc
 544              	.LFE31:
 546              		.align	2
 547              		.globl	_ZN9SemaphoreC2Ej
 549              	_ZN9SemaphoreC2Ej:
 550              	.LFB33:
  55:src/syscall_cpp.cpp ****     sem_open(&myHandle, init);
 551              		.loc 2 55 1 is_stmt 1
 552              		.cfi_startproc
 553              	.LVL36:
 554 02a8 130101FF 		addi	sp,sp,-16
 555              		.cfi_def_cfa_offset 16
 556 02ac 23341100 		sd	ra,8(sp)
 557 02b0 23308100 		sd	s0,0(sp)
 558              		.cfi_offset 1, -8
 559              		.cfi_offset 8, -16
 560 02b4 13040101 		addi	s0,sp,16
GAS LISTING /tmp/cccKGXH1.s 			page 13


 561              		.cfi_def_cfa 8, 0
 562              	.LBB7:
  55:src/syscall_cpp.cpp ****     sem_open(&myHandle, init);
 563              		.loc 2 55 35 is_stmt 0
 564 02b8 97070000 		lla	a5,_ZTV9Semaphore+16
 564      93870700 
 565 02c0 2330F500 		sd	a5,0(a0)
  56:src/syscall_cpp.cpp **** }
 566              		.loc 2 56 5 is_stmt 1
  56:src/syscall_cpp.cpp **** }
 567              		.loc 2 56 13 is_stmt 0
 568 02c4 13058500 		addi	a0,a0,8
 569              	.LVL37:
 570 02c8 97000000 		call	_Z8sem_openPP10KSemaphorej@plt
 570      E7800000 
 571              	.LVL38:
 572              	.LBE7:
  57:src/syscall_cpp.cpp **** 
 573              		.loc 2 57 1
 574 02d0 83308100 		ld	ra,8(sp)
 575              		.cfi_restore 1
 576 02d4 03340100 		ld	s0,0(sp)
 577              		.cfi_restore 8
 578              		.cfi_def_cfa 2, 16
 579 02d8 13010101 		addi	sp,sp,16
 580              		.cfi_def_cfa_offset 0
 581 02dc 67800000 		jr	ra
 582              		.cfi_endproc
 583              	.LFE33:
 585              		.globl	_ZN9SemaphoreC1Ej
 586              		.set	_ZN9SemaphoreC1Ej,_ZN9SemaphoreC2Ej
 587              		.align	2
 588              		.globl	_ZN9Semaphore4waitEv
 590              	_ZN9Semaphore4waitEv:
 591              	.LFB39:
  62:src/syscall_cpp.cpp **** 
  63:src/syscall_cpp.cpp **** int Semaphore::wait() {
 592              		.loc 2 63 23 is_stmt 1
 593              		.cfi_startproc
 594              	.LVL39:
 595 02e0 130101FF 		addi	sp,sp,-16
 596              		.cfi_def_cfa_offset 16
 597 02e4 23341100 		sd	ra,8(sp)
 598 02e8 23308100 		sd	s0,0(sp)
 599              		.cfi_offset 1, -8
 600              		.cfi_offset 8, -16
 601 02ec 13040101 		addi	s0,sp,16
 602              		.cfi_def_cfa 8, 0
  64:src/syscall_cpp.cpp ****     return sem_wait(myHandle);
 603              		.loc 2 64 5
 604              		.loc 2 64 20 is_stmt 0
 605 02f0 03358500 		ld	a0,8(a0)
 606              	.LVL40:
 607 02f4 97000000 		call	_Z8sem_waitP10KSemaphore@plt
 607      E7800000 
 608              	.LVL41:
  65:src/syscall_cpp.cpp **** }
GAS LISTING /tmp/cccKGXH1.s 			page 14


 609              		.loc 2 65 1
 610 02fc 83308100 		ld	ra,8(sp)
 611              		.cfi_restore 1
 612 0300 03340100 		ld	s0,0(sp)
 613              		.cfi_restore 8
 614              		.cfi_def_cfa 2, 16
 615 0304 13010101 		addi	sp,sp,16
 616              		.cfi_def_cfa_offset 0
 617 0308 67800000 		jr	ra
 618              		.cfi_endproc
 619              	.LFE39:
 621              		.align	2
 622              		.globl	_ZN9Semaphore6signalEv
 624              	_ZN9Semaphore6signalEv:
 625              	.LFB40:
  66:src/syscall_cpp.cpp **** 
  67:src/syscall_cpp.cpp **** int Semaphore::signal() {
 626              		.loc 2 67 25 is_stmt 1
 627              		.cfi_startproc
 628              	.LVL42:
 629 030c 130101FF 		addi	sp,sp,-16
 630              		.cfi_def_cfa_offset 16
 631 0310 23341100 		sd	ra,8(sp)
 632 0314 23308100 		sd	s0,0(sp)
 633              		.cfi_offset 1, -8
 634              		.cfi_offset 8, -16
 635 0318 13040101 		addi	s0,sp,16
 636              		.cfi_def_cfa 8, 0
  68:src/syscall_cpp.cpp ****     return sem_signal(myHandle);
 637              		.loc 2 68 5
 638              		.loc 2 68 22 is_stmt 0
 639 031c 03358500 		ld	a0,8(a0)
 640              	.LVL43:
 641 0320 97000000 		call	_Z10sem_signalP10KSemaphore@plt
 641      E7800000 
 642              	.LVL44:
  69:src/syscall_cpp.cpp **** }...
 643              		.loc 2 69 1
 644 0328 83308100 		ld	ra,8(sp)
 645              		.cfi_restore 1
 646 032c 03340100 		ld	s0,0(sp)
 647              		.cfi_restore 8
 648              		.cfi_def_cfa 2, 16
 649 0330 13010101 		addi	sp,sp,16
 650              		.cfi_def_cfa_offset 0
 651 0334 67800000 		jr	ra
 652              		.cfi_endproc
 653              	.LFE40:
 655              		.weak	_ZTV6Thread
 656              		.section	.data.rel.ro.local._ZTV6Thread,"awG",@progbits,_ZTV6Thread,comdat
 657              		.align	3
 660              	_ZTV6Thread:
 661 0000 00000000 		.dword	0
 661      00000000 
 662 0008 00000000 		.dword	0
 662      00000000 
 663 0010 00000000 		.dword	_ZN6ThreadD1Ev
GAS LISTING /tmp/cccKGXH1.s 			page 15


 663      00000000 
 664 0018 00000000 		.dword	_ZN6ThreadD0Ev
 664      00000000 
 665 0020 00000000 		.dword	_ZN6Thread3runEv
 665      00000000 
 666              		.weak	_ZTV9Semaphore
 667              		.section	.data.rel.ro.local._ZTV9Semaphore,"awG",@progbits,_ZTV9Semaphore,comdat
 668              		.align	3
 671              	_ZTV9Semaphore:
 672 0000 00000000 		.dword	0
 672      00000000 
 673 0008 00000000 		.dword	0
 673      00000000 
 674 0010 00000000 		.dword	_ZN9SemaphoreD1Ev
 674      00000000 
 675 0018 00000000 		.dword	_ZN9SemaphoreD0Ev
 675      00000000 
 676              		.text
 677              	.Letext0:
 678              		.file 3 "src/../h/../lib/hw.h"
 679              		.file 4 "src/../h/syscall_c.hpp"
 680              		.file 5 "src/../h/KThread.hpp"
 681              		.file 6 "src/../h/KSemaphore.hpp"
 3848              		.align	3
 3851              	DW.ref.__gxx_personality_v0:
 3852 0000 00000000 		.dword	__gxx_personality_v0
 3852      00000000 
 3853              		.ident	"GCC: (Ubuntu 9.4.0-1ubuntu1~20.04) 9.4.0"
 3854              		.section	.note.GNU-stack,"",@progbits
GAS LISTING /tmp/cccKGXH1.s 			page 16

