GAS LISTING /tmp/ccEvNuaF.s 			page 1


   1              		.file	"Thread.cpp"
   2              		.option pic
   3              		.option norelax
   4              		.text
   5              	.Ltext0:
   6              		.align	2
   7              		.globl	_ZN6ThreadC2EPFvPvES0_S0_m
   9              	_ZN6ThreadC2EPFvPvES0_S0_m:
  10              	.LFB10:
  11              		.file 1 "src/Thread.cpp"
   1:src/Thread.cpp **** //
   2:src/Thread.cpp **** // Created by os on 10/8/25.
   3:src/Thread.cpp **** //
   4:src/Thread.cpp **** 
   5:src/Thread.cpp **** #include "../h/Thread.hpp"
   6:src/Thread.cpp **** #include "../h/Scheduler.hpp"
   7:src/Thread.cpp **** #include "../h/MemoryAllocator.hpp"
   8:src/Thread.cpp **** #include "../lib/hw.h"
   9:src/Thread.cpp **** 
  10:src/Thread.cpp **** Thread* Thread::running = nullptr;
  11:src/Thread.cpp **** 
  12:src/Thread.cpp **** int Thread::staticId = 0;
  13:src/Thread.cpp **** 
  14:src/Thread.cpp **** Thread::Thread(Body b, void* a, size_t stackSizeBytes)
  15:src/Thread.cpp ****     : id(staticId++), stack(nullptr), stackSize(stackSizeBytes), body(b), args(a), state(NEW), sche
  16:src/Thread.cpp ****     allocateStack(stackSizeBytes);
  17:src/Thread.cpp **** }
  18:src/Thread.cpp **** 
  19:src/Thread.cpp **** Thread::Thread(Body b, void* a, void* externalStackBase, size_t externalStackSize)
  12              		.loc 1 19 1
  13              		.cfi_startproc
  14              	.LVL0:
  15 0000 130101FF 		addi	sp,sp,-16
  16              		.cfi_def_cfa_offset 16
  17 0004 23348100 		sd	s0,8(sp)
  18              		.cfi_offset 8, -8
  19 0008 13040101 		addi	s0,sp,16
  20              		.cfi_def_cfa 8, 0
  21              	.LBB8:
  20:src/Thread.cpp ****     : id(staticId++), stack(nullptr), stackSize(0), body(b), args(a), state(NEW), schedulerNext(nul
  22              		.loc 1 20 18 is_stmt 0
  23 000c 17080000 		lla	a6,.LANCHOR0
  23      13080800 
  24 0014 83270800 		lw	a5,0(a6)
  25 0018 9B881700 		addiw	a7,a5,1
  26 001c 23201801 		sw	a7,0(a6)
  27              		.loc 1 20 128
  28 0020 2320F500 		sw	a5,0(a0)
  29 0024 2334B502 		sd	a1,40(a0)
  30 0028 2338C502 		sd	a2,48(a0)
  31 002c 232C0502 		sw	zero,56(a0)
  32 0030 23300504 		sd	zero,64(a0)
  33 0034 23340504 		sd	zero,72(a0)
  21:src/Thread.cpp ****     stack = externalStackBase;
  34              		.loc 1 21 5 is_stmt 1
  35              		.loc 1 21 11 is_stmt 0
  36 0038 2334D500 		sd	a3,8(a0)
GAS LISTING /tmp/ccEvNuaF.s 			page 2


  22:src/Thread.cpp ****     stackSize = externalStackSize;
  37              		.loc 1 22 5 is_stmt 1
  38              		.loc 1 22 15 is_stmt 0
  39 003c 2338E500 		sd	a4,16(a0)
  40              	.LBE8:
  23:src/Thread.cpp **** }
  41              		.loc 1 23 1
  42 0040 03348100 		ld	s0,8(sp)
  43              		.cfi_restore 8
  44              		.cfi_def_cfa 2, 16
  45 0044 13010101 		addi	sp,sp,16
  46              		.cfi_def_cfa_offset 0
  47 0048 67800000 		jr	ra
  48              		.cfi_endproc
  49              	.LFE10:
  51              		.globl	_ZN6ThreadC1EPFvPvES0_S0_m
  52              		.set	_ZN6ThreadC1EPFvPvES0_S0_m,_ZN6ThreadC2EPFvPvES0_S0_m
  53              		.align	2
  54              		.globl	_ZN6ThreadD2Ev
  56              	_ZN6ThreadD2Ev:
  57              	.LFB13:
  24:src/Thread.cpp **** 
  25:src/Thread.cpp **** Thread::~Thread() {
  58              		.loc 1 25 1 is_stmt 1
  59              		.cfi_startproc
  60              		.cfi_personality 0x9b,DW.ref.__gxx_personality_v0
  61              		.cfi_lsda 0x1b,.LLSDA13
  62              	.LVL1:
  63              	.LBB9:
  26:src/Thread.cpp ****     if (stack) {
  64              		.loc 1 26 5
  65              		.loc 1 26 9 is_stmt 0
  66 004c 03358500 		ld	a0,8(a0)
  67              	.LVL2:
  68              		.loc 1 26 5
  69 0050 63060502 		beqz	a0,.L6
  70              	.LBE9:
  25:src/Thread.cpp ****     if (stack) {
  71              		.loc 1 25 1
  72 0054 130101FF 		addi	sp,sp,-16
  73              		.cfi_def_cfa_offset 16
  74 0058 23341100 		sd	ra,8(sp)
  75 005c 23308100 		sd	s0,0(sp)
  76              		.cfi_offset 1, -8
  77              		.cfi_offset 8, -16
  78 0060 13040101 		addi	s0,sp,16
  79              		.cfi_def_cfa 8, 0
  80              	.LBB10:
  27:src/Thread.cpp ****         MemoryAllocator::mem_free(stack);
  81              		.loc 1 27 9 is_stmt 1
  82              		.loc 1 27 34 is_stmt 0
  83 0064 97000000 		call	_ZN15MemoryAllocator8mem_freeEPv@plt
  83      E7800000 
  84              	.LVL3:
  28:src/Thread.cpp ****         stack = nullptr;
  85              		.loc 1 28 9 is_stmt 1
  86              	.LBE10:
GAS LISTING /tmp/ccEvNuaF.s 			page 3


  29:src/Thread.cpp ****     }
  30:src/Thread.cpp **** }
  87              		.loc 1 30 1 is_stmt 0
  88 006c 83308100 		ld	ra,8(sp)
  89              		.cfi_restore 1
  90 0070 03340100 		ld	s0,0(sp)
  91              		.cfi_restore 8
  92              		.cfi_def_cfa 2, 16
  93 0074 13010101 		addi	sp,sp,16
  94              		.cfi_def_cfa_offset 0
  95 0078 67800000 		jr	ra
  96              	.L6:
  97 007c 67800000 		ret
  98              		.cfi_endproc
  99              	.LFE13:
 100              		.globl	__gxx_personality_v0
 101              		.section	.gcc_except_table,"a",@progbits
 102              	.LLSDA13:
 103 0000 FF       		.byte	0xff
 104 0001 FF       		.byte	0xff
 105 0002 03       		.byte	0x3
 106 0003 00       		.byte	0
 107              		.text
 109              		.globl	_ZN6ThreadD1Ev
 110              		.set	_ZN6ThreadD1Ev,_ZN6ThreadD2Ev
 111              		.align	2
 112              		.globl	_ZN6Thread12createThreadEPFvPvES0_S0_m
 114              	_ZN6Thread12createThreadEPFvPvES0_S0_m:
 115              	.LFB16:
  31:src/Thread.cpp **** 
  32:src/Thread.cpp **** Thread* Thread::createThread(Body b, void* a, size_t stackSizeBytes) {
  33:src/Thread.cpp ****     return new Thread(b, a, stackSizeBytes);
  34:src/Thread.cpp **** }
  35:src/Thread.cpp **** 
  36:src/Thread.cpp **** Thread* Thread::createThread(Body b, void* a, void* externalStackBase, size_t externalStackSize) {
 116              		.loc 1 36 98 is_stmt 1
 117              		.cfi_startproc
 118              	.LVL4:
 119 0080 130101FC 		addi	sp,sp,-64
 120              		.cfi_def_cfa_offset 64
 121 0084 233C1102 		sd	ra,56(sp)
 122 0088 23388102 		sd	s0,48(sp)
 123 008c 23349102 		sd	s1,40(sp)
 124 0090 23302103 		sd	s2,32(sp)
 125 0094 233C3101 		sd	s3,24(sp)
 126 0098 23384101 		sd	s4,16(sp)
 127 009c 23345101 		sd	s5,8(sp)
 128              		.cfi_offset 1, -8
 129              		.cfi_offset 8, -16
 130              		.cfi_offset 9, -24
 131              		.cfi_offset 18, -32
 132              		.cfi_offset 19, -40
 133              		.cfi_offset 20, -48
 134              		.cfi_offset 21, -56
 135 00a0 13040104 		addi	s0,sp,64
 136              		.cfi_def_cfa 8, 0
 137 00a4 13090500 		mv	s2,a0
GAS LISTING /tmp/ccEvNuaF.s 			page 4


 138 00a8 93890500 		mv	s3,a1
 139 00ac 130A0600 		mv	s4,a2
 140 00b0 938A0600 		mv	s5,a3
  37:src/Thread.cpp ****     return new Thread(b, a, externalStackBase, externalStackSize);
 141              		.loc 1 37 5
 142              	.LVL5:
 143              	.LBB11:
 144              	.LBB12:
 145              		.file 2 "src/../h/Thread.hpp"
   1:src/../h/Thread.hpp **** //
   2:src/../h/Thread.hpp **** // Created by os on 10/8/25.
   3:src/../h/Thread.hpp **** //
   4:src/../h/Thread.hpp **** 
   5:src/../h/Thread.hpp **** #ifndef PROJECT_BASE_THREAD_HPP
   6:src/../h/Thread.hpp **** #define PROJECT_BASE_THREAD_HPP
   7:src/../h/Thread.hpp **** 
   8:src/../h/Thread.hpp **** #include "MemoryAllocator.hpp"
   9:src/../h/Thread.hpp **** #include "../lib/hw.h"
  10:src/../h/Thread.hpp **** 
  11:src/../h/Thread.hpp **** enum ThreadState {
  12:src/../h/Thread.hpp ****     NEW,
  13:src/../h/Thread.hpp ****     READY,
  14:src/../h/Thread.hpp ****     RUNNING,
  15:src/../h/Thread.hpp ****     BLOCKED,
  16:src/../h/Thread.hpp ****     FINISHED
  17:src/../h/Thread.hpp **** };
  18:src/../h/Thread.hpp **** 
  19:src/../h/Thread.hpp **** class Thread {
  20:src/../h/Thread.hpp **** public:
  21:src/../h/Thread.hpp ****     static int staticId;
  22:src/../h/Thread.hpp ****     static Thread* running;
  23:src/../h/Thread.hpp **** 
  24:src/../h/Thread.hpp ****     friend class Scheduler;
  25:src/../h/Thread.hpp ****     friend class Semaphore;
  26:src/../h/Thread.hpp **** 
  27:src/../h/Thread.hpp ****     using Body = void(*)(void*);
  28:src/../h/Thread.hpp **** 
  29:src/../h/Thread.hpp ****     Thread(Body, void*, size_t stackSizeBytes = DEFAULT_STACK_SIZE);
  30:src/../h/Thread.hpp ****     Thread(Body, void*, void*, size_t);
  31:src/../h/Thread.hpp ****     ~Thread();
  32:src/../h/Thread.hpp **** 
  33:src/../h/Thread.hpp ****     static Thread* createThread(Body, void*, size_t stackSizeBytes = DEFAULT_STACK_SIZE);
  34:src/../h/Thread.hpp ****     static Thread* createThread(Body, void*, void*, size_t);
  35:src/../h/Thread.hpp **** 
  36:src/../h/Thread.hpp ****     void start();                       // prepare and put in the Scheduler
  37:src/../h/Thread.hpp ****     void exit();                        // mark as finished (could be called from wrapper)
  38:src/../h/Thread.hpp ****     static void wrapper();              // static function - entry which calls body(arg) and exit
  39:src/../h/Thread.hpp **** 
  40:src/../h/Thread.hpp ****     ThreadState getState() const { return state; }
  41:src/../h/Thread.hpp ****     void setState(ThreadState s) { state = s; }
  42:src/../h/Thread.hpp **** 
  43:src/../h/Thread.hpp ****     static void yield();
  44:src/../h/Thread.hpp ****     static void dispatch();
  45:src/../h/Thread.hpp **** 
  46:src/../h/Thread.hpp ****     void* operator new(size_t size) {
  47:src/../h/Thread.hpp ****         size_t blocks = size / MEM_BLOCK_SIZE;
 146              		.loc 2 47 9
GAS LISTING /tmp/ccEvNuaF.s 			page 5


  48:src/../h/Thread.hpp ****         if (size % MEM_BLOCK_SIZE) blocks++;
 147              		.loc 2 48 9
 148              		.loc 2 48 36
  49:src/../h/Thread.hpp **** 
  50:src/../h/Thread.hpp ****         return MemoryAllocator::mem_alloc(blocks);
 149              		.loc 2 50 9
 150              		.loc 2 50 42 is_stmt 0
 151 00b4 13052000 		li	a0,2
 152              	.LVL6:
 153 00b8 97000000 		call	_ZN15MemoryAllocator9mem_allocEm@plt
 153      E7800000 
 154              	.LVL7:
 155 00c0 93040500 		mv	s1,a0
 156              	.LVL8:
 157              	.LBE12:
 158              	.LBE11:
 159              		.loc 1 37 65
 160 00c4 13870A00 		mv	a4,s5
 161 00c8 93060A00 		mv	a3,s4
 162 00cc 13860900 		mv	a2,s3
 163 00d0 93050900 		mv	a1,s2
 164 00d4 97000000 		call	_ZN6ThreadC1EPFvPvES0_S0_m
 164      E7800000 
 165              	.LVL9:
  38:src/Thread.cpp **** }
 166              		.loc 1 38 1
 167 00dc 13850400 		mv	a0,s1
 168 00e0 83308103 		ld	ra,56(sp)
 169              		.cfi_restore 1
 170 00e4 03340103 		ld	s0,48(sp)
 171              		.cfi_restore 8
 172              		.cfi_def_cfa 2, 64
 173 00e8 83348102 		ld	s1,40(sp)
 174              		.cfi_restore 9
 175 00ec 03390102 		ld	s2,32(sp)
 176              		.cfi_restore 18
 177              	.LVL10:
 178 00f0 83398101 		ld	s3,24(sp)
 179              		.cfi_restore 19
 180              	.LVL11:
 181 00f4 033A0101 		ld	s4,16(sp)
 182              		.cfi_restore 20
 183              	.LVL12:
 184 00f8 833A8100 		ld	s5,8(sp)
 185              		.cfi_restore 21
 186              	.LVL13:
 187 00fc 13010104 		addi	sp,sp,64
 188              		.cfi_def_cfa_offset 0
 189 0100 67800000 		jr	ra
 190              		.cfi_endproc
 191              	.LFE16:
 193              		.align	2
 194              		.globl	_ZN6Thread13allocateStackEm
 196              	_ZN6Thread13allocateStackEm:
 197              	.LFB17:
  39:src/Thread.cpp **** 
  40:src/Thread.cpp **** void Thread::allocateStack(size_t bytes) {
GAS LISTING /tmp/ccEvNuaF.s 			page 6


 198              		.loc 1 40 42 is_stmt 1
 199              		.cfi_startproc
 200              	.LVL14:
 201 0104 130101FE 		addi	sp,sp,-32
 202              		.cfi_def_cfa_offset 32
 203 0108 233C1100 		sd	ra,24(sp)
 204 010c 23388100 		sd	s0,16(sp)
 205 0110 23349100 		sd	s1,8(sp)
 206 0114 23302101 		sd	s2,0(sp)
 207              		.cfi_offset 1, -8
 208              		.cfi_offset 8, -16
 209              		.cfi_offset 9, -24
 210              		.cfi_offset 18, -32
 211 0118 13040102 		addi	s0,sp,32
 212              		.cfi_def_cfa 8, 0
 213 011c 13090500 		mv	s2,a0
  41:src/Thread.cpp ****     size_t blocks = bytes / MEM_BLOCK_SIZE;
 214              		.loc 1 41 5
 215              		.loc 1 41 12 is_stmt 0
 216 0120 93D46500 		srli	s1,a1,6
 217              	.LVL15:
  42:src/Thread.cpp ****     if (bytes % MEM_BLOCK_SIZE != 0) blocks++;
 218              		.loc 1 42 5 is_stmt 1
 219              		.loc 1 42 15 is_stmt 0
 220 0124 93F5F503 		andi	a1,a1,63
 221              	.LVL16:
 222              		.loc 1 42 5
 223 0128 63840500 		beqz	a1,.L12
 224              		.loc 1 42 38 is_stmt 1 discriminator 1
 225              		.loc 1 42 44 is_stmt 0 discriminator 1
 226 012c 93841400 		addi	s1,s1,1
 227              	.LVL17:
 228              	.L12:
  43:src/Thread.cpp **** 
  44:src/Thread.cpp ****     stack = MemoryAllocator::mem_alloc(blocks);
 229              		.loc 1 44 5 is_stmt 1
 230              		.loc 1 44 39 is_stmt 0
 231 0130 13850400 		mv	a0,s1
 232              	.LVL18:
 233 0134 97000000 		call	_ZN15MemoryAllocator9mem_allocEm@plt
 233      E7800000 
 234              	.LVL19:
 235              		.loc 1 44 11
 236 013c 2334A900 		sd	a0,8(s2)
  45:src/Thread.cpp ****     stackSize = blocks * MEM_BLOCK_SIZE;
 237              		.loc 1 45 5 is_stmt 1
 238              		.loc 1 45 24 is_stmt 0
 239 0140 93946400 		slli	s1,s1,6
 240              	.LVL20:
 241              		.loc 1 45 15
 242 0144 23389900 		sd	s1,16(s2)
  46:src/Thread.cpp **** }
 243              		.loc 1 46 1
 244 0148 83308101 		ld	ra,24(sp)
 245              		.cfi_restore 1
 246 014c 03340101 		ld	s0,16(sp)
 247              		.cfi_restore 8
GAS LISTING /tmp/ccEvNuaF.s 			page 7


 248              		.cfi_def_cfa 2, 32
 249 0150 83348100 		ld	s1,8(sp)
 250              		.cfi_restore 9
 251 0154 03390100 		ld	s2,0(sp)
 252              		.cfi_restore 18
 253              	.LVL21:
 254 0158 13010102 		addi	sp,sp,32
 255              		.cfi_def_cfa_offset 0
 256 015c 67800000 		jr	ra
 257              		.cfi_endproc
 258              	.LFE17:
 260              		.align	2
 261              		.globl	_ZN6ThreadC2EPFvPvES0_m
 263              	_ZN6ThreadC2EPFvPvES0_m:
 264              	.LFB7:
  14:src/Thread.cpp ****     : id(staticId++), stack(nullptr), stackSize(stackSizeBytes), body(b), args(a), state(NEW), sche
 265              		.loc 1 14 1 is_stmt 1
 266              		.cfi_startproc
 267              	.LVL22:
 268 0160 130101FF 		addi	sp,sp,-16
 269              		.cfi_def_cfa_offset 16
 270 0164 23341100 		sd	ra,8(sp)
 271 0168 23308100 		sd	s0,0(sp)
 272              		.cfi_offset 1, -8
 273              		.cfi_offset 8, -16
 274 016c 13040101 		addi	s0,sp,16
 275              		.cfi_def_cfa 8, 0
 276              	.LBB13:
  15:src/Thread.cpp ****     allocateStack(stackSizeBytes);
 277              		.loc 1 15 18 is_stmt 0
 278 0170 17080000 		lla	a6,.LANCHOR0
 278      13080800 
 279 0178 03270800 		lw	a4,0(a6)
 280 017c 9B081700 		addiw	a7,a4,1
 281 0180 23201801 		sw	a7,0(a6)
  15:src/Thread.cpp ****     allocateStack(stackSizeBytes);
 282              		.loc 1 15 141
 283 0184 2320E500 		sw	a4,0(a0)
 284 0188 23340500 		sd	zero,8(a0)
 285 018c 2338D500 		sd	a3,16(a0)
 286 0190 2334B502 		sd	a1,40(a0)
 287 0194 2338C502 		sd	a2,48(a0)
 288 0198 232C0502 		sw	zero,56(a0)
 289 019c 23300504 		sd	zero,64(a0)
 290 01a0 23340504 		sd	zero,72(a0)
  16:src/Thread.cpp **** }
 291              		.loc 1 16 5 is_stmt 1
  16:src/Thread.cpp **** }
 292              		.loc 1 16 18 is_stmt 0
 293 01a4 93850600 		mv	a1,a3
 294              	.LVL23:
 295 01a8 97000000 		call	_ZN6Thread13allocateStackEm
 295      E7800000 
 296              	.LVL24:
 297              	.LBE13:
  17:src/Thread.cpp **** 
 298              		.loc 1 17 1
GAS LISTING /tmp/ccEvNuaF.s 			page 8


 299 01b0 83308100 		ld	ra,8(sp)
 300              		.cfi_restore 1
 301 01b4 03340100 		ld	s0,0(sp)
 302              		.cfi_restore 8
 303              		.cfi_def_cfa 2, 16
 304 01b8 13010101 		addi	sp,sp,16
 305              		.cfi_def_cfa_offset 0
 306 01bc 67800000 		jr	ra
 307              		.cfi_endproc
 308              	.LFE7:
 310              		.globl	_ZN6ThreadC1EPFvPvES0_m
 311              		.set	_ZN6ThreadC1EPFvPvES0_m,_ZN6ThreadC2EPFvPvES0_m
 312              		.align	2
 313              		.globl	_ZN6Thread12createThreadEPFvPvES0_m
 315              	_ZN6Thread12createThreadEPFvPvES0_m:
 316              	.LFB15:
  32:src/Thread.cpp ****     return new Thread(b, a, stackSizeBytes);
 317              		.loc 1 32 70 is_stmt 1
 318              		.cfi_startproc
 319              		.cfi_personality 0x9b,DW.ref.__gxx_personality_v0
 320              		.cfi_lsda 0x1b,.LLSDA15
 321              	.LVL25:
 322 01c0 130101FD 		addi	sp,sp,-48
 323              		.cfi_def_cfa_offset 48
 324 01c4 23341102 		sd	ra,40(sp)
 325 01c8 23308102 		sd	s0,32(sp)
 326 01cc 233C9100 		sd	s1,24(sp)
 327 01d0 23382101 		sd	s2,16(sp)
 328 01d4 23343101 		sd	s3,8(sp)
 329 01d8 23304101 		sd	s4,0(sp)
 330              		.cfi_offset 1, -8
 331              		.cfi_offset 8, -16
 332              		.cfi_offset 9, -24
 333              		.cfi_offset 18, -32
 334              		.cfi_offset 19, -40
 335              		.cfi_offset 20, -48
 336 01dc 13040103 		addi	s0,sp,48
 337              		.cfi_def_cfa 8, 0
 338 01e0 13090500 		mv	s2,a0
 339 01e4 93890500 		mv	s3,a1
 340 01e8 130A0600 		mv	s4,a2
  33:src/Thread.cpp **** }
 341              		.loc 1 33 5
 342              	.LVL26:
 343              	.LBB14:
 344              	.LBB15:
  47:src/../h/Thread.hpp ****         if (size % MEM_BLOCK_SIZE) blocks++;
 345              		.loc 2 47 9
  48:src/../h/Thread.hpp **** 
 346              		.loc 2 48 9
  48:src/../h/Thread.hpp **** 
 347              		.loc 2 48 36
 348              		.loc 2 50 9
 349              		.loc 2 50 42 is_stmt 0
 350 01ec 13052000 		li	a0,2
 351              	.LVL27:
 352              	.LEHB0:
GAS LISTING /tmp/ccEvNuaF.s 			page 9


 353 01f0 97000000 		call	_ZN15MemoryAllocator9mem_allocEm@plt
 353      E7800000 
 354              	.LVL28:
 355              	.LEHE0:
 356 01f8 93040500 		mv	s1,a0
 357              	.LVL29:
 358              	.LBE15:
 359              	.LBE14:
  33:src/Thread.cpp **** }
 360              		.loc 1 33 43
 361 01fc 93060A00 		mv	a3,s4
 362 0200 13860900 		mv	a2,s3
 363 0204 93050900 		mv	a1,s2
 364              	.LEHB1:
 365 0208 97000000 		call	_ZN6ThreadC1EPFvPvES0_m
 365      E7800000 
 366              	.LVL30:
 367              	.LEHE1:
 368 0210 6F000002 		j	.L21
 369              	.L18:
 370 0214 13090500 		mv	s2,a0
 371              	.LVL31:
 372              	.LBB16:
 373              	.LBB17:
  51:src/../h/Thread.hpp ****     }
  52:src/../h/Thread.hpp **** 
  53:src/../h/Thread.hpp ****     void operator delete(void* ptr) {
  54:src/../h/Thread.hpp ****         MemoryAllocator::mem_free(ptr);
 374              		.loc 2 54 9 is_stmt 1
 375              		.loc 2 54 34 is_stmt 0
 376 0218 13850400 		mv	a0,s1
 377 021c 97000000 		call	_ZN15MemoryAllocator8mem_freeEPv@plt
 377      E7800000 
 378              	.LVL32:
 379 0224 13050900 		mv	a0,s2
 380              	.LEHB2:
 381 0228 97000000 		call	_Unwind_Resume@plt
 381      E7800000 
 382              	.LVL33:
 383              	.LEHE2:
 384              	.L21:
 385              	.LBE17:
 386              	.LBE16:
  34:src/Thread.cpp **** 
 387              		.loc 1 34 1
 388 0230 13850400 		mv	a0,s1
 389 0234 83308102 		ld	ra,40(sp)
 390              		.cfi_restore 1
 391 0238 03340102 		ld	s0,32(sp)
 392              		.cfi_restore 8
 393              		.cfi_def_cfa 2, 48
 394 023c 83348101 		ld	s1,24(sp)
 395              		.cfi_restore 9
 396 0240 03390101 		ld	s2,16(sp)
 397              		.cfi_restore 18
 398              	.LVL34:
 399 0244 83398100 		ld	s3,8(sp)
GAS LISTING /tmp/ccEvNuaF.s 			page 10


 400              		.cfi_restore 19
 401              	.LVL35:
 402 0248 033A0100 		ld	s4,0(sp)
 403              		.cfi_restore 20
 404              	.LVL36:
 405 024c 13010103 		addi	sp,sp,48
 406              		.cfi_def_cfa_offset 0
 407 0250 67800000 		jr	ra
 408              		.cfi_endproc
 409              	.LFE15:
 410              		.section	.gcc_except_table
 411              	.LLSDA15:
 412 0004 FF       		.byte	0xff
 413 0005 FF       		.byte	0xff
 414 0006 03       		.byte	0x3
 415 0007 27       		.byte	0x27
 416 0008 00000000 		.4byte	.LEHB0-.LFB15
 417 000c 00000000 		.4byte	.LEHE0-.LEHB0
 418 0010 00000000 		.4byte	0
 419 0014 00       		.byte	0
 420 0015 00000000 		.4byte	.LEHB1-.LFB15
 421 0019 00000000 		.4byte	.LEHE1-.LEHB1
 422 001d 00000000 		.4byte	.L18-.LFB15
 423 0021 00       		.byte	0
 424 0022 00000000 		.4byte	.LEHB2-.LFB15
 425 0026 00000000 		.4byte	.LEHE2-.LEHB2
 426 002a 00000000 		.4byte	0
 427 002e 00       		.byte	0
 428              		.text
 430              		.align	2
 431              		.globl	_ZN6Thread5startEv
 433              	_ZN6Thread5startEv:
 434              	.LFB18:
  47:src/Thread.cpp **** 
  48:src/Thread.cpp **** void Thread::start() {
 435              		.loc 1 48 22 is_stmt 1
 436              		.cfi_startproc
 437              	.LVL37:
  49:src/Thread.cpp ****     if (state != NEW) return;
 438              		.loc 1 49 5
 439              		.loc 1 49 9 is_stmt 0
 440 0254 83278503 		lw	a5,56(a0)
 441              		.loc 1 49 5
 442 0258 63840700 		beqz	a5,.L28
 443 025c 67800000 		ret
 444              	.L28:
  48:src/Thread.cpp ****     if (state != NEW) return;
 445              		.loc 1 48 22
 446 0260 130101FE 		addi	sp,sp,-32
 447              		.cfi_def_cfa_offset 32
 448 0264 233C1100 		sd	ra,24(sp)
 449 0268 23388100 		sd	s0,16(sp)
 450 026c 23349100 		sd	s1,8(sp)
 451              		.cfi_offset 1, -8
 452              		.cfi_offset 8, -16
 453              		.cfi_offset 9, -24
 454 0270 13040102 		addi	s0,sp,32
GAS LISTING /tmp/ccEvNuaF.s 			page 11


 455              		.cfi_def_cfa 8, 0
 456 0274 93040500 		mv	s1,a0
  50:src/Thread.cpp **** 
  51:src/Thread.cpp ****     void* stackTop = (char*)stack + stackSize;
 457              		.loc 1 51 5 is_stmt 1
 458              		.loc 1 51 29 is_stmt 0
 459 0278 03368500 		ld	a2,8(a0)
 460              		.loc 1 51 37
 461 027c 83370501 		ld	a5,16(a0)
 462              	.LVL38:
  52:src/Thread.cpp ****     initContext(&context, wrapper, stackTop);
 463              		.loc 1 52 5 is_stmt 1
 464              		.loc 1 52 16 is_stmt 0
 465 0280 3306F600 		add	a2,a2,a5
 466              	.LVL39:
 467 0284 97050000 		lla	a1,_ZN6Thread7wrapperEv
 467      93850500 
 468 028c 13058501 		addi	a0,a0,24
 469              	.LVL40:
 470 0290 97000000 		call	_ZN6Thread11initContextEPNS_7ContextEPFvvEPv@plt
 470      E7800000 
 471              	.LVL41:
  53:src/Thread.cpp ****     state = READY;
 472              		.loc 1 53 5 is_stmt 1
 473              		.loc 1 53 11 is_stmt 0
 474 0298 93071000 		li	a5,1
 475 029c 23ACF402 		sw	a5,56(s1)
  54:src/Thread.cpp ****     Scheduler::put(this);
 476              		.loc 1 54 5 is_stmt 1
 477              		.loc 1 54 19 is_stmt 0
 478 02a0 13850400 		mv	a0,s1
 479 02a4 97000000 		call	_ZN9Scheduler3putEP6Thread@plt
 479      E7800000 
 480              	.LVL42:
  55:src/Thread.cpp **** }
 481              		.loc 1 55 1
 482 02ac 83308101 		ld	ra,24(sp)
 483              		.cfi_restore 1
 484 02b0 03340101 		ld	s0,16(sp)
 485              		.cfi_restore 8
 486              		.cfi_def_cfa 2, 32
 487 02b4 83348100 		ld	s1,8(sp)
 488              		.cfi_restore 9
 489              	.LVL43:
 490 02b8 13010102 		addi	sp,sp,32
 491              		.cfi_def_cfa_offset 0
 492 02bc 67800000 		jr	ra
 493              		.cfi_endproc
 494              	.LFE18:
 496              		.align	2
 497              		.globl	_ZN6Thread4exitEv
 499              	_ZN6Thread4exitEv:
 500              	.LFB19:
  56:src/Thread.cpp **** 
  57:src/Thread.cpp **** void Thread::exit() {
 501              		.loc 1 57 21 is_stmt 1
 502              		.cfi_startproc
GAS LISTING /tmp/ccEvNuaF.s 			page 12


 503              	.LVL44:
 504 02c0 130101FF 		addi	sp,sp,-16
 505              		.cfi_def_cfa_offset 16
 506 02c4 23348100 		sd	s0,8(sp)
 507              		.cfi_offset 8, -8
 508 02c8 13040101 		addi	s0,sp,16
 509              		.cfi_def_cfa 8, 0
  58:src/Thread.cpp ****     state = FINISHED;
 510              		.loc 1 58 5
 511              		.loc 1 58 11 is_stmt 0
 512 02cc 93074000 		li	a5,4
 513 02d0 232CF502 		sw	a5,56(a0)
  59:src/Thread.cpp **** }
 514              		.loc 1 59 1
 515 02d4 03348100 		ld	s0,8(sp)
 516              		.cfi_restore 8
 517              		.cfi_def_cfa 2, 16
 518 02d8 13010101 		addi	sp,sp,16
 519              		.cfi_def_cfa_offset 0
 520 02dc 67800000 		jr	ra
 521              		.cfi_endproc
 522              	.LFE19:
 524              		.align	2
 525              		.globl	_ZN6Thread8dispatchEv
 527              	_ZN6Thread8dispatchEv:
 528              	.LFB21:
  60:src/Thread.cpp **** 
  61:src/Thread.cpp **** void Thread::wrapper() {
  62:src/Thread.cpp ****     running->body(running->args);
  63:src/Thread.cpp ****     running->exit();
  64:src/Thread.cpp ****     yield();
  65:src/Thread.cpp **** }
  66:src/Thread.cpp **** 
  67:src/Thread.cpp **** void Thread::dispatch() {
 529              		.loc 1 67 25 is_stmt 1
 530              		.cfi_startproc
 531 02e0 130101FE 		addi	sp,sp,-32
 532              		.cfi_def_cfa_offset 32
 533 02e4 233C1100 		sd	ra,24(sp)
 534 02e8 23388100 		sd	s0,16(sp)
 535 02ec 23349100 		sd	s1,8(sp)
 536              		.cfi_offset 1, -8
 537              		.cfi_offset 8, -16
 538              		.cfi_offset 9, -24
 539 02f0 13040102 		addi	s0,sp,32
 540              		.cfi_def_cfa 8, 0
  68:src/Thread.cpp ****     Thread* old = running;
 541              		.loc 1 68 5
 542              		.loc 1 68 13 is_stmt 0
 543 02f4 97040000 		ld	s1,.LANCHOR0+8
 543      83B40400 
 544              	.LVL45:
  69:src/Thread.cpp **** 
  70:src/Thread.cpp ****     if (old && old->state != FINISHED) {
 545              		.loc 1 70 5 is_stmt 1
 546 02fc 63880400 		beqz	s1,.L32
 547              		.loc 1 70 21 is_stmt 0 discriminator 1
GAS LISTING /tmp/ccEvNuaF.s 			page 13


 548 0300 03A78403 		lw	a4,56(s1)
 549              		.loc 1 70 13 discriminator 1
 550 0304 93074000 		li	a5,4
 551 0308 631EF704 		bne	a4,a5,.L36
 552              	.L32:
  71:src/Thread.cpp ****         old->state = READY;
  72:src/Thread.cpp ****         Scheduler::put(old);
  73:src/Thread.cpp ****     }
  74:src/Thread.cpp **** 
  75:src/Thread.cpp ****     running = Scheduler::get();
 553              		.loc 1 75 5 is_stmt 1
 554              		.loc 1 75 29 is_stmt 0
 555 030c 97000000 		call	_ZN9Scheduler3getEv@plt
 555      E7800000 
 556              	.LVL46:
 557              		.loc 1 75 13
 558 0314 97070000 		sd	a0,.LANCHOR0+8,a5
 558      23B0A700 
  76:src/Thread.cpp ****     if (!running) return;
 559              		.loc 1 76 5 is_stmt 1
 560 031c 630A0502 		beqz	a0,.L31
  77:src/Thread.cpp **** 
  78:src/Thread.cpp ****     running->state = RUNNING;
 561              		.loc 1 78 5
 562              		.loc 1 78 20 is_stmt 0
 563 0320 93072000 		li	a5,2
 564 0324 232CF502 		sw	a5,56(a0)
  79:src/Thread.cpp **** 
  80:src/Thread.cpp ****     if (old && old->state == FINISHED) {
 565              		.loc 1 80 5 is_stmt 1
 566 0328 63880400 		beqz	s1,.L34
 567              		.loc 1 80 21 is_stmt 0 discriminator 1
 568 032c 03A78403 		lw	a4,56(s1)
 569              		.loc 1 80 13 discriminator 1
 570 0330 93074000 		li	a5,4
 571 0334 6304F704 		beq	a4,a5,.L37
 572              	.L34:
  81:src/Thread.cpp ****         MemoryAllocator::mem_free(old->stack);
  82:src/Thread.cpp ****         old->stack = nullptr;
  83:src/Thread.cpp ****     }
  84:src/Thread.cpp **** 
  85:src/Thread.cpp ****     contextSwitch(&old->context, &running->context);
 573              		.loc 1 85 5 is_stmt 1
 574              		.loc 1 85 18 is_stmt 0
 575 0338 97050000 		ld	a1,.LANCHOR0+8
 575      83B50500 
 576 0340 93858501 		addi	a1,a1,24
 577 0344 13858401 		addi	a0,s1,24
 578 0348 97000000 		call	_ZN6Thread13contextSwitchEPNS_7ContextES1_@plt
 578      E7800000 
 579              	.LVL47:
 580              	.L31:
  86:src/Thread.cpp **** }
 581              		.loc 1 86 1
 582 0350 83308101 		ld	ra,24(sp)
 583              		.cfi_remember_state
 584              		.cfi_restore 1
GAS LISTING /tmp/ccEvNuaF.s 			page 14


 585 0354 03340101 		ld	s0,16(sp)
 586              		.cfi_restore 8
 587              		.cfi_def_cfa 2, 32
 588 0358 83348100 		ld	s1,8(sp)
 589              		.cfi_restore 9
 590              	.LVL48:
 591 035c 13010102 		addi	sp,sp,32
 592              		.cfi_def_cfa_offset 0
 593 0360 67800000 		jr	ra
 594              	.LVL49:
 595              	.L36:
 596              		.cfi_restore_state
  71:src/Thread.cpp ****         Scheduler::put(old);
 597              		.loc 1 71 9 is_stmt 1
  71:src/Thread.cpp ****         Scheduler::put(old);
 598              		.loc 1 71 20 is_stmt 0
 599 0364 93071000 		li	a5,1
 600 0368 23ACF402 		sw	a5,56(s1)
  72:src/Thread.cpp ****     }
 601              		.loc 1 72 9 is_stmt 1
  72:src/Thread.cpp ****     }
 602              		.loc 1 72 23 is_stmt 0
 603 036c 13850400 		mv	a0,s1
 604 0370 97000000 		call	_ZN9Scheduler3putEP6Thread@plt
 604      E7800000 
 605              	.LVL50:
 606 0378 6FF05FF9 		j	.L32
 607              	.L37:
  81:src/Thread.cpp ****         old->stack = nullptr;
 608              		.loc 1 81 9 is_stmt 1
  81:src/Thread.cpp ****         old->stack = nullptr;
 609              		.loc 1 81 34 is_stmt 0
 610 037c 03B58400 		ld	a0,8(s1)
 611 0380 97000000 		call	_ZN15MemoryAllocator8mem_freeEPv@plt
 611      E7800000 
 612              	.LVL51:
  82:src/Thread.cpp ****     }
 613              		.loc 1 82 9 is_stmt 1
  82:src/Thread.cpp ****     }
 614              		.loc 1 82 20 is_stmt 0
 615 0388 23B40400 		sd	zero,8(s1)
 616 038c 6FF0DFFA 		j	.L34
 617              		.cfi_endproc
 618              	.LFE21:
 620              		.align	2
 621              		.globl	_ZN6Thread5yieldEv
 623              	_ZN6Thread5yieldEv:
 624              	.LFB22:
  87:src/Thread.cpp **** 
  88:src/Thread.cpp **** void Thread::yield() {
 625              		.loc 1 88 22 is_stmt 1
 626              		.cfi_startproc
 627 0390 130101FF 		addi	sp,sp,-16
 628              		.cfi_def_cfa_offset 16
 629 0394 23348100 		sd	s0,8(sp)
 630              		.cfi_offset 8, -8
 631 0398 13040101 		addi	s0,sp,16
GAS LISTING /tmp/ccEvNuaF.s 			page 15


 632              		.cfi_def_cfa 8, 0
  89:src/Thread.cpp ****     asm volatile ("li a0, 0x13");
 633              		.loc 1 89 5
 634              		.loc 1 89 33 is_stmt 0
 635              	#APP
 636              	# 89 "src/Thread.cpp" 1
  90              	    asm volatile ("ecall");
 637              		li a0, 0x13
 638              	# 0 "" 2
 639              		.loc 1 90 5 is_stmt 1
 640              		.loc 1 90 27 is_stmt 0
 641              	# 90 "src/Thread.cpp" 1
  91              	}...
 642              		ecall
 643              	# 0 "" 2
 644              		.loc 1 91 1
 645              	#NO_APP
 646 03a4 03348100 		ld	s0,8(sp)
 647              		.cfi_restore 8
 648              		.cfi_def_cfa 2, 16
 649 03a8 13010101 		addi	sp,sp,16
 650              		.cfi_def_cfa_offset 0
 651 03ac 67800000 		jr	ra
 652              		.cfi_endproc
 653              	.LFE22:
 655              		.align	2
 656              		.globl	_ZN6Thread7wrapperEv
 658              	_ZN6Thread7wrapperEv:
 659              	.LFB20:
  61:src/Thread.cpp **** void Thread::wrapper() {
 660              		.loc 1 61 24 is_stmt 1
 661              		.cfi_startproc
 662 03b0 130101FE 		addi	sp,sp,-32
 663              		.cfi_def_cfa_offset 32
 664 03b4 233C1100 		sd	ra,24(sp)
 665 03b8 23388100 		sd	s0,16(sp)
 666 03bc 23349100 		sd	s1,8(sp)
 667              		.cfi_offset 1, -8
 668              		.cfi_offset 8, -16
 669              		.cfi_offset 9, -24
 670 03c0 13040102 		addi	s0,sp,32
 671              		.cfi_def_cfa 8, 0
  62:src/Thread.cpp ****     running->body(running->args);
 672              		.loc 1 62 5
  62:src/Thread.cpp ****     running->body(running->args);
 673              		.loc 1 62 14 is_stmt 0
 674 03c4 97040000 		lla	s1,.LANCHOR0
 674      93840400 
 675 03cc 83B78400 		ld	a5,8(s1)
 676 03d0 03B78702 		ld	a4,40(a5)
  62:src/Thread.cpp ****     running->body(running->args);
 677              		.loc 1 62 18
 678 03d4 03B50703 		ld	a0,48(a5)
 679 03d8 E7000700 		jalr	a4
 680              	.LVL52:
  63:src/Thread.cpp ****     running->exit();
 681              		.loc 1 63 5 is_stmt 1
GAS LISTING /tmp/ccEvNuaF.s 			page 16


  63:src/Thread.cpp ****     running->exit();
 682              		.loc 1 63 18 is_stmt 0
 683 03dc 03B58400 		ld	a0,8(s1)
 684 03e0 97000000 		call	_ZN6Thread4exitEv
 684      E7800000 
 685              	.LVL53:
  64:src/Thread.cpp ****     yield();
 686              		.loc 1 64 5 is_stmt 1
  64:src/Thread.cpp ****     yield();
 687              		.loc 1 64 10 is_stmt 0
 688 03e8 97000000 		call	_ZN6Thread5yieldEv
 688      E7800000 
 689              	.LVL54:
  65:src/Thread.cpp **** }
 690              		.loc 1 65 1
 691 03f0 83308101 		ld	ra,24(sp)
 692              		.cfi_restore 1
 693 03f4 03340101 		ld	s0,16(sp)
 694              		.cfi_restore 8
 695              		.cfi_def_cfa 2, 32
 696 03f8 83348100 		ld	s1,8(sp)
 697              		.cfi_restore 9
 698 03fc 13010102 		addi	sp,sp,32
 699              		.cfi_def_cfa_offset 0
 700 0400 67800000 		jr	ra
 701              		.cfi_endproc
 702              	.LFE20:
 704              		.globl	_ZN6Thread8staticIdE
 705              		.globl	_ZN6Thread7runningE
 706              		.bss
 707              		.align	3
 708              		.set	.LANCHOR0,. + 0
 711              	_ZN6Thread8staticIdE:
 712 0000 00000000 		.zero	4
 713 0004 00000000 		.zero	4
 716              	_ZN6Thread7runningE:
 717 0008 00000000 		.zero	8
 717      00000000 
 718              		.text
 719              	.Letext0:
 720              		.file 3 "src/../h/../lib/hw.h"
 721              		.file 4 "src/../h/MemoryAllocator.hpp"
 722              		.file 5 "src/../h/Scheduler.hpp"
 3627              		.align	3
 3630              	DW.ref.__gxx_personality_v0:
 3631 0000 00000000 		.dword	__gxx_personality_v0
 3631      00000000 
 3632              		.ident	"GCC: (Ubuntu 9.4.0-1ubuntu1~20.04) 9.4.0"
 3633              		.section	.note.GNU-stack,"",@progbits
GAS LISTING /tmp/ccEvNuaF.s 			page 17


DEFINED SYMBOLS
                            *ABS*:0000000000000000 Thread.cpp
     /tmp/ccEvNuaF.s:9      .text:0000000000000000 _ZN6ThreadC2EPFvPvES0_S0_m
     /tmp/ccEvNuaF.s:13     .text:0000000000000000 .L0 
     /tmp/ccEvNuaF.s:15     .text:0000000000000000 .L0 
     /tmp/ccEvNuaF.s:16     .text:0000000000000004 .L0 
     /tmp/ccEvNuaF.s:18     .text:0000000000000008 .L0 
     /tmp/ccEvNuaF.s:20     .text:000000000000000c .L0 
     /tmp/ccEvNuaF.s:23     .text:000000000000000c .L0 
     /tmp/ccEvNuaF.s:28     .text:0000000000000020 .L0 
     /tmp/ccEvNuaF.s:35     .text:0000000000000038 .L0 
     /tmp/ccEvNuaF.s:36     .text:0000000000000038 .L0 
     /tmp/ccEvNuaF.s:38     .text:000000000000003c .L0 
     /tmp/ccEvNuaF.s:39     .text:000000000000003c .L0 
     /tmp/ccEvNuaF.s:42     .text:0000000000000040 .L0 
     /tmp/ccEvNuaF.s:43     .text:0000000000000044 .L0 
     /tmp/ccEvNuaF.s:44     .text:0000000000000044 .L0 
     /tmp/ccEvNuaF.s:46     .text:0000000000000048 .L0 
     /tmp/ccEvNuaF.s:48     .text:000000000000004c .L0 
     /tmp/ccEvNuaF.s:9      .text:0000000000000000 _ZN6ThreadC1EPFvPvES0_S0_m
     /tmp/ccEvNuaF.s:56     .text:000000000000004c _ZN6ThreadD2Ev
     /tmp/ccEvNuaF.s:59     .text:000000000000004c .L0 
     /tmp/ccEvNuaF.s:3630   .data.rel.local.DW.ref.__gxx_personality_v0:0000000000000000 DW.ref.__gxx_personality_v0
     /tmp/ccEvNuaF.s:64     .text:000000000000004c .L0 
     /tmp/ccEvNuaF.s:65     .text:000000000000004c .L0 
     /tmp/ccEvNuaF.s:66     .text:000000000000004c .L0 
     /tmp/ccEvNuaF.s:69     .text:0000000000000050 .L0 
     /tmp/ccEvNuaF.s:72     .text:0000000000000054 .L0 
     /tmp/ccEvNuaF.s:73     .text:0000000000000058 .L0 
     /tmp/ccEvNuaF.s:76     .text:0000000000000060 .L0 
     /tmp/ccEvNuaF.s:77     .text:0000000000000060 .L0 
     /tmp/ccEvNuaF.s:79     .text:0000000000000064 .L0 
     /tmp/ccEvNuaF.s:82     .text:0000000000000064 .L0 
     /tmp/ccEvNuaF.s:83     .text:0000000000000064 .L0 
     /tmp/ccEvNuaF.s:87     .text:000000000000006c .L0 
     /tmp/ccEvNuaF.s:88     .text:000000000000006c .L0 
     /tmp/ccEvNuaF.s:89     .text:0000000000000070 .L0 
     /tmp/ccEvNuaF.s:91     .text:0000000000000074 .L0 
     /tmp/ccEvNuaF.s:92     .text:0000000000000074 .L0 
     /tmp/ccEvNuaF.s:94     .text:0000000000000078 .L0 
     /tmp/ccEvNuaF.s:98     .text:0000000000000080 .L0 
     /tmp/ccEvNuaF.s:56     .text:000000000000004c _ZN6ThreadD1Ev
     /tmp/ccEvNuaF.s:114    .text:0000000000000080 _ZN6Thread12createThreadEPFvPvES0_S0_m
     /tmp/ccEvNuaF.s:117    .text:0000000000000080 .L0 
     /tmp/ccEvNuaF.s:119    .text:0000000000000080 .L0 
     /tmp/ccEvNuaF.s:120    .text:0000000000000084 .L0 
     /tmp/ccEvNuaF.s:128    .text:00000000000000a0 .L0 
     /tmp/ccEvNuaF.s:129    .text:00000000000000a0 .L0 
     /tmp/ccEvNuaF.s:130    .text:00000000000000a0 .L0 
     /tmp/ccEvNuaF.s:131    .text:00000000000000a0 .L0 
     /tmp/ccEvNuaF.s:132    .text:00000000000000a0 .L0 
     /tmp/ccEvNuaF.s:133    .text:00000000000000a0 .L0 
     /tmp/ccEvNuaF.s:134    .text:00000000000000a0 .L0 
     /tmp/ccEvNuaF.s:136    .text:00000000000000a4 .L0 
     /tmp/ccEvNuaF.s:146    .text:00000000000000b4 .L0 
     /tmp/ccEvNuaF.s:147    .text:00000000000000b4 .L0 
     /tmp/ccEvNuaF.s:148    .text:00000000000000b4 .L0 
GAS LISTING /tmp/ccEvNuaF.s 			page 18


     /tmp/ccEvNuaF.s:149    .text:00000000000000b4 .L0 
     /tmp/ccEvNuaF.s:150    .text:00000000000000b4 .L0 
     /tmp/ccEvNuaF.s:151    .text:00000000000000b4 .L0 
     /tmp/ccEvNuaF.s:160    .text:00000000000000c4 .L0 
     /tmp/ccEvNuaF.s:167    .text:00000000000000dc .L0 
     /tmp/ccEvNuaF.s:169    .text:00000000000000e4 .L0 
     /tmp/ccEvNuaF.s:171    .text:00000000000000e8 .L0 
     /tmp/ccEvNuaF.s:172    .text:00000000000000e8 .L0 
     /tmp/ccEvNuaF.s:174    .text:00000000000000ec .L0 
     /tmp/ccEvNuaF.s:176    .text:00000000000000f0 .L0 
     /tmp/ccEvNuaF.s:179    .text:00000000000000f4 .L0 
     /tmp/ccEvNuaF.s:182    .text:00000000000000f8 .L0 
     /tmp/ccEvNuaF.s:185    .text:00000000000000fc .L0 
     /tmp/ccEvNuaF.s:188    .text:0000000000000100 .L0 
     /tmp/ccEvNuaF.s:190    .text:0000000000000104 .L0 
     /tmp/ccEvNuaF.s:196    .text:0000000000000104 _ZN6Thread13allocateStackEm
     /tmp/ccEvNuaF.s:199    .text:0000000000000104 .L0 
     /tmp/ccEvNuaF.s:201    .text:0000000000000104 .L0 
     /tmp/ccEvNuaF.s:202    .text:0000000000000108 .L0 
     /tmp/ccEvNuaF.s:207    .text:0000000000000118 .L0 
     /tmp/ccEvNuaF.s:208    .text:0000000000000118 .L0 
     /tmp/ccEvNuaF.s:209    .text:0000000000000118 .L0 
     /tmp/ccEvNuaF.s:210    .text:0000000000000118 .L0 
     /tmp/ccEvNuaF.s:212    .text:000000000000011c .L0 
     /tmp/ccEvNuaF.s:215    .text:0000000000000120 .L0 
     /tmp/ccEvNuaF.s:216    .text:0000000000000120 .L0 
     /tmp/ccEvNuaF.s:219    .text:0000000000000124 .L0 
     /tmp/ccEvNuaF.s:220    .text:0000000000000124 .L0 
     /tmp/ccEvNuaF.s:223    .text:0000000000000128 .L0 
     /tmp/ccEvNuaF.s:225    .text:000000000000012c .L0 
     /tmp/ccEvNuaF.s:226    .text:000000000000012c .L0 
     /tmp/ccEvNuaF.s:230    .text:0000000000000130 .L0 
     /tmp/ccEvNuaF.s:231    .text:0000000000000130 .L0 
     /tmp/ccEvNuaF.s:236    .text:000000000000013c .L0 
     /tmp/ccEvNuaF.s:238    .text:0000000000000140 .L0 
     /tmp/ccEvNuaF.s:239    .text:0000000000000140 .L0 
     /tmp/ccEvNuaF.s:242    .text:0000000000000144 .L0 
     /tmp/ccEvNuaF.s:244    .text:0000000000000148 .L0 
     /tmp/ccEvNuaF.s:245    .text:000000000000014c .L0 
     /tmp/ccEvNuaF.s:247    .text:0000000000000150 .L0 
     /tmp/ccEvNuaF.s:248    .text:0000000000000150 .L0 
     /tmp/ccEvNuaF.s:250    .text:0000000000000154 .L0 
     /tmp/ccEvNuaF.s:252    .text:0000000000000158 .L0 
     /tmp/ccEvNuaF.s:255    .text:000000000000015c .L0 
     /tmp/ccEvNuaF.s:257    .text:0000000000000160 .L0 
     /tmp/ccEvNuaF.s:263    .text:0000000000000160 _ZN6ThreadC2EPFvPvES0_m
     /tmp/ccEvNuaF.s:266    .text:0000000000000160 .L0 
     /tmp/ccEvNuaF.s:268    .text:0000000000000160 .L0 
     /tmp/ccEvNuaF.s:269    .text:0000000000000164 .L0 
     /tmp/ccEvNuaF.s:272    .text:000000000000016c .L0 
     /tmp/ccEvNuaF.s:273    .text:000000000000016c .L0 
     /tmp/ccEvNuaF.s:275    .text:0000000000000170 .L0 
     /tmp/ccEvNuaF.s:278    .text:0000000000000170 .L0 
     /tmp/ccEvNuaF.s:283    .text:0000000000000184 .L0 
     /tmp/ccEvNuaF.s:292    .text:00000000000001a4 .L0 
     /tmp/ccEvNuaF.s:293    .text:00000000000001a4 .L0 
     /tmp/ccEvNuaF.s:299    .text:00000000000001b0 .L0 
GAS LISTING /tmp/ccEvNuaF.s 			page 19


     /tmp/ccEvNuaF.s:300    .text:00000000000001b4 .L0 
     /tmp/ccEvNuaF.s:302    .text:00000000000001b8 .L0 
     /tmp/ccEvNuaF.s:303    .text:00000000000001b8 .L0 
     /tmp/ccEvNuaF.s:305    .text:00000000000001bc .L0 
     /tmp/ccEvNuaF.s:307    .text:00000000000001c0 .L0 
     /tmp/ccEvNuaF.s:263    .text:0000000000000160 _ZN6ThreadC1EPFvPvES0_m
     /tmp/ccEvNuaF.s:315    .text:00000000000001c0 _ZN6Thread12createThreadEPFvPvES0_m
     /tmp/ccEvNuaF.s:318    .text:00000000000001c0 .L0 
     /tmp/ccEvNuaF.s:322    .text:00000000000001c0 .L0 
     /tmp/ccEvNuaF.s:323    .text:00000000000001c4 .L0 
     /tmp/ccEvNuaF.s:330    .text:00000000000001dc .L0 
     /tmp/ccEvNuaF.s:331    .text:00000000000001dc .L0 
     /tmp/ccEvNuaF.s:332    .text:00000000000001dc .L0 
     /tmp/ccEvNuaF.s:333    .text:00000000000001dc .L0 
     /tmp/ccEvNuaF.s:334    .text:00000000000001dc .L0 
     /tmp/ccEvNuaF.s:335    .text:00000000000001dc .L0 
     /tmp/ccEvNuaF.s:337    .text:00000000000001e0 .L0 
     /tmp/ccEvNuaF.s:345    .text:00000000000001ec .L0 
     /tmp/ccEvNuaF.s:346    .text:00000000000001ec .L0 
     /tmp/ccEvNuaF.s:347    .text:00000000000001ec .L0 
     /tmp/ccEvNuaF.s:348    .text:00000000000001ec .L0 
     /tmp/ccEvNuaF.s:349    .text:00000000000001ec .L0 
     /tmp/ccEvNuaF.s:350    .text:00000000000001ec .L0 
     /tmp/ccEvNuaF.s:361    .text:00000000000001fc .L0 
     /tmp/ccEvNuaF.s:375    .text:0000000000000218 .L0 
     /tmp/ccEvNuaF.s:376    .text:0000000000000218 .L0 
     /tmp/ccEvNuaF.s:388    .text:0000000000000230 .L0 
     /tmp/ccEvNuaF.s:390    .text:0000000000000238 .L0 
     /tmp/ccEvNuaF.s:392    .text:000000000000023c .L0 
     /tmp/ccEvNuaF.s:393    .text:000000000000023c .L0 
     /tmp/ccEvNuaF.s:395    .text:0000000000000240 .L0 
     /tmp/ccEvNuaF.s:397    .text:0000000000000244 .L0 
     /tmp/ccEvNuaF.s:400    .text:0000000000000248 .L0 
     /tmp/ccEvNuaF.s:403    .text:000000000000024c .L0 
     /tmp/ccEvNuaF.s:406    .text:0000000000000250 .L0 
     /tmp/ccEvNuaF.s:408    .text:0000000000000254 .L0 
     /tmp/ccEvNuaF.s:433    .text:0000000000000254 _ZN6Thread5startEv
     /tmp/ccEvNuaF.s:436    .text:0000000000000254 .L0 
     /tmp/ccEvNuaF.s:438    .text:0000000000000254 .L0 
     /tmp/ccEvNuaF.s:439    .text:0000000000000254 .L0 
     /tmp/ccEvNuaF.s:440    .text:0000000000000254 .L0 
     /tmp/ccEvNuaF.s:442    .text:0000000000000258 .L0 
     /tmp/ccEvNuaF.s:446    .text:0000000000000260 .L0 
     /tmp/ccEvNuaF.s:447    .text:0000000000000264 .L0 
     /tmp/ccEvNuaF.s:451    .text:0000000000000270 .L0 
     /tmp/ccEvNuaF.s:452    .text:0000000000000270 .L0 
     /tmp/ccEvNuaF.s:453    .text:0000000000000270 .L0 
     /tmp/ccEvNuaF.s:455    .text:0000000000000274 .L0 
     /tmp/ccEvNuaF.s:458    .text:0000000000000278 .L0 
     /tmp/ccEvNuaF.s:459    .text:0000000000000278 .L0 
     /tmp/ccEvNuaF.s:461    .text:000000000000027c .L0 
     /tmp/ccEvNuaF.s:464    .text:0000000000000280 .L0 
     /tmp/ccEvNuaF.s:465    .text:0000000000000280 .L0 
     /tmp/ccEvNuaF.s:658    .text:00000000000003b0 _ZN6Thread7wrapperEv
     /tmp/ccEvNuaF.s:473    .text:0000000000000298 .L0 
     /tmp/ccEvNuaF.s:474    .text:0000000000000298 .L0 
     /tmp/ccEvNuaF.s:477    .text:00000000000002a0 .L0 
GAS LISTING /tmp/ccEvNuaF.s 			page 20


     /tmp/ccEvNuaF.s:478    .text:00000000000002a0 .L0 
     /tmp/ccEvNuaF.s:482    .text:00000000000002ac .L0 
     /tmp/ccEvNuaF.s:483    .text:00000000000002b0 .L0 
     /tmp/ccEvNuaF.s:485    .text:00000000000002b4 .L0 
     /tmp/ccEvNuaF.s:486    .text:00000000000002b4 .L0 
     /tmp/ccEvNuaF.s:488    .text:00000000000002b8 .L0 
     /tmp/ccEvNuaF.s:491    .text:00000000000002bc .L0 
     /tmp/ccEvNuaF.s:493    .text:00000000000002c0 .L0 
     /tmp/ccEvNuaF.s:499    .text:00000000000002c0 _ZN6Thread4exitEv
     /tmp/ccEvNuaF.s:502    .text:00000000000002c0 .L0 
     /tmp/ccEvNuaF.s:504    .text:00000000000002c0 .L0 
     /tmp/ccEvNuaF.s:505    .text:00000000000002c4 .L0 
     /tmp/ccEvNuaF.s:507    .text:00000000000002c8 .L0 
     /tmp/ccEvNuaF.s:509    .text:00000000000002cc .L0 
     /tmp/ccEvNuaF.s:511    .text:00000000000002cc .L0 
     /tmp/ccEvNuaF.s:512    .text:00000000000002cc .L0 
     /tmp/ccEvNuaF.s:515    .text:00000000000002d4 .L0 
     /tmp/ccEvNuaF.s:516    .text:00000000000002d8 .L0 
     /tmp/ccEvNuaF.s:517    .text:00000000000002d8 .L0 
     /tmp/ccEvNuaF.s:519    .text:00000000000002dc .L0 
     /tmp/ccEvNuaF.s:521    .text:00000000000002e0 .L0 
     /tmp/ccEvNuaF.s:527    .text:00000000000002e0 _ZN6Thread8dispatchEv
     /tmp/ccEvNuaF.s:530    .text:00000000000002e0 .L0 
     /tmp/ccEvNuaF.s:531    .text:00000000000002e0 .L0 
     /tmp/ccEvNuaF.s:532    .text:00000000000002e4 .L0 
     /tmp/ccEvNuaF.s:536    .text:00000000000002f0 .L0 
     /tmp/ccEvNuaF.s:537    .text:00000000000002f0 .L0 
     /tmp/ccEvNuaF.s:538    .text:00000000000002f0 .L0 
     /tmp/ccEvNuaF.s:540    .text:00000000000002f4 .L0 
     /tmp/ccEvNuaF.s:542    .text:00000000000002f4 .L0 
     /tmp/ccEvNuaF.s:543    .text:00000000000002f4 .L0 
     /tmp/ccEvNuaF.s:546    .text:00000000000002fc .L0 
     /tmp/ccEvNuaF.s:548    .text:0000000000000300 .L0 
     /tmp/ccEvNuaF.s:550    .text:0000000000000304 .L0 
     /tmp/ccEvNuaF.s:554    .text:000000000000030c .L0 
     /tmp/ccEvNuaF.s:555    .text:000000000000030c .L0 
     /tmp/ccEvNuaF.s:558    .text:0000000000000314 .L0 
     /tmp/ccEvNuaF.s:560    .text:000000000000031c .L0 
     /tmp/ccEvNuaF.s:562    .text:0000000000000320 .L0 
     /tmp/ccEvNuaF.s:563    .text:0000000000000320 .L0 
     /tmp/ccEvNuaF.s:566    .text:0000000000000328 .L0 
     /tmp/ccEvNuaF.s:568    .text:000000000000032c .L0 
     /tmp/ccEvNuaF.s:570    .text:0000000000000330 .L0 
     /tmp/ccEvNuaF.s:574    .text:0000000000000338 .L0 
     /tmp/ccEvNuaF.s:575    .text:0000000000000338 .L0 
     /tmp/ccEvNuaF.s:582    .text:0000000000000350 .L0 
     /tmp/ccEvNuaF.s:583    .text:0000000000000354 .L0 
     /tmp/ccEvNuaF.s:584    .text:0000000000000354 .L0 
     /tmp/ccEvNuaF.s:586    .text:0000000000000358 .L0 
     /tmp/ccEvNuaF.s:587    .text:0000000000000358 .L0 
     /tmp/ccEvNuaF.s:589    .text:000000000000035c .L0 
     /tmp/ccEvNuaF.s:592    .text:0000000000000360 .L0 
     /tmp/ccEvNuaF.s:596    .text:0000000000000364 .L0 
     /tmp/ccEvNuaF.s:598    .text:0000000000000364 .L0 
     /tmp/ccEvNuaF.s:599    .text:0000000000000364 .L0 
     /tmp/ccEvNuaF.s:602    .text:000000000000036c .L0 
     /tmp/ccEvNuaF.s:603    .text:000000000000036c .L0 
GAS LISTING /tmp/ccEvNuaF.s 			page 21


     /tmp/ccEvNuaF.s:609    .text:000000000000037c .L0 
     /tmp/ccEvNuaF.s:610    .text:000000000000037c .L0 
     /tmp/ccEvNuaF.s:614    .text:0000000000000388 .L0 
     /tmp/ccEvNuaF.s:615    .text:0000000000000388 .L0 
     /tmp/ccEvNuaF.s:617    .text:0000000000000390 .L0 
     /tmp/ccEvNuaF.s:623    .text:0000000000000390 _ZN6Thread5yieldEv
     /tmp/ccEvNuaF.s:626    .text:0000000000000390 .L0 
     /tmp/ccEvNuaF.s:627    .text:0000000000000390 .L0 
     /tmp/ccEvNuaF.s:628    .text:0000000000000394 .L0 
     /tmp/ccEvNuaF.s:630    .text:0000000000000398 .L0 
     /tmp/ccEvNuaF.s:632    .text:000000000000039c .L0 
     /tmp/ccEvNuaF.s:634    .text:000000000000039c .L0 
      src/Thread.cpp:89     .text:000000000000039c .L0 
     /tmp/ccEvNuaF.s:640    .text:00000000000003a0 .L0 
      src/Thread.cpp:90     .text:00000000000003a0 .L0 
     /tmp/ccEvNuaF.s:646    .text:00000000000003a4 .L0 
     /tmp/ccEvNuaF.s:647    .text:00000000000003a8 .L0 
     /tmp/ccEvNuaF.s:648    .text:00000000000003a8 .L0 
     /tmp/ccEvNuaF.s:650    .text:00000000000003ac .L0 
     /tmp/ccEvNuaF.s:652    .text:00000000000003b0 .L0 
     /tmp/ccEvNuaF.s:661    .text:00000000000003b0 .L0 
     /tmp/ccEvNuaF.s:662    .text:00000000000003b0 .L0 
     /tmp/ccEvNuaF.s:663    .text:00000000000003b4 .L0 
     /tmp/ccEvNuaF.s:667    .text:00000000000003c0 .L0 
     /tmp/ccEvNuaF.s:668    .text:00000000000003c0 .L0 
     /tmp/ccEvNuaF.s:669    .text:00000000000003c0 .L0 
     /tmp/ccEvNuaF.s:671    .text:00000000000003c4 .L0 
     /tmp/ccEvNuaF.s:673    .text:00000000000003c4 .L0 
     /tmp/ccEvNuaF.s:674    .text:00000000000003c4 .L0 
     /tmp/ccEvNuaF.s:678    .text:00000000000003d4 .L0 
     /tmp/ccEvNuaF.s:682    .text:00000000000003dc .L0 
     /tmp/ccEvNuaF.s:683    .text:00000000000003dc .L0 
     /tmp/ccEvNuaF.s:687    .text:00000000000003e8 .L0 
     /tmp/ccEvNuaF.s:688    .text:00000000000003e8 .L0 
     /tmp/ccEvNuaF.s:691    .text:00000000000003f0 .L0 
     /tmp/ccEvNuaF.s:692    .text:00000000000003f4 .L0 
     /tmp/ccEvNuaF.s:694    .text:00000000000003f8 .L0 
     /tmp/ccEvNuaF.s:695    .text:00000000000003f8 .L0 
     /tmp/ccEvNuaF.s:697    .text:00000000000003fc .L0 
     /tmp/ccEvNuaF.s:699    .text:0000000000000400 .L0 
     /tmp/ccEvNuaF.s:701    .text:0000000000000404 .L0 
     /tmp/ccEvNuaF.s:711    .bss:0000000000000000 _ZN6Thread8staticIdE
     /tmp/ccEvNuaF.s:716    .bss:0000000000000008 _ZN6Thread7runningE
     /tmp/ccEvNuaF.s:708    .bss:0000000000000000 .LANCHOR0
     /tmp/ccEvNuaF.s:723    .text:0000000000000404 .L0 
     /tmp/ccEvNuaF.s:23     .text:000000000000000c .L0 
     /tmp/ccEvNuaF.s:278    .text:0000000000000170 .L0 
     /tmp/ccEvNuaF.s:467    .text:0000000000000284 .L0 
     /tmp/ccEvNuaF.s:543    .text:00000000000002f4 .L0 
     /tmp/ccEvNuaF.s:558    .text:0000000000000314 .L0 
     /tmp/ccEvNuaF.s:575    .text:0000000000000338 .L0 
     /tmp/ccEvNuaF.s:674    .text:00000000000003c4 .L0 
     /tmp/ccEvNuaF.s:96     .text:000000000000007c .L6
     /tmp/ccEvNuaF.s:228    .text:0000000000000130 .L12
     /tmp/ccEvNuaF.s:384    .text:0000000000000230 .L21
     /tmp/ccEvNuaF.s:444    .text:0000000000000260 .L28
     /tmp/ccEvNuaF.s:552    .text:000000000000030c .L32
GAS LISTING /tmp/ccEvNuaF.s 			page 22


     /tmp/ccEvNuaF.s:595    .text:0000000000000364 .L36
     /tmp/ccEvNuaF.s:580    .text:0000000000000350 .L31
     /tmp/ccEvNuaF.s:572    .text:0000000000000338 .L34
     /tmp/ccEvNuaF.s:607    .text:000000000000037c .L37
     /tmp/ccEvNuaF.s:352    .text:00000000000001f0 .LEHB0
     /tmp/ccEvNuaF.s:316    .text:00000000000001c0 .LFB15
     /tmp/ccEvNuaF.s:355    .text:00000000000001f8 .LEHE0
     /tmp/ccEvNuaF.s:364    .text:0000000000000208 .LEHB1
     /tmp/ccEvNuaF.s:367    .text:0000000000000210 .LEHE1
     /tmp/ccEvNuaF.s:369    .text:0000000000000214 .L18
     /tmp/ccEvNuaF.s:380    .text:0000000000000228 .LEHB2
     /tmp/ccEvNuaF.s:383    .text:0000000000000230 .LEHE2
     /tmp/ccEvNuaF.s:2024   .debug_abbrev:0000000000000000 .Ldebug_abbrev0
     /tmp/ccEvNuaF.s:3592   .debug_str:000000000000061a .LASF100
     /tmp/ccEvNuaF.s:3582   .debug_str:00000000000005af .LASF101
     /tmp/ccEvNuaF.s:3460   .debug_str:00000000000001e9 .LASF102
     /tmp/ccEvNuaF.s:5      .text:0000000000000000 .Ltext0
     /tmp/ccEvNuaF.s:719    .text:0000000000000404 .Letext0
     /tmp/ccEvNuaF.s:3396   .debug_line:0000000000000000 .Ldebug_line0
     /tmp/ccEvNuaF.s:3530   .debug_str:0000000000000477 .LASF0
     /tmp/ccEvNuaF.s:3546   .debug_str:00000000000004d4 .LASF1
     /tmp/ccEvNuaF.s:3512   .debug_str:00000000000003d8 .LASF2
     /tmp/ccEvNuaF.s:3490   .debug_str:0000000000000331 .LASF4
     /tmp/ccEvNuaF.s:3576   .debug_str:000000000000058a .LASF3
     /tmp/ccEvNuaF.s:3408   .debug_str:0000000000000036 .LASF5
     /tmp/ccEvNuaF.s:3550   .debug_str:0000000000000507 .LASF6
     /tmp/ccEvNuaF.s:3528   .debug_str:0000000000000464 .LASF7
     /tmp/ccEvNuaF.s:3602   .debug_str:0000000000000729 .LASF8
     /tmp/ccEvNuaF.s:3476   .debug_str:000000000000029e .LASF9
     /tmp/ccEvNuaF.s:3558   .debug_str:0000000000000532 .LASF10
     /tmp/ccEvNuaF.s:3594   .debug_str:00000000000006de .LASF11
     /tmp/ccEvNuaF.s:3414   .debug_str:000000000000005e .LASF12
     /tmp/ccEvNuaF.s:3400   .debug_str:0000000000000006 .LASF13
     /tmp/ccEvNuaF.s:3424   .debug_str:00000000000000c6 .LASF14
     /tmp/ccEvNuaF.s:3568   .debug_str:000000000000055e .LASF15
     /tmp/ccEvNuaF.s:3434   .debug_str:0000000000000130 .LASF16
     /tmp/ccEvNuaF.s:3416   .debug_str:000000000000006e .LASF19
     /tmp/ccEvNuaF.s:3620   .debug_str:00000000000007d3 .LASF17
     /tmp/ccEvNuaF.s:3588   .debug_str:0000000000000606 .LASF18
     /tmp/ccEvNuaF.s:3510   .debug_str:00000000000003c8 .LASF32
     /tmp/ccEvNuaF.s:3438   .debug_str:0000000000000156 .LASF48
     /tmp/ccEvNuaF.s:3548   .debug_str:00000000000004e7 .LASF50
     /tmp/ccEvNuaF.s:3578   .debug_str:000000000000059c .LASF20
     /tmp/ccEvNuaF.s:3584   .debug_str:00000000000005be .LASF22
     /tmp/ccEvNuaF.s:3562   .debug_str:000000000000054b .LASF21
     /tmp/ccEvNuaF.s:3474   .debug_str:000000000000027d .LASF23
     /tmp/ccEvNuaF.s:3612   .debug_str:000000000000077d .LASF24
     /tmp/ccEvNuaF.s:3428   .debug_str:00000000000000df .LASF26
     /tmp/ccEvNuaF.s:3604   .debug_str:0000000000000739 .LASF25
     /tmp/ccEvNuaF.s:3488   .debug_str:00000000000002fe .LASF27
     /tmp/ccEvNuaF.s:3426   .debug_str:00000000000000d2 .LASF83
     /tmp/ccEvNuaF.s:3454   .debug_str:00000000000001d1 .LASF76
     /tmp/ccEvNuaF.s:3596   .debug_str:00000000000006ed .LASF78
     /tmp/ccEvNuaF.s:3484   .debug_str:00000000000002dd .LASF103
     /tmp/ccEvNuaF.s:3556   .debug_str:000000000000052c .LASF28
     /tmp/ccEvNuaF.s:3552   .debug_str:000000000000051a .LASF29
     /tmp/ccEvNuaF.s:3492   .debug_str:0000000000000338 .LASF30
GAS LISTING /tmp/ccEvNuaF.s 			page 23


     /tmp/ccEvNuaF.s:3580   .debug_str:00000000000005a6 .LASF31
     /tmp/ccEvNuaF.s:3600   .debug_str:0000000000000722 .LASF33
     /tmp/ccEvNuaF.s:3402   .debug_str:0000000000000016 .LASF34
     /tmp/ccEvNuaF.s:3452   .debug_str:00000000000001c8 .LASF35
     /tmp/ccEvNuaF.s:3614   .debug_str:0000000000000790 .LASF36
     /tmp/ccEvNuaF.s:3518   .debug_str:0000000000000407 .LASF37
     /tmp/ccEvNuaF.s:3566   .debug_str:0000000000000559 .LASF104
     /tmp/ccEvNuaF.s:3450   .debug_str:00000000000001ad .LASF38
     /tmp/ccEvNuaF.s:3572   .debug_str:000000000000057a .LASF39
     /tmp/ccEvNuaF.s:3540   .debug_str:00000000000004b0 .LASF40
     /tmp/ccEvNuaF.s:3502   .debug_str:0000000000000369 .LASF41
     /tmp/ccEvNuaF.s:3418   .debug_str:000000000000007a .LASF42
     /tmp/ccEvNuaF.s:3586   .debug_str:00000000000005df .LASF43
     /tmp/ccEvNuaF.s:3544   .debug_str:00000000000004ce .LASF44
     /tmp/ccEvNuaF.s:3472   .debug_str:000000000000026a .LASF45
     /tmp/ccEvNuaF.s:3508   .debug_str:00000000000003c3 .LASF46
     /tmp/ccEvNuaF.s:3406   .debug_str:0000000000000024 .LASF47
     /tmp/ccEvNuaF.s:3622   .debug_str:00000000000007d8 .LASF49
     /tmp/ccEvNuaF.s:3486   .debug_str:00000000000002e9 .LASF51
     /tmp/ccEvNuaF.s:3500   .debug_str:0000000000000360 .LASF105
     /tmp/ccEvNuaF.s:3468   .debug_str:0000000000000243 .LASF106
     /tmp/ccEvNuaF.s:3520   .debug_str:000000000000041f .LASF52
     /tmp/ccEvNuaF.s:3504   .debug_str:0000000000000376 .LASF53
     /tmp/ccEvNuaF.s:3570   .debug_str:0000000000000574 .LASF54
     /tmp/ccEvNuaF.s:3480   .debug_str:00000000000002bc .LASF55
     /tmp/ccEvNuaF.s:3532   .debug_str:0000000000000484 .LASF56
     /tmp/ccEvNuaF.s:3464   .debug_str:0000000000000215 .LASF57
     /tmp/ccEvNuaF.s:3420   .debug_str:000000000000009e .LASF58
     /tmp/ccEvNuaF.s:3608   .debug_str:0000000000000764 .LASF59
     /tmp/ccEvNuaF.s:3436   .debug_str:0000000000000146 .LASF62
     /tmp/ccEvNuaF.s:3606   .debug_str:0000000000000754 .LASF64
     /tmp/ccEvNuaF.s:3470   .debug_str:000000000000025a .LASF60
     /tmp/ccEvNuaF.s:3442   .debug_str:0000000000000164 .LASF61
     /tmp/ccEvNuaF.s:3494   .debug_str:0000000000000340 .LASF63
     /tmp/ccEvNuaF.s:3478   .debug_str:00000000000002ac .LASF65
     /tmp/ccEvNuaF.s:3534   .debug_str:000000000000048d .LASF66
     /tmp/ccEvNuaF.s:3610   .debug_str:0000000000000773 .LASF67
     /tmp/ccEvNuaF.s:3498   .debug_str:0000000000000358 .LASF68
     /tmp/ccEvNuaF.s:3496   .debug_str:0000000000000353 .LASF69
     /tmp/ccEvNuaF.s:3536   .debug_str:0000000000000493 .LASF70
     /tmp/ccEvNuaF.s:3404   .debug_str:000000000000001e .LASF71
     /tmp/ccEvNuaF.s:3616   .debug_str:0000000000000798 .LASF72
     /tmp/ccEvNuaF.s:3482   .debug_str:00000000000002cf .LASF73
     /tmp/ccEvNuaF.s:3462   .debug_str:0000000000000207 .LASF74
     /tmp/ccEvNuaF.s:3526   .debug_str:0000000000000448 .LASF75
     /tmp/ccEvNuaF.s:3430   .debug_str:000000000000010a .LASF107
     /tmp/ccEvNuaF.s:3506   .debug_str:0000000000000398 .LASF108
     /tmp/ccEvNuaF.s:3514   .debug_str:00000000000003e6 .LASF77
     /tmp/ccEvNuaF.s:3618   .debug_str:00000000000007a6 .LASF79
     /tmp/ccEvNuaF.s:3554   .debug_str:0000000000000522 .LASF80
     /tmp/ccEvNuaF.s:3448   .debug_str:0000000000000199 .LASF109
     /tmp/ccEvNuaF.s:3524   .debug_str:000000000000042d .LASF110
     /tmp/ccEvNuaF.s:3574   .debug_str:0000000000000582 .LASF81
     /tmp/ccEvNuaF.s:3538   .debug_str:0000000000000498 .LASF82
     /tmp/ccEvNuaF.s:3440   .debug_str:000000000000015f .LASF84
     /tmp/ccEvNuaF.s:3522   .debug_str:0000000000000428 .LASF85
     /tmp/ccEvNuaF.s:3458   .debug_str:00000000000001e4 .LASF86
GAS LISTING /tmp/ccEvNuaF.s 			page 24


     /tmp/ccEvNuaF.s:3444   .debug_str:0000000000000173 .LASF87
     /tmp/ccEvNuaF.s:3516   .debug_str:00000000000003f2 .LASF88
     /tmp/ccEvNuaF.s:624    .text:0000000000000390 .LFB22
     /tmp/ccEvNuaF.s:653    .text:00000000000003b0 .LFE22
     /tmp/ccEvNuaF.s:528    .text:00000000000002e0 .LFB21
     /tmp/ccEvNuaF.s:618    .text:0000000000000390 .LFE21
     /tmp/ccEvNuaF.s:3046   .debug_loc:0000000000000000 .LLST22
     /tmp/ccEvNuaF.s:556    .text:0000000000000314 .LVL46
     /tmp/ccEvNuaF.s:579    .text:0000000000000350 .LVL47
     /tmp/ccEvNuaF.s:605    .text:0000000000000378 .LVL50
     /tmp/ccEvNuaF.s:612    .text:0000000000000388 .LVL51
     /tmp/ccEvNuaF.s:659    .text:00000000000003b0 .LFB20
     /tmp/ccEvNuaF.s:702    .text:0000000000000404 .LFE20
     /tmp/ccEvNuaF.s:685    .text:00000000000003e8 .LVL53
     /tmp/ccEvNuaF.s:689    .text:00000000000003f0 .LVL54
     /tmp/ccEvNuaF.s:500    .text:00000000000002c0 .LFB19
     /tmp/ccEvNuaF.s:522    .text:00000000000002e0 .LFE19
     /tmp/ccEvNuaF.s:3564   .debug_str:0000000000000554 .LASF89
     /tmp/ccEvNuaF.s:434    .text:0000000000000254 .LFB18
     /tmp/ccEvNuaF.s:494    .text:00000000000002c0 .LFE18
     /tmp/ccEvNuaF.s:3057   .debug_loc:0000000000000036 .LLST20
     /tmp/ccEvNuaF.s:3456   .debug_str:00000000000001db .LASF90
     /tmp/ccEvNuaF.s:3075   .debug_loc:0000000000000082 .LLST21
     /tmp/ccEvNuaF.s:471    .text:0000000000000298 .LVL41
     /tmp/ccEvNuaF.s:480    .text:00000000000002ac .LVL42
     /tmp/ccEvNuaF.s:197    .text:0000000000000104 .LFB17
     /tmp/ccEvNuaF.s:258    .text:0000000000000160 .LFE17
     /tmp/ccEvNuaF.s:3091   .debug_loc:00000000000000bd .LLST7
     /tmp/ccEvNuaF.s:3398   .debug_str:0000000000000000 .LASF92
     /tmp/ccEvNuaF.s:3109   .debug_loc:0000000000000109 .LLST8
     /tmp/ccEvNuaF.s:3598   .debug_str:000000000000071b .LASF91
     /tmp/ccEvNuaF.s:3123   .debug_loc:0000000000000142 .LLST9
     /tmp/ccEvNuaF.s:234    .text:000000000000013c .LVL19
     /tmp/ccEvNuaF.s:115    .text:0000000000000080 .LFB16
     /tmp/ccEvNuaF.s:191    .text:0000000000000104 .LFE16
     /tmp/ccEvNuaF.s:3130   .debug_loc:0000000000000165 .LLST1
     /tmp/ccEvNuaF.s:3148   .debug_loc:00000000000001b1 .LLST2
     /tmp/ccEvNuaF.s:3446   .debug_str:0000000000000187 .LASF93
     /tmp/ccEvNuaF.s:3166   .debug_loc:00000000000001fd .LLST3
     /tmp/ccEvNuaF.s:3412   .debug_str:000000000000004c .LASF94
     /tmp/ccEvNuaF.s:3184   .debug_loc:0000000000000249 .LLST4
     /tmp/ccEvNuaF.s:143    .text:00000000000000b4 .LBB11
     /tmp/ccEvNuaF.s:158    .text:00000000000000c4 .LBE11
     /tmp/ccEvNuaF.s:3202   .debug_loc:0000000000000295 .LLST5
     /tmp/ccEvNuaF.s:3211   .debug_loc:00000000000002ba .LLST6
     /tmp/ccEvNuaF.s:154    .text:00000000000000c0 .LVL7
     /tmp/ccEvNuaF.s:165    .text:00000000000000dc .LVL9
     /tmp/ccEvNuaF.s:409    .text:0000000000000254 .LFE15
     /tmp/ccEvNuaF.s:3219   .debug_loc:00000000000002de .LLST14
     /tmp/ccEvNuaF.s:3248   .debug_loc:0000000000000353 .LLST15
     /tmp/ccEvNuaF.s:3542   .debug_str:00000000000004bf .LASF95
     /tmp/ccEvNuaF.s:3266   .debug_loc:000000000000039f .LLST16
     /tmp/ccEvNuaF.s:343    .text:00000000000001ec .LBB14
     /tmp/ccEvNuaF.s:359    .text:00000000000001fc .LBE14
     /tmp/ccEvNuaF.s:3284   .debug_loc:00000000000003eb .LLST17
     /tmp/ccEvNuaF.s:3293   .debug_loc:0000000000000410 .LLST18
     /tmp/ccEvNuaF.s:354    .text:00000000000001f8 .LVL28
GAS LISTING /tmp/ccEvNuaF.s 			page 25


     /tmp/ccEvNuaF.s:372    .text:0000000000000218 .LBB16
     /tmp/ccEvNuaF.s:386    .text:0000000000000230 .LBE16
     /tmp/ccEvNuaF.s:3301   .debug_loc:0000000000000434 .LLST19
     /tmp/ccEvNuaF.s:378    .text:0000000000000224 .LVL32
     /tmp/ccEvNuaF.s:366    .text:0000000000000210 .LVL30
     /tmp/ccEvNuaF.s:382    .text:0000000000000230 .LVL33
     /tmp/ccEvNuaF.s:3560   .debug_str:0000000000000541 .LASF96
     /tmp/ccEvNuaF.s:3590   .debug_str:000000000000060b .LASF97
     /tmp/ccEvNuaF.s:57     .text:000000000000004c .LFB13
     /tmp/ccEvNuaF.s:99     .text:0000000000000080 .LFE13
     /tmp/ccEvNuaF.s:3308   .debug_loc:0000000000000457 .LLST0
     /tmp/ccEvNuaF.s:84     .text:000000000000006c .LVL3
     /tmp/ccEvNuaF.s:3422   .debug_str:00000000000000ab .LASF98
     /tmp/ccEvNuaF.s:10     .text:0000000000000000 .LFB10
     /tmp/ccEvNuaF.s:49     .text:000000000000004c .LFE10
     /tmp/ccEvNuaF.s:3466   .debug_str:000000000000022b .LASF99
     /tmp/ccEvNuaF.s:264    .text:0000000000000160 .LFB7
     /tmp/ccEvNuaF.s:308    .text:00000000000001c0 .LFE7
     /tmp/ccEvNuaF.s:3322   .debug_loc:0000000000000490 .LLST10
     /tmp/ccEvNuaF.s:3336   .debug_loc:00000000000004c9 .LLST11
     /tmp/ccEvNuaF.s:3355   .debug_loc:0000000000000516 .LLST12
     /tmp/ccEvNuaF.s:3369   .debug_loc:000000000000054f .LLST13
     /tmp/ccEvNuaF.s:296    .text:00000000000001b0 .LVL24
     /tmp/ccEvNuaF.s:3410   .debug_str:000000000000003d .LASF111
     /tmp/ccEvNuaF.s:3432   .debug_str:0000000000000118 .LASF112
     /tmp/ccEvNuaF.s:544    .text:00000000000002fc .LVL45
     /tmp/ccEvNuaF.s:590    .text:000000000000035c .LVL48
     /tmp/ccEvNuaF.s:594    .text:0000000000000364 .LVL49
     /tmp/ccEvNuaF.s:437    .text:0000000000000254 .LVL37
     /tmp/ccEvNuaF.s:469    .text:0000000000000290 .LVL40
     /tmp/ccEvNuaF.s:489    .text:00000000000002b8 .LVL43
     /tmp/ccEvNuaF.s:462    .text:0000000000000280 .LVL38
     /tmp/ccEvNuaF.s:466    .text:0000000000000284 .LVL39
     /tmp/ccEvNuaF.s:200    .text:0000000000000104 .LVL14
     /tmp/ccEvNuaF.s:232    .text:0000000000000134 .LVL18
     /tmp/ccEvNuaF.s:253    .text:0000000000000158 .LVL21
     /tmp/ccEvNuaF.s:221    .text:0000000000000128 .LVL16
     /tmp/ccEvNuaF.s:217    .text:0000000000000124 .LVL15
     /tmp/ccEvNuaF.s:240    .text:0000000000000144 .LVL20
     /tmp/ccEvNuaF.s:118    .text:0000000000000080 .LVL4
     /tmp/ccEvNuaF.s:152    .text:00000000000000b8 .LVL6
     /tmp/ccEvNuaF.s:177    .text:00000000000000f0 .LVL10
     /tmp/ccEvNuaF.s:180    .text:00000000000000f4 .LVL11
     /tmp/ccEvNuaF.s:183    .text:00000000000000f8 .LVL12
     /tmp/ccEvNuaF.s:186    .text:00000000000000fc .LVL13
     /tmp/ccEvNuaF.s:142    .text:00000000000000b4 .LVL5
     /tmp/ccEvNuaF.s:156    .text:00000000000000c4 .LVL8
     /tmp/ccEvNuaF.s:321    .text:00000000000001c0 .LVL25
     /tmp/ccEvNuaF.s:351    .text:00000000000001f0 .LVL27
     /tmp/ccEvNuaF.s:371    .text:0000000000000218 .LVL31
     /tmp/ccEvNuaF.s:398    .text:0000000000000244 .LVL34
     /tmp/ccEvNuaF.s:401    .text:0000000000000248 .LVL35
     /tmp/ccEvNuaF.s:404    .text:000000000000024c .LVL36
     /tmp/ccEvNuaF.s:342    .text:00000000000001ec .LVL26
     /tmp/ccEvNuaF.s:357    .text:00000000000001fc .LVL29
     /tmp/ccEvNuaF.s:62     .text:000000000000004c .LVL1
     /tmp/ccEvNuaF.s:67     .text:0000000000000050 .LVL2
GAS LISTING /tmp/ccEvNuaF.s 			page 26


     /tmp/ccEvNuaF.s:267    .text:0000000000000160 .LVL22
     /tmp/ccEvNuaF.s:294    .text:00000000000001a8 .LVL23
     /tmp/ccEvNuaF.s:724    .debug_info:0000000000000000 .Ldebug_info0
     /tmp/ccEvNuaF.s:102    .gcc_except_table:0000000000000000 .LLSDA13
     /tmp/ccEvNuaF.s:411    .gcc_except_table:0000000000000004 .LLSDA15

UNDEFINED SYMBOLS
_ZN15MemoryAllocator8mem_freeEPv
__gxx_personality_v0
_ZN15MemoryAllocator9mem_allocEm
_Unwind_Resume
_ZN6Thread11initContextEPNS_7ContextEPFvvEPv
_ZN9Scheduler3putEP6Thread
_ZN9Scheduler3getEv
_ZN6Thread13contextSwitchEPNS_7ContextES1_
