GAS LISTING /tmp/ccq3QzLR.s 			page 1


   1              		.file	"Thread.cpp"
   2              		.option pic
   3              		.option norelax
   4              		.text
   5              	.Ltext0:
   6              		.align	2
   7              		.globl	_ZN6ThreadD2Ev
   9              	_ZN6ThreadD2Ev:
  10              	.LFB6:
  11              		.file 1 "src/Thread.cpp"
   1:src/Thread.cpp **** //
   2:src/Thread.cpp **** // Created by os on 10/8/25.
   3:src/Thread.cpp **** //
   4:src/Thread.cpp **** 
   5:src/Thread.cpp **** #include "../h/Thread.hpp"
   6:src/Thread.cpp **** #include "../h/Scheduler.hpp"
   7:src/Thread.cpp **** #include "../h/MemoryAllocator.hpp"
   8:src/Thread.cpp **** #include "../lib/hw.h"
   9:src/Thread.cpp **** 
  10:src/Thread.cpp **** Thread* Thread::running = nullptr;
  11:src/Thread.cpp **** 
  12:src/Thread.cpp **** int Thread::staticId = 0;
  13:src/Thread.cpp **** 
  14:src/Thread.cpp **** Thread::Thread(Body b, void* a, size_t stackSizeBytes)
  15:src/Thread.cpp ****     : id(staticId++), stack(nullptr), stackSize(stackSizeBytes), body(b), args(a), state(NEW), next
  16:src/Thread.cpp ****     allocateStack(stackSizeBytes);
  17:src/Thread.cpp **** }
  18:src/Thread.cpp **** 
  19:src/Thread.cpp **** Thread::~Thread() {
  12              		.loc 1 19 1
  13              		.cfi_startproc
  14              		.cfi_personality 0x9b,DW.ref.__gxx_personality_v0
  15              		.cfi_lsda 0x1b,.LLSDA6
  16              	.LVL0:
  17              	.LBB2:
  20:src/Thread.cpp ****     if (stack) {
  18              		.loc 1 20 5
  19              		.loc 1 20 9 is_stmt 0
  20 0000 03358500 		ld	a0,8(a0)
  21              	.LVL1:
  22              		.loc 1 20 5
  23 0004 63060502 		beqz	a0,.L4
  24              	.LBE2:
  19:src/Thread.cpp ****     if (stack) {
  25              		.loc 1 19 1
  26 0008 130101FF 		addi	sp,sp,-16
  27              		.cfi_def_cfa_offset 16
  28 000c 23341100 		sd	ra,8(sp)
  29 0010 23308100 		sd	s0,0(sp)
  30              		.cfi_offset 1, -8
  31              		.cfi_offset 8, -16
  32 0014 13040101 		addi	s0,sp,16
  33              		.cfi_def_cfa 8, 0
  34              	.LBB3:
  21:src/Thread.cpp ****         MemoryAllocator::mem_free(stack);
  35              		.loc 1 21 9 is_stmt 1
  36              		.loc 1 21 34 is_stmt 0
GAS LISTING /tmp/ccq3QzLR.s 			page 2


  37 0018 97000000 		call	_ZN15MemoryAllocator8mem_freeEPv@plt
  37      E7800000 
  38              	.LVL2:
  22:src/Thread.cpp ****         stack = nullptr;
  39              		.loc 1 22 9 is_stmt 1
  40              	.LBE3:
  23:src/Thread.cpp ****     }
  24:src/Thread.cpp **** }
  41              		.loc 1 24 1 is_stmt 0
  42 0020 83308100 		ld	ra,8(sp)
  43              		.cfi_restore 1
  44 0024 03340100 		ld	s0,0(sp)
  45              		.cfi_restore 8
  46              		.cfi_def_cfa 2, 16
  47 0028 13010101 		addi	sp,sp,16
  48              		.cfi_def_cfa_offset 0
  49 002c 67800000 		jr	ra
  50              	.L4:
  51 0030 67800000 		ret
  52              		.cfi_endproc
  53              	.LFE6:
  54              		.globl	__gxx_personality_v0
  55              		.section	.gcc_except_table,"a",@progbits
  56              	.LLSDA6:
  57 0000 FF       		.byte	0xff
  58 0001 FF       		.byte	0xff
  59 0002 03       		.byte	0x3
  60 0003 00       		.byte	0
  61              		.text
  63              		.globl	_ZN6ThreadD1Ev
  64              		.set	_ZN6ThreadD1Ev,_ZN6ThreadD2Ev
  65              		.align	2
  66              		.globl	_ZN6Thread13allocateStackEm
  68              	_ZN6Thread13allocateStackEm:
  69              	.LFB8:
  25:src/Thread.cpp **** 
  26:src/Thread.cpp **** void Thread::allocateStack(size_t bytes) {
  70              		.loc 1 26 42 is_stmt 1
  71              		.cfi_startproc
  72              	.LVL3:
  73 0034 130101FE 		addi	sp,sp,-32
  74              		.cfi_def_cfa_offset 32
  75 0038 233C1100 		sd	ra,24(sp)
  76 003c 23388100 		sd	s0,16(sp)
  77 0040 23349100 		sd	s1,8(sp)
  78 0044 23302101 		sd	s2,0(sp)
  79              		.cfi_offset 1, -8
  80              		.cfi_offset 8, -16
  81              		.cfi_offset 9, -24
  82              		.cfi_offset 18, -32
  83 0048 13040102 		addi	s0,sp,32
  84              		.cfi_def_cfa 8, 0
  85 004c 13090500 		mv	s2,a0
  27:src/Thread.cpp ****     size_t blocks = bytes / MEM_BLOCK_SIZE;
  86              		.loc 1 27 5
  87              		.loc 1 27 12 is_stmt 0
  88 0050 93D46500 		srli	s1,a1,6
GAS LISTING /tmp/ccq3QzLR.s 			page 3


  89              	.LVL4:
  28:src/Thread.cpp ****     if (bytes % MEM_BLOCK_SIZE != 0) blocks++;
  90              		.loc 1 28 5 is_stmt 1
  91              		.loc 1 28 15 is_stmt 0
  92 0054 93F5F503 		andi	a1,a1,63
  93              	.LVL5:
  94              		.loc 1 28 5
  95 0058 63840500 		beqz	a1,.L8
  96              		.loc 1 28 38 is_stmt 1 discriminator 1
  97              		.loc 1 28 44 is_stmt 0 discriminator 1
  98 005c 93841400 		addi	s1,s1,1
  99              	.LVL6:
 100              	.L8:
  29:src/Thread.cpp **** 
  30:src/Thread.cpp ****     stack = MemoryAllocator::mem_alloc(blocks);
 101              		.loc 1 30 5 is_stmt 1
 102              		.loc 1 30 39 is_stmt 0
 103 0060 13850400 		mv	a0,s1
 104              	.LVL7:
 105 0064 97000000 		call	_ZN15MemoryAllocator9mem_allocEm@plt
 105      E7800000 
 106              	.LVL8:
 107              		.loc 1 30 11
 108 006c 2334A900 		sd	a0,8(s2)
  31:src/Thread.cpp ****     stackSize = blocks * MEM_BLOCK_SIZE;
 109              		.loc 1 31 5 is_stmt 1
 110              		.loc 1 31 24 is_stmt 0
 111 0070 93946400 		slli	s1,s1,6
 112              	.LVL9:
 113              		.loc 1 31 15
 114 0074 23389900 		sd	s1,16(s2)
  32:src/Thread.cpp **** }
 115              		.loc 1 32 1
 116 0078 83308101 		ld	ra,24(sp)
 117              		.cfi_restore 1
 118 007c 03340101 		ld	s0,16(sp)
 119              		.cfi_restore 8
 120              		.cfi_def_cfa 2, 32
 121 0080 83348100 		ld	s1,8(sp)
 122              		.cfi_restore 9
 123 0084 03390100 		ld	s2,0(sp)
 124              		.cfi_restore 18
 125              	.LVL10:
 126 0088 13010102 		addi	sp,sp,32
 127              		.cfi_def_cfa_offset 0
 128 008c 67800000 		jr	ra
 129              		.cfi_endproc
 130              	.LFE8:
 132              		.align	2
 133              		.globl	_ZN6ThreadC2EPFvPvES0_m
 135              	_ZN6ThreadC2EPFvPvES0_m:
 136              	.LFB3:
  14:src/Thread.cpp ****     : id(staticId++), stack(nullptr), stackSize(stackSizeBytes), body(b), args(a), state(NEW), next
 137              		.loc 1 14 1 is_stmt 1
 138              		.cfi_startproc
 139              	.LVL11:
 140 0090 130101FF 		addi	sp,sp,-16
GAS LISTING /tmp/ccq3QzLR.s 			page 4


 141              		.cfi_def_cfa_offset 16
 142 0094 23341100 		sd	ra,8(sp)
 143 0098 23308100 		sd	s0,0(sp)
 144              		.cfi_offset 1, -8
 145              		.cfi_offset 8, -16
 146 009c 13040101 		addi	s0,sp,16
 147              		.cfi_def_cfa 8, 0
 148              	.LBB4:
  15:src/Thread.cpp ****     allocateStack(stackSizeBytes);
 149              		.loc 1 15 18 is_stmt 0
 150 00a0 17080000 		lla	a6,.LANCHOR0
 150      13080800 
 151 00a8 03270800 		lw	a4,0(a6)
 152 00ac 9B081700 		addiw	a7,a4,1
 153 00b0 23201801 		sw	a7,0(a6)
  15:src/Thread.cpp ****     allocateStack(stackSizeBytes);
 154              		.loc 1 15 108
 155 00b4 2320E500 		sw	a4,0(a0)
 156 00b8 23340500 		sd	zero,8(a0)
 157 00bc 2338D500 		sd	a3,16(a0)
 158 00c0 2334B502 		sd	a1,40(a0)
 159 00c4 2338C502 		sd	a2,48(a0)
 160 00c8 232C0502 		sw	zero,56(a0)
 161 00cc 23300504 		sd	zero,64(a0)
  16:src/Thread.cpp **** }
 162              		.loc 1 16 5 is_stmt 1
  16:src/Thread.cpp **** }
 163              		.loc 1 16 18 is_stmt 0
 164 00d0 93850600 		mv	a1,a3
 165              	.LVL12:
 166 00d4 97000000 		call	_ZN6Thread13allocateStackEm
 166      E7800000 
 167              	.LVL13:
 168              	.LBE4:
  17:src/Thread.cpp **** 
 169              		.loc 1 17 1
 170 00dc 83308100 		ld	ra,8(sp)
 171              		.cfi_restore 1
 172 00e0 03340100 		ld	s0,0(sp)
 173              		.cfi_restore 8
 174              		.cfi_def_cfa 2, 16
 175 00e4 13010101 		addi	sp,sp,16
 176              		.cfi_def_cfa_offset 0
 177 00e8 67800000 		jr	ra
 178              		.cfi_endproc
 179              	.LFE3:
 181              		.globl	_ZN6ThreadC1EPFvPvES0_m
 182              		.set	_ZN6ThreadC1EPFvPvES0_m,_ZN6ThreadC2EPFvPvES0_m
 183              		.align	2
 184              		.globl	_ZN6Thread5startEv
 186              	_ZN6Thread5startEv:
 187              	.LFB9:
  33:src/Thread.cpp **** 
  34:src/Thread.cpp **** void Thread::start() {
 188              		.loc 1 34 22 is_stmt 1
 189              		.cfi_startproc
 190              	.LVL14:
GAS LISTING /tmp/ccq3QzLR.s 			page 5


  35:src/Thread.cpp ****     if (state != NEW) return;
 191              		.loc 1 35 5
 192              		.loc 1 35 9 is_stmt 0
 193 00ec 83278503 		lw	a5,56(a0)
 194              		.loc 1 35 5
 195 00f0 63840700 		beqz	a5,.L18
 196 00f4 67800000 		ret
 197              	.L18:
  34:src/Thread.cpp ****     if (state != NEW) return;
 198              		.loc 1 34 22
 199 00f8 130101FE 		addi	sp,sp,-32
 200              		.cfi_def_cfa_offset 32
 201 00fc 233C1100 		sd	ra,24(sp)
 202 0100 23388100 		sd	s0,16(sp)
 203 0104 23349100 		sd	s1,8(sp)
 204              		.cfi_offset 1, -8
 205              		.cfi_offset 8, -16
 206              		.cfi_offset 9, -24
 207 0108 13040102 		addi	s0,sp,32
 208              		.cfi_def_cfa 8, 0
 209 010c 93040500 		mv	s1,a0
  36:src/Thread.cpp **** 
  37:src/Thread.cpp ****     void* stackTop = (char*)stack + stackSize;
 210              		.loc 1 37 5 is_stmt 1
 211              		.loc 1 37 29 is_stmt 0
 212 0110 03368500 		ld	a2,8(a0)
 213              		.loc 1 37 37
 214 0114 83370501 		ld	a5,16(a0)
 215              	.LVL15:
  38:src/Thread.cpp ****     initContext(&context, wrapper, stackTop);
 216              		.loc 1 38 5 is_stmt 1
 217              		.loc 1 38 16 is_stmt 0
 218 0118 3306F600 		add	a2,a2,a5
 219              	.LVL16:
 220 011c 97050000 		lla	a1,_ZN6Thread7wrapperEv
 220      93850500 
 221 0124 13058501 		addi	a0,a0,24
 222              	.LVL17:
 223 0128 97000000 		call	_ZN6Thread11initContextEPNS_7ContextEPFvvEPv@plt
 223      E7800000 
 224              	.LVL18:
  39:src/Thread.cpp ****     state = READY;
 225              		.loc 1 39 5 is_stmt 1
 226              		.loc 1 39 11 is_stmt 0
 227 0130 93071000 		li	a5,1
 228 0134 23ACF402 		sw	a5,56(s1)
  40:src/Thread.cpp ****     Scheduler::put(this);
 229              		.loc 1 40 5 is_stmt 1
 230              		.loc 1 40 19 is_stmt 0
 231 0138 13850400 		mv	a0,s1
 232 013c 97000000 		call	_ZN9Scheduler3putEP6Thread@plt
 232      E7800000 
 233              	.LVL19:
  41:src/Thread.cpp **** }
 234              		.loc 1 41 1
 235 0144 83308101 		ld	ra,24(sp)
 236              		.cfi_restore 1
GAS LISTING /tmp/ccq3QzLR.s 			page 6


 237 0148 03340101 		ld	s0,16(sp)
 238              		.cfi_restore 8
 239              		.cfi_def_cfa 2, 32
 240 014c 83348100 		ld	s1,8(sp)
 241              		.cfi_restore 9
 242              	.LVL20:
 243 0150 13010102 		addi	sp,sp,32
 244              		.cfi_def_cfa_offset 0
 245 0154 67800000 		jr	ra
 246              		.cfi_endproc
 247              	.LFE9:
 249              		.align	2
 250              		.globl	_ZN6Thread4exitEv
 252              	_ZN6Thread4exitEv:
 253              	.LFB10:
  42:src/Thread.cpp **** 
  43:src/Thread.cpp **** void Thread::exit() {
 254              		.loc 1 43 21 is_stmt 1
 255              		.cfi_startproc
 256              	.LVL21:
 257 0158 130101FF 		addi	sp,sp,-16
 258              		.cfi_def_cfa_offset 16
 259 015c 23348100 		sd	s0,8(sp)
 260              		.cfi_offset 8, -8
 261 0160 13040101 		addi	s0,sp,16
 262              		.cfi_def_cfa 8, 0
  44:src/Thread.cpp ****     state = FINISHED;
 263              		.loc 1 44 5
 264              		.loc 1 44 11 is_stmt 0
 265 0164 93074000 		li	a5,4
 266 0168 232CF502 		sw	a5,56(a0)
  45:src/Thread.cpp **** }
 267              		.loc 1 45 1
 268 016c 03348100 		ld	s0,8(sp)
 269              		.cfi_restore 8
 270              		.cfi_def_cfa 2, 16
 271 0170 13010101 		addi	sp,sp,16
 272              		.cfi_def_cfa_offset 0
 273 0174 67800000 		jr	ra
 274              		.cfi_endproc
 275              	.LFE10:
 277              		.align	2
 278              		.globl	_ZN6Thread8dispatchEv
 280              	_ZN6Thread8dispatchEv:
 281              	.LFB12:
  46:src/Thread.cpp **** 
  47:src/Thread.cpp **** void Thread::wrapper() {
  48:src/Thread.cpp ****     running->body(running->args);
  49:src/Thread.cpp ****     running->exit();
  50:src/Thread.cpp ****     yield();
  51:src/Thread.cpp **** }
  52:src/Thread.cpp **** 
  53:src/Thread.cpp **** void Thread::dispatch() {
 282              		.loc 1 53 25 is_stmt 1
 283              		.cfi_startproc
 284 0178 130101FE 		addi	sp,sp,-32
 285              		.cfi_def_cfa_offset 32
GAS LISTING /tmp/ccq3QzLR.s 			page 7


 286 017c 233C1100 		sd	ra,24(sp)
 287 0180 23388100 		sd	s0,16(sp)
 288 0184 23349100 		sd	s1,8(sp)
 289              		.cfi_offset 1, -8
 290              		.cfi_offset 8, -16
 291              		.cfi_offset 9, -24
 292 0188 13040102 		addi	s0,sp,32
 293              		.cfi_def_cfa 8, 0
  54:src/Thread.cpp ****     Thread* old = running;
 294              		.loc 1 54 5
 295              		.loc 1 54 13 is_stmt 0
 296 018c 97040000 		ld	s1,.LANCHOR0+8
 296      83B40400 
 297              	.LVL22:
  55:src/Thread.cpp **** 
  56:src/Thread.cpp ****     if (old && old->state != FINISHED) {
 298              		.loc 1 56 5 is_stmt 1
 299 0194 63880400 		beqz	s1,.L22
 300              		.loc 1 56 21 is_stmt 0 discriminator 1
 301 0198 03A78403 		lw	a4,56(s1)
 302              		.loc 1 56 13 discriminator 1
 303 019c 93074000 		li	a5,4
 304 01a0 6312F704 		bne	a4,a5,.L25
 305              	.L22:
  57:src/Thread.cpp ****         old->state = READY;
  58:src/Thread.cpp ****         Scheduler::put(old);
  59:src/Thread.cpp ****     }
  60:src/Thread.cpp **** 
  61:src/Thread.cpp ****     Thread* next = Scheduler::get();
 306              		.loc 1 61 5 is_stmt 1
 307              		.loc 1 61 34 is_stmt 0
 308 01a4 97000000 		call	_ZN9Scheduler3getEv@plt
 308      E7800000 
 309              	.LVL23:
  62:src/Thread.cpp ****     if (!next) return;
 310              		.loc 1 62 5 is_stmt 1
 311 01ac 63020502 		beqz	a0,.L21
  63:src/Thread.cpp **** 
  64:src/Thread.cpp ****     next->state = RUNNING;
 312              		.loc 1 64 5
 313              		.loc 1 64 17 is_stmt 0
 314 01b0 93072000 		li	a5,2
 315 01b4 232CF502 		sw	a5,56(a0)
  65:src/Thread.cpp ****     running = next;
 316              		.loc 1 65 5 is_stmt 1
 317              		.loc 1 65 13 is_stmt 0
 318 01b8 97070000 		sd	a0,.LANCHOR0+8,a5
 318      23B0A700 
  66:src/Thread.cpp **** 
  67:src/Thread.cpp ****     contextSwitch(&old->context, &next->context);
 319              		.loc 1 67 5 is_stmt 1
 320              		.loc 1 67 18 is_stmt 0
 321 01c0 93058501 		addi	a1,a0,24
 322 01c4 13858401 		addi	a0,s1,24
 323              	.LVL24:
 324 01c8 97000000 		call	_ZN6Thread13contextSwitchEPNS_7ContextES1_@plt
 324      E7800000 
GAS LISTING /tmp/ccq3QzLR.s 			page 8


 325              	.LVL25:
 326              	.L21:
  68:src/Thread.cpp **** }
 327              		.loc 1 68 1
 328 01d0 83308101 		ld	ra,24(sp)
 329              		.cfi_remember_state
 330              		.cfi_restore 1
 331 01d4 03340101 		ld	s0,16(sp)
 332              		.cfi_restore 8
 333              		.cfi_def_cfa 2, 32
 334 01d8 83348100 		ld	s1,8(sp)
 335              		.cfi_restore 9
 336              	.LVL26:
 337 01dc 13010102 		addi	sp,sp,32
 338              		.cfi_def_cfa_offset 0
 339 01e0 67800000 		jr	ra
 340              	.LVL27:
 341              	.L25:
 342              		.cfi_restore_state
  57:src/Thread.cpp ****         Scheduler::put(old);
 343              		.loc 1 57 9 is_stmt 1
  57:src/Thread.cpp ****         Scheduler::put(old);
 344              		.loc 1 57 20 is_stmt 0
 345 01e4 93071000 		li	a5,1
 346 01e8 23ACF402 		sw	a5,56(s1)
  58:src/Thread.cpp ****     }
 347              		.loc 1 58 9 is_stmt 1
  58:src/Thread.cpp ****     }
 348              		.loc 1 58 23 is_stmt 0
 349 01ec 13850400 		mv	a0,s1
 350 01f0 97000000 		call	_ZN9Scheduler3putEP6Thread@plt
 350      E7800000 
 351              	.LVL28:
 352 01f8 6FF0DFFA 		j	.L22
 353              		.cfi_endproc
 354              	.LFE12:
 356              		.align	2
 357              		.globl	_ZN6Thread5yieldEv
 359              	_ZN6Thread5yieldEv:
 360              	.LFB13:
  69:src/Thread.cpp **** 
  70:src/Thread.cpp **** void Thread::yield() {
 361              		.loc 1 70 22 is_stmt 1
 362              		.cfi_startproc
 363 01fc 130101FF 		addi	sp,sp,-16
 364              		.cfi_def_cfa_offset 16
 365 0200 23341100 		sd	ra,8(sp)
 366 0204 23308100 		sd	s0,0(sp)
 367              		.cfi_offset 1, -8
 368              		.cfi_offset 8, -16
 369 0208 13040101 		addi	s0,sp,16
 370              		.cfi_def_cfa 8, 0
  71:src/Thread.cpp ****     dispatch();
 371              		.loc 1 71 5
 372              		.loc 1 71 13 is_stmt 0
 373 020c 97000000 		call	_ZN6Thread8dispatchEv
 373      E7800000 
GAS LISTING /tmp/ccq3QzLR.s 			page 9


 374              	.LVL29:
  72:src/Thread.cpp **** }...
 375              		.loc 1 72 1
 376 0214 83308100 		ld	ra,8(sp)
 377              		.cfi_restore 1
 378 0218 03340100 		ld	s0,0(sp)
 379              		.cfi_restore 8
 380              		.cfi_def_cfa 2, 16
 381 021c 13010101 		addi	sp,sp,16
 382              		.cfi_def_cfa_offset 0
 383 0220 67800000 		jr	ra
 384              		.cfi_endproc
 385              	.LFE13:
 387              		.align	2
 388              		.globl	_ZN6Thread7wrapperEv
 390              	_ZN6Thread7wrapperEv:
 391              	.LFB11:
  47:src/Thread.cpp **** void Thread::wrapper() {
 392              		.loc 1 47 24 is_stmt 1
 393              		.cfi_startproc
 394 0224 130101FE 		addi	sp,sp,-32
 395              		.cfi_def_cfa_offset 32
 396 0228 233C1100 		sd	ra,24(sp)
 397 022c 23388100 		sd	s0,16(sp)
 398 0230 23349100 		sd	s1,8(sp)
 399              		.cfi_offset 1, -8
 400              		.cfi_offset 8, -16
 401              		.cfi_offset 9, -24
 402 0234 13040102 		addi	s0,sp,32
 403              		.cfi_def_cfa 8, 0
  48:src/Thread.cpp ****     running->body(running->args);
 404              		.loc 1 48 5
  48:src/Thread.cpp ****     running->body(running->args);
 405              		.loc 1 48 14 is_stmt 0
 406 0238 97040000 		lla	s1,.LANCHOR0
 406      93840400 
 407 0240 83B78400 		ld	a5,8(s1)
 408 0244 03B78702 		ld	a4,40(a5)
  48:src/Thread.cpp ****     running->body(running->args);
 409              		.loc 1 48 18
 410 0248 03B50703 		ld	a0,48(a5)
 411 024c E7000700 		jalr	a4
 412              	.LVL30:
  49:src/Thread.cpp ****     running->exit();
 413              		.loc 1 49 5 is_stmt 1
  49:src/Thread.cpp ****     running->exit();
 414              		.loc 1 49 18 is_stmt 0
 415 0250 03B58400 		ld	a0,8(s1)
 416 0254 97000000 		call	_ZN6Thread4exitEv
 416      E7800000 
 417              	.LVL31:
  50:src/Thread.cpp ****     yield();
 418              		.loc 1 50 5 is_stmt 1
  50:src/Thread.cpp ****     yield();
 419              		.loc 1 50 10 is_stmt 0
 420 025c 97000000 		call	_ZN6Thread5yieldEv
 420      E7800000 
GAS LISTING /tmp/ccq3QzLR.s 			page 10


 421              	.LVL32:
  51:src/Thread.cpp **** }
 422              		.loc 1 51 1
 423 0264 83308101 		ld	ra,24(sp)
 424              		.cfi_restore 1
 425 0268 03340101 		ld	s0,16(sp)
 426              		.cfi_restore 8
 427              		.cfi_def_cfa 2, 32
 428 026c 83348100 		ld	s1,8(sp)
 429              		.cfi_restore 9
 430 0270 13010102 		addi	sp,sp,32
 431              		.cfi_def_cfa_offset 0
 432 0274 67800000 		jr	ra
 433              		.cfi_endproc
 434              	.LFE11:
 436              		.globl	_ZN6Thread8staticIdE
 437              		.globl	_ZN6Thread7runningE
 438              		.bss
 439              		.align	3
 440              		.set	.LANCHOR0,. + 0
 443              	_ZN6Thread8staticIdE:
 444 0000 00000000 		.zero	4
 445 0004 00000000 		.zero	4
 448              	_ZN6Thread7runningE:
 449 0008 00000000 		.zero	8
 449      00000000 
 450              		.text
 451              	.Letext0:
 452              		.file 2 "src/../h/../lib/hw.h"
 453              		.file 3 "src/../h/Thread.hpp"
 454              		.file 4 "src/../h/Scheduler.hpp"
 455              		.file 5 "src/../h/MemoryAllocator.hpp"
 2600              		.align	3
 2603              	DW.ref.__gxx_personality_v0:
 2604 0000 00000000 		.dword	__gxx_personality_v0
 2604      00000000 
 2605              		.ident	"GCC: (Ubuntu 9.4.0-1ubuntu1~20.04) 9.4.0"
 2606              		.section	.note.GNU-stack,"",@progbits
GAS LISTING /tmp/ccq3QzLR.s 			page 11


DEFINED SYMBOLS
                            *ABS*:0000000000000000 Thread.cpp
     /tmp/ccq3QzLR.s:9      .text:0000000000000000 _ZN6ThreadD2Ev
     /tmp/ccq3QzLR.s:13     .text:0000000000000000 .L0 
     /tmp/ccq3QzLR.s:2603   .data.rel.local.DW.ref.__gxx_personality_v0:0000000000000000 DW.ref.__gxx_personality_v0
     /tmp/ccq3QzLR.s:18     .text:0000000000000000 .L0 
     /tmp/ccq3QzLR.s:19     .text:0000000000000000 .L0 
     /tmp/ccq3QzLR.s:20     .text:0000000000000000 .L0 
     /tmp/ccq3QzLR.s:23     .text:0000000000000004 .L0 
     /tmp/ccq3QzLR.s:26     .text:0000000000000008 .L0 
     /tmp/ccq3QzLR.s:27     .text:000000000000000c .L0 
     /tmp/ccq3QzLR.s:30     .text:0000000000000014 .L0 
     /tmp/ccq3QzLR.s:31     .text:0000000000000014 .L0 
     /tmp/ccq3QzLR.s:33     .text:0000000000000018 .L0 
     /tmp/ccq3QzLR.s:36     .text:0000000000000018 .L0 
     /tmp/ccq3QzLR.s:37     .text:0000000000000018 .L0 
     /tmp/ccq3QzLR.s:41     .text:0000000000000020 .L0 
     /tmp/ccq3QzLR.s:42     .text:0000000000000020 .L0 
     /tmp/ccq3QzLR.s:43     .text:0000000000000024 .L0 
     /tmp/ccq3QzLR.s:45     .text:0000000000000028 .L0 
     /tmp/ccq3QzLR.s:46     .text:0000000000000028 .L0 
     /tmp/ccq3QzLR.s:48     .text:000000000000002c .L0 
     /tmp/ccq3QzLR.s:52     .text:0000000000000034 .L0 
     /tmp/ccq3QzLR.s:9      .text:0000000000000000 _ZN6ThreadD1Ev
     /tmp/ccq3QzLR.s:68     .text:0000000000000034 _ZN6Thread13allocateStackEm
     /tmp/ccq3QzLR.s:71     .text:0000000000000034 .L0 
     /tmp/ccq3QzLR.s:73     .text:0000000000000034 .L0 
     /tmp/ccq3QzLR.s:74     .text:0000000000000038 .L0 
     /tmp/ccq3QzLR.s:79     .text:0000000000000048 .L0 
     /tmp/ccq3QzLR.s:80     .text:0000000000000048 .L0 
     /tmp/ccq3QzLR.s:81     .text:0000000000000048 .L0 
     /tmp/ccq3QzLR.s:82     .text:0000000000000048 .L0 
     /tmp/ccq3QzLR.s:84     .text:000000000000004c .L0 
     /tmp/ccq3QzLR.s:87     .text:0000000000000050 .L0 
     /tmp/ccq3QzLR.s:88     .text:0000000000000050 .L0 
     /tmp/ccq3QzLR.s:91     .text:0000000000000054 .L0 
     /tmp/ccq3QzLR.s:92     .text:0000000000000054 .L0 
     /tmp/ccq3QzLR.s:95     .text:0000000000000058 .L0 
     /tmp/ccq3QzLR.s:97     .text:000000000000005c .L0 
     /tmp/ccq3QzLR.s:98     .text:000000000000005c .L0 
     /tmp/ccq3QzLR.s:102    .text:0000000000000060 .L0 
     /tmp/ccq3QzLR.s:103    .text:0000000000000060 .L0 
     /tmp/ccq3QzLR.s:108    .text:000000000000006c .L0 
     /tmp/ccq3QzLR.s:110    .text:0000000000000070 .L0 
     /tmp/ccq3QzLR.s:111    .text:0000000000000070 .L0 
     /tmp/ccq3QzLR.s:114    .text:0000000000000074 .L0 
     /tmp/ccq3QzLR.s:116    .text:0000000000000078 .L0 
     /tmp/ccq3QzLR.s:117    .text:000000000000007c .L0 
     /tmp/ccq3QzLR.s:119    .text:0000000000000080 .L0 
     /tmp/ccq3QzLR.s:120    .text:0000000000000080 .L0 
     /tmp/ccq3QzLR.s:122    .text:0000000000000084 .L0 
     /tmp/ccq3QzLR.s:124    .text:0000000000000088 .L0 
     /tmp/ccq3QzLR.s:127    .text:000000000000008c .L0 
     /tmp/ccq3QzLR.s:129    .text:0000000000000090 .L0 
     /tmp/ccq3QzLR.s:135    .text:0000000000000090 _ZN6ThreadC2EPFvPvES0_m
     /tmp/ccq3QzLR.s:138    .text:0000000000000090 .L0 
     /tmp/ccq3QzLR.s:140    .text:0000000000000090 .L0 
GAS LISTING /tmp/ccq3QzLR.s 			page 12


     /tmp/ccq3QzLR.s:141    .text:0000000000000094 .L0 
     /tmp/ccq3QzLR.s:144    .text:000000000000009c .L0 
     /tmp/ccq3QzLR.s:145    .text:000000000000009c .L0 
     /tmp/ccq3QzLR.s:147    .text:00000000000000a0 .L0 
     /tmp/ccq3QzLR.s:150    .text:00000000000000a0 .L0 
     /tmp/ccq3QzLR.s:155    .text:00000000000000b4 .L0 
     /tmp/ccq3QzLR.s:163    .text:00000000000000d0 .L0 
     /tmp/ccq3QzLR.s:164    .text:00000000000000d0 .L0 
     /tmp/ccq3QzLR.s:170    .text:00000000000000dc .L0 
     /tmp/ccq3QzLR.s:171    .text:00000000000000e0 .L0 
     /tmp/ccq3QzLR.s:173    .text:00000000000000e4 .L0 
     /tmp/ccq3QzLR.s:174    .text:00000000000000e4 .L0 
     /tmp/ccq3QzLR.s:176    .text:00000000000000e8 .L0 
     /tmp/ccq3QzLR.s:178    .text:00000000000000ec .L0 
     /tmp/ccq3QzLR.s:135    .text:0000000000000090 _ZN6ThreadC1EPFvPvES0_m
     /tmp/ccq3QzLR.s:186    .text:00000000000000ec _ZN6Thread5startEv
     /tmp/ccq3QzLR.s:189    .text:00000000000000ec .L0 
     /tmp/ccq3QzLR.s:191    .text:00000000000000ec .L0 
     /tmp/ccq3QzLR.s:192    .text:00000000000000ec .L0 
     /tmp/ccq3QzLR.s:193    .text:00000000000000ec .L0 
     /tmp/ccq3QzLR.s:195    .text:00000000000000f0 .L0 
     /tmp/ccq3QzLR.s:199    .text:00000000000000f8 .L0 
     /tmp/ccq3QzLR.s:200    .text:00000000000000fc .L0 
     /tmp/ccq3QzLR.s:204    .text:0000000000000108 .L0 
     /tmp/ccq3QzLR.s:205    .text:0000000000000108 .L0 
     /tmp/ccq3QzLR.s:206    .text:0000000000000108 .L0 
     /tmp/ccq3QzLR.s:208    .text:000000000000010c .L0 
     /tmp/ccq3QzLR.s:211    .text:0000000000000110 .L0 
     /tmp/ccq3QzLR.s:212    .text:0000000000000110 .L0 
     /tmp/ccq3QzLR.s:214    .text:0000000000000114 .L0 
     /tmp/ccq3QzLR.s:217    .text:0000000000000118 .L0 
     /tmp/ccq3QzLR.s:218    .text:0000000000000118 .L0 
     /tmp/ccq3QzLR.s:390    .text:0000000000000224 _ZN6Thread7wrapperEv
     /tmp/ccq3QzLR.s:226    .text:0000000000000130 .L0 
     /tmp/ccq3QzLR.s:227    .text:0000000000000130 .L0 
     /tmp/ccq3QzLR.s:230    .text:0000000000000138 .L0 
     /tmp/ccq3QzLR.s:231    .text:0000000000000138 .L0 
     /tmp/ccq3QzLR.s:235    .text:0000000000000144 .L0 
     /tmp/ccq3QzLR.s:236    .text:0000000000000148 .L0 
     /tmp/ccq3QzLR.s:238    .text:000000000000014c .L0 
     /tmp/ccq3QzLR.s:239    .text:000000000000014c .L0 
     /tmp/ccq3QzLR.s:241    .text:0000000000000150 .L0 
     /tmp/ccq3QzLR.s:244    .text:0000000000000154 .L0 
     /tmp/ccq3QzLR.s:246    .text:0000000000000158 .L0 
     /tmp/ccq3QzLR.s:252    .text:0000000000000158 _ZN6Thread4exitEv
     /tmp/ccq3QzLR.s:255    .text:0000000000000158 .L0 
     /tmp/ccq3QzLR.s:257    .text:0000000000000158 .L0 
     /tmp/ccq3QzLR.s:258    .text:000000000000015c .L0 
     /tmp/ccq3QzLR.s:260    .text:0000000000000160 .L0 
     /tmp/ccq3QzLR.s:262    .text:0000000000000164 .L0 
     /tmp/ccq3QzLR.s:264    .text:0000000000000164 .L0 
     /tmp/ccq3QzLR.s:265    .text:0000000000000164 .L0 
     /tmp/ccq3QzLR.s:268    .text:000000000000016c .L0 
     /tmp/ccq3QzLR.s:269    .text:0000000000000170 .L0 
     /tmp/ccq3QzLR.s:270    .text:0000000000000170 .L0 
     /tmp/ccq3QzLR.s:272    .text:0000000000000174 .L0 
     /tmp/ccq3QzLR.s:274    .text:0000000000000178 .L0 
GAS LISTING /tmp/ccq3QzLR.s 			page 13


     /tmp/ccq3QzLR.s:280    .text:0000000000000178 _ZN6Thread8dispatchEv
     /tmp/ccq3QzLR.s:283    .text:0000000000000178 .L0 
     /tmp/ccq3QzLR.s:284    .text:0000000000000178 .L0 
     /tmp/ccq3QzLR.s:285    .text:000000000000017c .L0 
     /tmp/ccq3QzLR.s:289    .text:0000000000000188 .L0 
     /tmp/ccq3QzLR.s:290    .text:0000000000000188 .L0 
     /tmp/ccq3QzLR.s:291    .text:0000000000000188 .L0 
     /tmp/ccq3QzLR.s:293    .text:000000000000018c .L0 
     /tmp/ccq3QzLR.s:295    .text:000000000000018c .L0 
     /tmp/ccq3QzLR.s:296    .text:000000000000018c .L0 
     /tmp/ccq3QzLR.s:299    .text:0000000000000194 .L0 
     /tmp/ccq3QzLR.s:301    .text:0000000000000198 .L0 
     /tmp/ccq3QzLR.s:303    .text:000000000000019c .L0 
     /tmp/ccq3QzLR.s:307    .text:00000000000001a4 .L0 
     /tmp/ccq3QzLR.s:308    .text:00000000000001a4 .L0 
     /tmp/ccq3QzLR.s:311    .text:00000000000001ac .L0 
     /tmp/ccq3QzLR.s:313    .text:00000000000001b0 .L0 
     /tmp/ccq3QzLR.s:314    .text:00000000000001b0 .L0 
     /tmp/ccq3QzLR.s:317    .text:00000000000001b8 .L0 
     /tmp/ccq3QzLR.s:318    .text:00000000000001b8 .L0 
     /tmp/ccq3QzLR.s:320    .text:00000000000001c0 .L0 
     /tmp/ccq3QzLR.s:321    .text:00000000000001c0 .L0 
     /tmp/ccq3QzLR.s:328    .text:00000000000001d0 .L0 
     /tmp/ccq3QzLR.s:329    .text:00000000000001d4 .L0 
     /tmp/ccq3QzLR.s:330    .text:00000000000001d4 .L0 
     /tmp/ccq3QzLR.s:332    .text:00000000000001d8 .L0 
     /tmp/ccq3QzLR.s:333    .text:00000000000001d8 .L0 
     /tmp/ccq3QzLR.s:335    .text:00000000000001dc .L0 
     /tmp/ccq3QzLR.s:338    .text:00000000000001e0 .L0 
     /tmp/ccq3QzLR.s:342    .text:00000000000001e4 .L0 
     /tmp/ccq3QzLR.s:344    .text:00000000000001e4 .L0 
     /tmp/ccq3QzLR.s:345    .text:00000000000001e4 .L0 
     /tmp/ccq3QzLR.s:348    .text:00000000000001ec .L0 
     /tmp/ccq3QzLR.s:349    .text:00000000000001ec .L0 
     /tmp/ccq3QzLR.s:353    .text:00000000000001fc .L0 
     /tmp/ccq3QzLR.s:359    .text:00000000000001fc _ZN6Thread5yieldEv
     /tmp/ccq3QzLR.s:362    .text:00000000000001fc .L0 
     /tmp/ccq3QzLR.s:363    .text:00000000000001fc .L0 
     /tmp/ccq3QzLR.s:364    .text:0000000000000200 .L0 
     /tmp/ccq3QzLR.s:367    .text:0000000000000208 .L0 
     /tmp/ccq3QzLR.s:368    .text:0000000000000208 .L0 
     /tmp/ccq3QzLR.s:370    .text:000000000000020c .L0 
     /tmp/ccq3QzLR.s:372    .text:000000000000020c .L0 
     /tmp/ccq3QzLR.s:373    .text:000000000000020c .L0 
     /tmp/ccq3QzLR.s:376    .text:0000000000000214 .L0 
     /tmp/ccq3QzLR.s:377    .text:0000000000000218 .L0 
     /tmp/ccq3QzLR.s:379    .text:000000000000021c .L0 
     /tmp/ccq3QzLR.s:380    .text:000000000000021c .L0 
     /tmp/ccq3QzLR.s:382    .text:0000000000000220 .L0 
     /tmp/ccq3QzLR.s:384    .text:0000000000000224 .L0 
     /tmp/ccq3QzLR.s:393    .text:0000000000000224 .L0 
     /tmp/ccq3QzLR.s:394    .text:0000000000000224 .L0 
     /tmp/ccq3QzLR.s:395    .text:0000000000000228 .L0 
     /tmp/ccq3QzLR.s:399    .text:0000000000000234 .L0 
     /tmp/ccq3QzLR.s:400    .text:0000000000000234 .L0 
     /tmp/ccq3QzLR.s:401    .text:0000000000000234 .L0 
     /tmp/ccq3QzLR.s:403    .text:0000000000000238 .L0 
GAS LISTING /tmp/ccq3QzLR.s 			page 14


     /tmp/ccq3QzLR.s:405    .text:0000000000000238 .L0 
     /tmp/ccq3QzLR.s:406    .text:0000000000000238 .L0 
     /tmp/ccq3QzLR.s:410    .text:0000000000000248 .L0 
     /tmp/ccq3QzLR.s:414    .text:0000000000000250 .L0 
     /tmp/ccq3QzLR.s:415    .text:0000000000000250 .L0 
     /tmp/ccq3QzLR.s:419    .text:000000000000025c .L0 
     /tmp/ccq3QzLR.s:420    .text:000000000000025c .L0 
     /tmp/ccq3QzLR.s:423    .text:0000000000000264 .L0 
     /tmp/ccq3QzLR.s:424    .text:0000000000000268 .L0 
     /tmp/ccq3QzLR.s:426    .text:000000000000026c .L0 
     /tmp/ccq3QzLR.s:427    .text:000000000000026c .L0 
     /tmp/ccq3QzLR.s:429    .text:0000000000000270 .L0 
     /tmp/ccq3QzLR.s:431    .text:0000000000000274 .L0 
     /tmp/ccq3QzLR.s:433    .text:0000000000000278 .L0 
     /tmp/ccq3QzLR.s:443    .bss:0000000000000000 _ZN6Thread8staticIdE
     /tmp/ccq3QzLR.s:448    .bss:0000000000000008 _ZN6Thread7runningE
     /tmp/ccq3QzLR.s:440    .bss:0000000000000000 .LANCHOR0
     /tmp/ccq3QzLR.s:456    .text:0000000000000278 .L0 
     /tmp/ccq3QzLR.s:150    .text:00000000000000a0 .L0 
     /tmp/ccq3QzLR.s:220    .text:000000000000011c .L0 
     /tmp/ccq3QzLR.s:296    .text:000000000000018c .L0 
     /tmp/ccq3QzLR.s:318    .text:00000000000001b8 .L0 
     /tmp/ccq3QzLR.s:406    .text:0000000000000238 .L0 
     /tmp/ccq3QzLR.s:50     .text:0000000000000030 .L4
     /tmp/ccq3QzLR.s:100    .text:0000000000000060 .L8
     /tmp/ccq3QzLR.s:197    .text:00000000000000f8 .L18
     /tmp/ccq3QzLR.s:305    .text:00000000000001a4 .L22
     /tmp/ccq3QzLR.s:341    .text:00000000000001e4 .L25
     /tmp/ccq3QzLR.s:326    .text:00000000000001d0 .L21
     /tmp/ccq3QzLR.s:1348   .debug_abbrev:0000000000000000 .Ldebug_abbrev0
     /tmp/ccq3QzLR.s:2569   .debug_str:0000000000000495 .LASF79
     /tmp/ccq3QzLR.s:2561   .debug_str:0000000000000469 .LASF80
     /tmp/ccq3QzLR.s:2449   .debug_str:0000000000000107 .LASF81
     /tmp/ccq3QzLR.s:5      .text:0000000000000000 .Ltext0
     /tmp/ccq3QzLR.s:451    .text:0000000000000278 .Letext0
     /tmp/ccq3QzLR.s:2407   .debug_line:0000000000000000 .Ldebug_line0
     /tmp/ccq3QzLR.s:2509   .debug_str:000000000000031e .LASF0
     /tmp/ccq3QzLR.s:2525   .debug_str:000000000000037b .LASF1
     /tmp/ccq3QzLR.s:2493   .debug_str:0000000000000280 .LASF2
     /tmp/ccq3QzLR.s:2475   .debug_str:0000000000000217 .LASF4
     /tmp/ccq3QzLR.s:2555   .debug_str:0000000000000444 .LASF3
     /tmp/ccq3QzLR.s:2419   .debug_str:0000000000000036 .LASF5
     /tmp/ccq3QzLR.s:2529   .debug_str:00000000000003ae .LASF6
     /tmp/ccq3QzLR.s:2507   .debug_str:000000000000030b .LASF7
     /tmp/ccq3QzLR.s:2579   .debug_str:00000000000005a4 .LASF8
     /tmp/ccq3QzLR.s:2461   .debug_str:0000000000000194 .LASF9
     /tmp/ccq3QzLR.s:2539   .debug_str:00000000000003f4 .LASF10
     /tmp/ccq3QzLR.s:2571   .debug_str:0000000000000559 .LASF11
     /tmp/ccq3QzLR.s:2421   .debug_str:000000000000003d .LASF12
     /tmp/ccq3QzLR.s:2411   .debug_str:0000000000000006 .LASF13
     /tmp/ccq3QzLR.s:2425   .debug_str:0000000000000059 .LASF14
     /tmp/ccq3QzLR.s:2549   .debug_str:0000000000000420 .LASF15
     /tmp/ccq3QzLR.s:2433   .debug_str:00000000000000a5 .LASF16
     /tmp/ccq3QzLR.s:2467   .debug_str:00000000000001c1 .LASF82
     /tmp/ccq3QzLR.s:2537   .debug_str:00000000000003ee .LASF17
     /tmp/ccq3QzLR.s:2533   .debug_str:00000000000003dc .LASF18
     /tmp/ccq3QzLR.s:2477   .debug_str:000000000000021e .LASF19
GAS LISTING /tmp/ccq3QzLR.s 			page 15


     /tmp/ccq3QzLR.s:2559   .debug_str:0000000000000460 .LASF20
     /tmp/ccq3QzLR.s:2577   .debug_str:000000000000059d .LASF21
     /tmp/ccq3QzLR.s:2413   .debug_str:0000000000000016 .LASF52
     /tmp/ccq3QzLR.s:2563   .debug_str:0000000000000478 .LASF31
     /tmp/ccq3QzLR.s:2497   .debug_str:00000000000002a3 .LASF23
     /tmp/ccq3QzLR.s:2547   .debug_str:000000000000041b .LASF83
     /tmp/ccq3QzLR.s:2553   .debug_str:000000000000043c .LASF22
     /tmp/ccq3QzLR.s:2519   .debug_str:0000000000000357 .LASF24
     /tmp/ccq3QzLR.s:2523   .debug_str:0000000000000375 .LASF25
     /tmp/ccq3QzLR.s:2457   .debug_str:0000000000000160 .LASF26
     /tmp/ccq3QzLR.s:2489   .debug_str:0000000000000276 .LASF27
     /tmp/ccq3QzLR.s:2417   .debug_str:0000000000000024 .LASF28
     /tmp/ccq3QzLR.s:2595   .debug_str:0000000000000665 .LASF33
     /tmp/ccq3QzLR.s:2469   .debug_str:00000000000001cd .LASF35
     /tmp/ccq3QzLR.s:2485   .debug_str:000000000000024b .LASF84
     /tmp/ccq3QzLR.s:2455   .debug_str:0000000000000149 .LASF85
     /tmp/ccq3QzLR.s:2499   .debug_str:00000000000002bb .LASF29
     /tmp/ccq3QzLR.s:2487   .debug_str:0000000000000254 .LASF30
     /tmp/ccq3QzLR.s:2443   .debug_str:00000000000000f1 .LASF32
     /tmp/ccq3QzLR.s:2551   .debug_str:0000000000000436 .LASF34
     /tmp/ccq3QzLR.s:2463   .debug_str:00000000000001a2 .LASF36
     /tmp/ccq3QzLR.s:2511   .debug_str:000000000000032b .LASF37
     /tmp/ccq3QzLR.s:2453   .debug_str:0000000000000133 .LASF38
     /tmp/ccq3QzLR.s:2513   .debug_str:0000000000000334 .LASF39
     /tmp/ccq3QzLR.s:2585   .debug_str:00000000000005e3 .LASF40
     /tmp/ccq3QzLR.s:2483   .debug_str:0000000000000243 .LASF41
     /tmp/ccq3QzLR.s:2481   .debug_str:000000000000023e .LASF42
     /tmp/ccq3QzLR.s:2515   .debug_str:000000000000033a .LASF43
     /tmp/ccq3QzLR.s:2415   .debug_str:000000000000001e .LASF44
     /tmp/ccq3QzLR.s:2591   .debug_str:000000000000062d .LASF45
     /tmp/ccq3QzLR.s:2451   .debug_str:0000000000000125 .LASF47
     /tmp/ccq3QzLR.s:2505   .debug_str:00000000000002ef .LASF86
     /tmp/ccq3QzLR.s:2583   .debug_str:00000000000005d5 .LASF87
     /tmp/ccq3QzLR.s:2471   .debug_str:00000000000001e2 .LASF88
     /tmp/ccq3QzLR.s:2465   .debug_str:00000000000001b5 .LASF68
     /tmp/ccq3QzLR.s:2589   .debug_str:0000000000000600 .LASF70
     /tmp/ccq3QzLR.s:2535   .debug_str:00000000000003e4 .LASF46
     /tmp/ccq3QzLR.s:2441   .debug_str:00000000000000dd .LASF89
     /tmp/ccq3QzLR.s:2503   .debug_str:00000000000002d4 .LASF90
     /tmp/ccq3QzLR.s:2431   .debug_str:000000000000009d .LASF48
     /tmp/ccq3QzLR.s:2517   .debug_str:000000000000033f .LASF63
     /tmp/ccq3QzLR.s:2437   .debug_str:00000000000000c4 .LASF49
     /tmp/ccq3QzLR.s:2491   .debug_str:000000000000027b .LASF50
     /tmp/ccq3QzLR.s:2447   .debug_str:0000000000000102 .LASF51
     /tmp/ccq3QzLR.s:2423   .debug_str:000000000000004d .LASF53
     /tmp/ccq3QzLR.s:2565   .debug_str:0000000000000481 .LASF54
     /tmp/ccq3QzLR.s:2501   .debug_str:00000000000002c4 .LASF55
     /tmp/ccq3QzLR.s:2435   .debug_str:00000000000000bb .LASF56
     /tmp/ccq3QzLR.s:2527   .debug_str:000000000000038e .LASF57
     /tmp/ccq3QzLR.s:2557   .debug_str:0000000000000456 .LASF58
     /tmp/ccq3QzLR.s:2581   .debug_str:00000000000005b4 .LASF59
     /tmp/ccq3QzLR.s:2543   .debug_str:000000000000040d .LASF60
     /tmp/ccq3QzLR.s:2459   .debug_str:0000000000000173 .LASF61
     /tmp/ccq3QzLR.s:2587   .debug_str:00000000000005ed .LASF62
     /tmp/ccq3QzLR.s:2429   .debug_str:0000000000000072 .LASF64
     /tmp/ccq3QzLR.s:2531   .debug_str:00000000000003c1 .LASF65
     /tmp/ccq3QzLR.s:2593   .debug_str:0000000000000632 .LASF66
GAS LISTING /tmp/ccq3QzLR.s 			page 16


     /tmp/ccq3QzLR.s:2427   .debug_str:0000000000000065 .LASF67
     /tmp/ccq3QzLR.s:2473   .debug_str:000000000000020d .LASF69
     /tmp/ccq3QzLR.s:2573   .debug_str:0000000000000568 .LASF71
     /tmp/ccq3QzLR.s:2439   .debug_str:00000000000000c9 .LASF72
     /tmp/ccq3QzLR.s:2495   .debug_str:000000000000028e .LASF73
     /tmp/ccq3QzLR.s:360    .text:00000000000001fc .LFB13
     /tmp/ccq3QzLR.s:385    .text:0000000000000224 .LFE13
     /tmp/ccq3QzLR.s:374    .text:0000000000000214 .LVL29
     /tmp/ccq3QzLR.s:281    .text:0000000000000178 .LFB12
     /tmp/ccq3QzLR.s:354    .text:00000000000001fc .LFE12
     /tmp/ccq3QzLR.s:2223   .debug_loc:0000000000000000 .LLST10
     /tmp/ccq3QzLR.s:2234   .debug_loc:0000000000000036 .LLST11
     /tmp/ccq3QzLR.s:309    .text:00000000000001ac .LVL23
     /tmp/ccq3QzLR.s:325    .text:00000000000001d0 .LVL25
     /tmp/ccq3QzLR.s:351    .text:00000000000001f8 .LVL28
     /tmp/ccq3QzLR.s:391    .text:0000000000000224 .LFB11
     /tmp/ccq3QzLR.s:434    .text:0000000000000278 .LFE11
     /tmp/ccq3QzLR.s:417    .text:000000000000025c .LVL31
     /tmp/ccq3QzLR.s:421    .text:0000000000000264 .LVL32
     /tmp/ccq3QzLR.s:253    .text:0000000000000158 .LFB10
     /tmp/ccq3QzLR.s:275    .text:0000000000000178 .LFE10
     /tmp/ccq3QzLR.s:2545   .debug_str:0000000000000416 .LASF74
     /tmp/ccq3QzLR.s:187    .text:00000000000000ec .LFB9
     /tmp/ccq3QzLR.s:247    .text:0000000000000158 .LFE9
     /tmp/ccq3QzLR.s:2246   .debug_loc:0000000000000074 .LLST8
     /tmp/ccq3QzLR.s:2445   .debug_str:00000000000000f9 .LASF75
     /tmp/ccq3QzLR.s:2264   .debug_loc:00000000000000c0 .LLST9
     /tmp/ccq3QzLR.s:224    .text:0000000000000130 .LVL18
     /tmp/ccq3QzLR.s:233    .text:0000000000000144 .LVL19
     /tmp/ccq3QzLR.s:69     .text:0000000000000034 .LFB8
     /tmp/ccq3QzLR.s:130    .text:0000000000000090 .LFE8
     /tmp/ccq3QzLR.s:2280   .debug_loc:00000000000000fb .LLST1
     /tmp/ccq3QzLR.s:2409   .debug_str:0000000000000000 .LASF91
     /tmp/ccq3QzLR.s:2298   .debug_loc:0000000000000147 .LLST2
     /tmp/ccq3QzLR.s:2575   .debug_str:0000000000000596 .LASF76
     /tmp/ccq3QzLR.s:2312   .debug_loc:0000000000000180 .LLST3
     /tmp/ccq3QzLR.s:106    .text:000000000000006c .LVL8
     /tmp/ccq3QzLR.s:2541   .debug_str:0000000000000403 .LASF77
     /tmp/ccq3QzLR.s:2567   .debug_str:0000000000000486 .LASF92
     /tmp/ccq3QzLR.s:10     .text:0000000000000000 .LFB6
     /tmp/ccq3QzLR.s:53     .text:0000000000000034 .LFE6
     /tmp/ccq3QzLR.s:2319   .debug_loc:00000000000001a3 .LLST0
     /tmp/ccq3QzLR.s:38     .text:0000000000000020 .LVL2
     /tmp/ccq3QzLR.s:2521   .debug_str:0000000000000366 .LASF78
     /tmp/ccq3QzLR.s:2479   .debug_str:0000000000000226 .LASF93
     /tmp/ccq3QzLR.s:136    .text:0000000000000090 .LFB3
     /tmp/ccq3QzLR.s:179    .text:00000000000000ec .LFE3
     /tmp/ccq3QzLR.s:2333   .debug_loc:00000000000001dc .LLST4
     /tmp/ccq3QzLR.s:2347   .debug_loc:0000000000000215 .LLST5
     /tmp/ccq3QzLR.s:2366   .debug_loc:0000000000000262 .LLST6
     /tmp/ccq3QzLR.s:2380   .debug_loc:000000000000029b .LLST7
     /tmp/ccq3QzLR.s:167    .text:00000000000000dc .LVL13
     /tmp/ccq3QzLR.s:297    .text:0000000000000194 .LVL22
     /tmp/ccq3QzLR.s:336    .text:00000000000001dc .LVL26
     /tmp/ccq3QzLR.s:340    .text:00000000000001e4 .LVL27
     /tmp/ccq3QzLR.s:323    .text:00000000000001c8 .LVL24
     /tmp/ccq3QzLR.s:190    .text:00000000000000ec .LVL14
GAS LISTING /tmp/ccq3QzLR.s 			page 17


     /tmp/ccq3QzLR.s:222    .text:0000000000000128 .LVL17
     /tmp/ccq3QzLR.s:242    .text:0000000000000150 .LVL20
     /tmp/ccq3QzLR.s:215    .text:0000000000000118 .LVL15
     /tmp/ccq3QzLR.s:219    .text:000000000000011c .LVL16
     /tmp/ccq3QzLR.s:72     .text:0000000000000034 .LVL3
     /tmp/ccq3QzLR.s:104    .text:0000000000000064 .LVL7
     /tmp/ccq3QzLR.s:125    .text:0000000000000088 .LVL10
     /tmp/ccq3QzLR.s:93     .text:0000000000000058 .LVL5
     /tmp/ccq3QzLR.s:89     .text:0000000000000054 .LVL4
     /tmp/ccq3QzLR.s:112    .text:0000000000000074 .LVL9
     /tmp/ccq3QzLR.s:16     .text:0000000000000000 .LVL0
     /tmp/ccq3QzLR.s:21     .text:0000000000000004 .LVL1
     /tmp/ccq3QzLR.s:139    .text:0000000000000090 .LVL11
     /tmp/ccq3QzLR.s:165    .text:00000000000000d4 .LVL12
     /tmp/ccq3QzLR.s:457    .debug_info:0000000000000000 .Ldebug_info0
     /tmp/ccq3QzLR.s:56     .gcc_except_table:0000000000000000 .LLSDA6

UNDEFINED SYMBOLS
_ZN15MemoryAllocator8mem_freeEPv
__gxx_personality_v0
_ZN15MemoryAllocator9mem_allocEm
_ZN6Thread11initContextEPNS_7ContextEPFvvEPv
_ZN9Scheduler3putEP6Thread
_ZN9Scheduler3getEv
_ZN6Thread13contextSwitchEPNS_7ContextES1_
