GAS LISTING /tmp/ccT9dAhY.s 			page 1


   1              		.file	"ConsumerProducer_C_API_test.cpp"
   2              		.option pic
   3              		.option norelax
   4              		.text
   5              	.Ltext0:
   6              		.align	2
   8              	_ZL16producerKeyboardPv:
   9              	.LFB0:
  10              		.file 1 "test/ConsumerProducer_C_API_test.cpp"
   1:test/ConsumerProducer_C_API_test.cpp **** 
   2:test/ConsumerProducer_C_API_test.cpp **** #include "../h/syscall_c.hpp"
   3:test/ConsumerProducer_C_API_test.cpp **** 
   4:test/ConsumerProducer_C_API_test.cpp **** #include "buffer.hpp"
   5:test/ConsumerProducer_C_API_test.cpp **** 
   6:test/ConsumerProducer_C_API_test.cpp **** static sem_t waitForAll;
   7:test/ConsumerProducer_C_API_test.cpp **** 
   8:test/ConsumerProducer_C_API_test.cpp **** struct thread_data {
   9:test/ConsumerProducer_C_API_test.cpp ****     int id;
  10:test/ConsumerProducer_C_API_test.cpp ****     Buffer *buffer;
  11:test/ConsumerProducer_C_API_test.cpp ****     sem_t wait;
  12:test/ConsumerProducer_C_API_test.cpp **** };
  13:test/ConsumerProducer_C_API_test.cpp **** 
  14:test/ConsumerProducer_C_API_test.cpp **** static volatile int threadEnd = 0;
  15:test/ConsumerProducer_C_API_test.cpp **** 
  16:test/ConsumerProducer_C_API_test.cpp **** static void producerKeyboard(void *arg) {
  11              		.loc 1 16 41
  12              		.cfi_startproc
  13              	.LVL0:
  14 0000 130101FE 		addi	sp,sp,-32
  15              		.cfi_def_cfa_offset 32
  16 0004 233C1100 		sd	ra,24(sp)
  17 0008 23388100 		sd	s0,16(sp)
  18 000c 23349100 		sd	s1,8(sp)
  19 0010 23302101 		sd	s2,0(sp)
  20              		.cfi_offset 1, -8
  21              		.cfi_offset 8, -16
  22              		.cfi_offset 9, -24
  23              		.cfi_offset 18, -32
  24 0014 13040102 		addi	s0,sp,32
  25              		.cfi_def_cfa 8, 0
  26 0018 93040500 		mv	s1,a0
  17:test/ConsumerProducer_C_API_test.cpp ****     struct thread_data *data = (struct thread_data *) arg;
  27              		.loc 1 17 5
  28              	.LVL1:
  18:test/ConsumerProducer_C_API_test.cpp **** 
  19:test/ConsumerProducer_C_API_test.cpp ****     int key;
  29              		.loc 1 19 5
  20:test/ConsumerProducer_C_API_test.cpp ****     int i = 0;
  30              		.loc 1 20 5
  31              		.loc 1 20 9 is_stmt 0
  32 001c 13090000 		li	s2,0
  33 0020 6F00C000 		j	.L2
  34              	.LVL2:
  35              	.L6:
  21:test/ConsumerProducer_C_API_test.cpp ****     while ((key = getc()) != 0x1b) {
  22:test/ConsumerProducer_C_API_test.cpp ****         data->buffer->put(key);
  23:test/ConsumerProducer_C_API_test.cpp ****         i++;
GAS LISTING /tmp/ccT9dAhY.s 			page 2


  24:test/ConsumerProducer_C_API_test.cpp **** 
  25:test/ConsumerProducer_C_API_test.cpp ****         if (i % (10 * data->id) == 0) {
  26:test/ConsumerProducer_C_API_test.cpp ****             thread_dispatch();
  36              		.loc 1 26 13 is_stmt 1
  37              		.loc 1 26 28 is_stmt 0
  38 0024 97000000 		call	_Z15thread_dispatchv@plt
  38      E7800000 
  39              	.LVL3:
  40              	.L2:
  21:test/ConsumerProducer_C_API_test.cpp ****     while ((key = getc()) != 0x1b) {
  41              		.loc 1 21 5 is_stmt 1
  21:test/ConsumerProducer_C_API_test.cpp ****     while ((key = getc()) != 0x1b) {
  42              		.loc 1 21 27
  21:test/ConsumerProducer_C_API_test.cpp ****     while ((key = getc()) != 0x1b) {
  43              		.loc 1 21 23 is_stmt 0
  44 002c 97000000 		call	_Z4getcv@plt
  44      E7800000 
  45              	.LVL4:
  21:test/ConsumerProducer_C_API_test.cpp ****     while ((key = getc()) != 0x1b) {
  46              		.loc 1 21 17
  47 0034 9B050500 		sext.w	a1,a0
  48              	.LVL5:
  21:test/ConsumerProducer_C_API_test.cpp ****     while ((key = getc()) != 0x1b) {
  49              		.loc 1 21 27
  50 0038 9307B001 		li	a5,27
  51 003c 638AF502 		beq	a1,a5,.L3
  22:test/ConsumerProducer_C_API_test.cpp ****         i++;
  52              		.loc 1 22 9 is_stmt 1
  22:test/ConsumerProducer_C_API_test.cpp ****         i++;
  53              		.loc 1 22 26 is_stmt 0
  54 0040 03B58400 		ld	a0,8(s1)
  55 0044 97000000 		call	_ZN6Buffer3putEi@plt
  55      E7800000 
  56              	.LVL6:
  23:test/ConsumerProducer_C_API_test.cpp **** 
  57              		.loc 1 23 9 is_stmt 1
  23:test/ConsumerProducer_C_API_test.cpp **** 
  58              		.loc 1 23 10 is_stmt 0
  59 004c 1B071900 		addiw	a4,s2,1
  60 0050 1B090700 		sext.w	s2,a4
  61              	.LVL7:
  25:test/ConsumerProducer_C_API_test.cpp ****             thread_dispatch();
  62              		.loc 1 25 9 is_stmt 1
  25:test/ConsumerProducer_C_API_test.cpp ****             thread_dispatch();
  63              		.loc 1 25 29 is_stmt 0
  64 0054 83A60400 		lw	a3,0(s1)
  25:test/ConsumerProducer_C_API_test.cpp ****             thread_dispatch();
  65              		.loc 1 25 21
  66 0058 9B972600 		slliw	a5,a3,2
  67 005c BB87D700 		addw	a5,a5,a3
  68 0060 9B971700 		slliw	a5,a5,1
  25:test/ConsumerProducer_C_API_test.cpp ****             thread_dispatch();
  69              		.loc 1 25 15
  70 0064 BB67F702 		remw	a5,a4,a5
  25:test/ConsumerProducer_C_API_test.cpp ****             thread_dispatch();
  71              		.loc 1 25 9
  72 0068 E39207FC 		bnez	a5,.L2
GAS LISTING /tmp/ccT9dAhY.s 			page 3


  73 006c 6FF09FFB 		j	.L6
  74              	.LVL8:
  75              	.L3:
  27:test/ConsumerProducer_C_API_test.cpp ****         }
  28:test/ConsumerProducer_C_API_test.cpp ****     }
  29:test/ConsumerProducer_C_API_test.cpp **** 
  30:test/ConsumerProducer_C_API_test.cpp ****     threadEnd = 1;
  76              		.loc 1 30 5 is_stmt 1
  77              		.loc 1 30 15 is_stmt 0
  78 0070 93071000 		li	a5,1
  79 0074 17070000 		sw	a5,.LANCHOR0,a4
  79      2320F700 
  31:test/ConsumerProducer_C_API_test.cpp ****     data->buffer->put('!');
  80              		.loc 1 31 5 is_stmt 1
  81              		.loc 1 31 22 is_stmt 0
  82 007c 93051002 		li	a1,33
  83              	.LVL9:
  84 0080 03B58400 		ld	a0,8(s1)
  85              	.LVL10:
  86 0084 97000000 		call	_ZN6Buffer3putEi@plt
  86      E7800000 
  87              	.LVL11:
  32:test/ConsumerProducer_C_API_test.cpp **** 
  33:test/ConsumerProducer_C_API_test.cpp ****     sem_signal(data->wait);
  88              		.loc 1 33 5 is_stmt 1
  89              		.loc 1 33 15 is_stmt 0
  90 008c 03B50401 		ld	a0,16(s1)
  91 0090 97000000 		call	_Z10sem_signalP10KSemaphore@plt
  91      E7800000 
  92              	.LVL12:
  34:test/ConsumerProducer_C_API_test.cpp **** }
  93              		.loc 1 34 1
  94 0098 83308101 		ld	ra,24(sp)
  95              		.cfi_restore 1
  96 009c 03340101 		ld	s0,16(sp)
  97              		.cfi_restore 8
  98              		.cfi_def_cfa 2, 32
  99 00a0 83348100 		ld	s1,8(sp)
 100              		.cfi_restore 9
 101              	.LVL13:
 102 00a4 03390100 		ld	s2,0(sp)
 103              		.cfi_restore 18
 104              	.LVL14:
 105 00a8 13010102 		addi	sp,sp,32
 106              		.cfi_def_cfa_offset 0
 107 00ac 67800000 		jr	ra
 108              		.cfi_endproc
 109              	.LFE0:
 111              		.align	2
 113              	_ZL8producerPv:
 114              	.LFB1:
  35:test/ConsumerProducer_C_API_test.cpp **** 
  36:test/ConsumerProducer_C_API_test.cpp **** static void producer(void *arg) {
 115              		.loc 1 36 33 is_stmt 1
 116              		.cfi_startproc
 117              	.LVL15:
 118 00b0 130101FE 		addi	sp,sp,-32
GAS LISTING /tmp/ccT9dAhY.s 			page 4


 119              		.cfi_def_cfa_offset 32
 120 00b4 233C1100 		sd	ra,24(sp)
 121 00b8 23388100 		sd	s0,16(sp)
 122 00bc 23349100 		sd	s1,8(sp)
 123 00c0 23302101 		sd	s2,0(sp)
 124              		.cfi_offset 1, -8
 125              		.cfi_offset 8, -16
 126              		.cfi_offset 9, -24
 127              		.cfi_offset 18, -32
 128 00c4 13040102 		addi	s0,sp,32
 129              		.cfi_def_cfa 8, 0
 130 00c8 93040500 		mv	s1,a0
  37:test/ConsumerProducer_C_API_test.cpp ****     struct thread_data *data = (struct thread_data *) arg;
 131              		.loc 1 37 5
 132              	.LVL16:
  38:test/ConsumerProducer_C_API_test.cpp **** 
  39:test/ConsumerProducer_C_API_test.cpp ****     int i = 0;
 133              		.loc 1 39 5
 134              		.loc 1 39 9 is_stmt 0
 135 00cc 13090000 		li	s2,0
 136 00d0 6F00C000 		j	.L8
 137              	.LVL17:
 138              	.L12:
  40:test/ConsumerProducer_C_API_test.cpp ****     while (!threadEnd) {
  41:test/ConsumerProducer_C_API_test.cpp ****         data->buffer->put(data->id + '0');
  42:test/ConsumerProducer_C_API_test.cpp ****         i++;
  43:test/ConsumerProducer_C_API_test.cpp **** 
  44:test/ConsumerProducer_C_API_test.cpp ****         if (i % (10 * data->id) == 0) {
  45:test/ConsumerProducer_C_API_test.cpp ****             thread_dispatch();
 139              		.loc 1 45 13 is_stmt 1
 140              		.loc 1 45 28 is_stmt 0
 141 00d4 97000000 		call	_Z15thread_dispatchv@plt
 141      E7800000 
 142              	.LVL18:
 143              	.L8:
  40:test/ConsumerProducer_C_API_test.cpp ****     while (!threadEnd) {
 144              		.loc 1 40 5 is_stmt 1
  40:test/ConsumerProducer_C_API_test.cpp ****     while (!threadEnd) {
 145              		.loc 1 40 12
 146 00dc 97070000 		lw	a5,.LANCHOR0
 146      83A70700 
 147 00e4 639E0702 		bnez	a5,.L9
  41:test/ConsumerProducer_C_API_test.cpp ****         i++;
 148              		.loc 1 41 9
  41:test/ConsumerProducer_C_API_test.cpp ****         i++;
 149              		.loc 1 41 33 is_stmt 0
 150 00e8 83A50400 		lw	a1,0(s1)
  41:test/ConsumerProducer_C_API_test.cpp ****         i++;
 151              		.loc 1 41 26
 152 00ec 9B850503 		addiw	a1,a1,48
 153 00f0 03B58400 		ld	a0,8(s1)
 154 00f4 97000000 		call	_ZN6Buffer3putEi@plt
 154      E7800000 
 155              	.LVL19:
  42:test/ConsumerProducer_C_API_test.cpp **** 
 156              		.loc 1 42 9 is_stmt 1
  42:test/ConsumerProducer_C_API_test.cpp **** 
GAS LISTING /tmp/ccT9dAhY.s 			page 5


 157              		.loc 1 42 10 is_stmt 0
 158 00fc 1B071900 		addiw	a4,s2,1
 159 0100 1B090700 		sext.w	s2,a4
 160              	.LVL20:
  44:test/ConsumerProducer_C_API_test.cpp ****             thread_dispatch();
 161              		.loc 1 44 9 is_stmt 1
  44:test/ConsumerProducer_C_API_test.cpp ****             thread_dispatch();
 162              		.loc 1 44 29 is_stmt 0
 163 0104 83A60400 		lw	a3,0(s1)
  44:test/ConsumerProducer_C_API_test.cpp ****             thread_dispatch();
 164              		.loc 1 44 21
 165 0108 9B972600 		slliw	a5,a3,2
 166 010c BB87D700 		addw	a5,a5,a3
 167 0110 9B971700 		slliw	a5,a5,1
  44:test/ConsumerProducer_C_API_test.cpp ****             thread_dispatch();
 168              		.loc 1 44 15
 169 0114 BB67F702 		remw	a5,a4,a5
  44:test/ConsumerProducer_C_API_test.cpp ****             thread_dispatch();
 170              		.loc 1 44 9
 171 0118 E39207FC 		bnez	a5,.L8
 172 011c 6FF09FFB 		j	.L12
 173              	.LVL21:
 174              	.L9:
  46:test/ConsumerProducer_C_API_test.cpp ****         }
  47:test/ConsumerProducer_C_API_test.cpp ****     }
  48:test/ConsumerProducer_C_API_test.cpp **** 
  49:test/ConsumerProducer_C_API_test.cpp ****     sem_signal(data->wait);
 175              		.loc 1 49 5 is_stmt 1
 176              		.loc 1 49 15 is_stmt 0
 177 0120 03B50401 		ld	a0,16(s1)
 178 0124 97000000 		call	_Z10sem_signalP10KSemaphore@plt
 178      E7800000 
 179              	.LVL22:
  50:test/ConsumerProducer_C_API_test.cpp **** }
 180              		.loc 1 50 1
 181 012c 83308101 		ld	ra,24(sp)
 182              		.cfi_restore 1
 183 0130 03340101 		ld	s0,16(sp)
 184              		.cfi_restore 8
 185              		.cfi_def_cfa 2, 32
 186 0134 83348100 		ld	s1,8(sp)
 187              		.cfi_restore 9
 188              	.LVL23:
 189 0138 03390100 		ld	s2,0(sp)
 190              		.cfi_restore 18
 191              	.LVL24:
 192 013c 13010102 		addi	sp,sp,32
 193              		.cfi_def_cfa_offset 0
 194 0140 67800000 		jr	ra
 195              		.cfi_endproc
 196              	.LFE1:
 198              		.align	2
 200              	_ZL8consumerPv:
 201              	.LFB2:
  51:test/ConsumerProducer_C_API_test.cpp **** 
  52:test/ConsumerProducer_C_API_test.cpp **** static void consumer(void *arg) {
 202              		.loc 1 52 33 is_stmt 1
GAS LISTING /tmp/ccT9dAhY.s 			page 6


 203              		.cfi_startproc
 204              	.LVL25:
 205 0144 130101FD 		addi	sp,sp,-48
 206              		.cfi_def_cfa_offset 48
 207 0148 23341102 		sd	ra,40(sp)
 208 014c 23308102 		sd	s0,32(sp)
 209 0150 233C9100 		sd	s1,24(sp)
 210 0154 23382101 		sd	s2,16(sp)
 211 0158 23343101 		sd	s3,8(sp)
 212              		.cfi_offset 1, -8
 213              		.cfi_offset 8, -16
 214              		.cfi_offset 9, -24
 215              		.cfi_offset 18, -32
 216              		.cfi_offset 19, -40
 217 015c 13040103 		addi	s0,sp,48
 218              		.cfi_def_cfa 8, 0
 219 0160 13090500 		mv	s2,a0
  53:test/ConsumerProducer_C_API_test.cpp ****     struct thread_data *data = (struct thread_data *) arg;
 220              		.loc 1 53 5
 221              	.LVL26:
  54:test/ConsumerProducer_C_API_test.cpp **** 
  55:test/ConsumerProducer_C_API_test.cpp ****     int i = 0;
 222              		.loc 1 55 5
 223              		.loc 1 55 9 is_stmt 0
 224 0164 93090000 		li	s3,0
 225 0168 6F00C001 		j	.L14
 226              	.LVL27:
 227              	.L20:
 228              	.LBB2:
  56:test/ConsumerProducer_C_API_test.cpp ****     while (!threadEnd) {
  57:test/ConsumerProducer_C_API_test.cpp ****         int key = data->buffer->get();
  58:test/ConsumerProducer_C_API_test.cpp ****         i++;
  59:test/ConsumerProducer_C_API_test.cpp **** 
  60:test/ConsumerProducer_C_API_test.cpp ****         putc(key);
  61:test/ConsumerProducer_C_API_test.cpp **** 
  62:test/ConsumerProducer_C_API_test.cpp ****         if (i % (5 * data->id) == 0) {
  63:test/ConsumerProducer_C_API_test.cpp ****             thread_dispatch();
 229              		.loc 1 63 13 is_stmt 1
 230              		.loc 1 63 28 is_stmt 0
 231 016c 97000000 		call	_Z15thread_dispatchv@plt
 231      E7800000 
 232              	.LVL28:
 233 0174 6F000005 		j	.L16
 234              	.LVL29:
 235              	.L21:
  64:test/ConsumerProducer_C_API_test.cpp ****         }
  65:test/ConsumerProducer_C_API_test.cpp **** 
  66:test/ConsumerProducer_C_API_test.cpp ****         if (i % 80 == 0) {
  67:test/ConsumerProducer_C_API_test.cpp ****             putc('\n');
 236              		.loc 1 67 13 is_stmt 1
 237              		.loc 1 67 17 is_stmt 0
 238 0178 1305A000 		li	a0,10
 239 017c 97000000 		call	_Z4putcc@plt
 239      E7800000 
 240              	.LVL30:
 241              	.L14:
 242              	.LBE2:
GAS LISTING /tmp/ccT9dAhY.s 			page 7


  56:test/ConsumerProducer_C_API_test.cpp ****     while (!threadEnd) {
 243              		.loc 1 56 5 is_stmt 1
  56:test/ConsumerProducer_C_API_test.cpp ****     while (!threadEnd) {
 244              		.loc 1 56 12
 245 0184 97070000 		lw	a5,.LANCHOR0
 245      83A70700 
 246 018c 63900706 		bnez	a5,.L15
 247              	.LBB3:
  57:test/ConsumerProducer_C_API_test.cpp ****         i++;
 248              		.loc 1 57 9
  57:test/ConsumerProducer_C_API_test.cpp ****         i++;
 249              		.loc 1 57 36 is_stmt 0
 250 0190 03358900 		ld	a0,8(s2)
 251 0194 97000000 		call	_ZN6Buffer3getEv@plt
 251      E7800000 
 252              	.LVL31:
  58:test/ConsumerProducer_C_API_test.cpp **** 
 253              		.loc 1 58 9 is_stmt 1
  58:test/ConsumerProducer_C_API_test.cpp **** 
 254              		.loc 1 58 10 is_stmt 0
 255 019c 9B841900 		addiw	s1,s3,1
 256 01a0 9B890400 		sext.w	s3,s1
 257              	.LVL32:
  60:test/ConsumerProducer_C_API_test.cpp **** 
 258              		.loc 1 60 9 is_stmt 1
  60:test/ConsumerProducer_C_API_test.cpp **** 
 259              		.loc 1 60 13 is_stmt 0
 260 01a4 1375F50F 		andi	a0,a0,0xff
 261              	.LVL33:
 262 01a8 97000000 		call	_Z4putcc@plt
 262      E7800000 
 263              	.LVL34:
  62:test/ConsumerProducer_C_API_test.cpp ****             thread_dispatch();
 264              		.loc 1 62 9 is_stmt 1
  62:test/ConsumerProducer_C_API_test.cpp ****             thread_dispatch();
 265              		.loc 1 62 28 is_stmt 0
 266 01b0 03270900 		lw	a4,0(s2)
  62:test/ConsumerProducer_C_API_test.cpp ****             thread_dispatch();
 267              		.loc 1 62 20
 268 01b4 9B172700 		slliw	a5,a4,2
 269 01b8 BB87E700 		addw	a5,a5,a4
  62:test/ConsumerProducer_C_API_test.cpp ****             thread_dispatch();
 270              		.loc 1 62 15
 271 01bc BBE7F402 		remw	a5,s1,a5
  62:test/ConsumerProducer_C_API_test.cpp ****             thread_dispatch();
 272              		.loc 1 62 9
 273 01c0 E38607FA 		beqz	a5,.L20
 274              	.L16:
  66:test/ConsumerProducer_C_API_test.cpp ****             putc('\n');
 275              		.loc 1 66 9 is_stmt 1
  66:test/ConsumerProducer_C_API_test.cpp ****             putc('\n');
 276              		.loc 1 66 15 is_stmt 0
 277 01c4 93070005 		li	a5,80
 278 01c8 BBE4F402 		remw	s1,s1,a5
 279              	.LVL35:
  66:test/ConsumerProducer_C_API_test.cpp ****             putc('\n');
 280              		.loc 1 66 9
GAS LISTING /tmp/ccT9dAhY.s 			page 8


 281 01cc E39C04FA 		bnez	s1,.L14
 282 01d0 6FF09FFA 		j	.L21
 283              	.L22:
 284              	.LBE3:
 285              	.LBB4:
  68:test/ConsumerProducer_C_API_test.cpp ****         }
  69:test/ConsumerProducer_C_API_test.cpp ****     }
  70:test/ConsumerProducer_C_API_test.cpp **** 
  71:test/ConsumerProducer_C_API_test.cpp ****     while (data->buffer->getCnt() > 0) {
  72:test/ConsumerProducer_C_API_test.cpp ****         int key = data->buffer->get();
 286              		.loc 1 72 9 is_stmt 1
 287              		.loc 1 72 36 is_stmt 0
 288 01d4 03358900 		ld	a0,8(s2)
 289 01d8 97000000 		call	_ZN6Buffer3getEv@plt
 289      E7800000 
 290              	.LVL36:
  73:test/ConsumerProducer_C_API_test.cpp ****         putc(key);
 291              		.loc 1 73 9 is_stmt 1
 292              		.loc 1 73 13 is_stmt 0
 293 01e0 1375F50F 		andi	a0,a0,0xff
 294              	.LVL37:
 295 01e4 97000000 		call	_Z4putcc@plt
 295      E7800000 
 296              	.LVL38:
 297              	.L15:
 298              	.LBE4:
  71:test/ConsumerProducer_C_API_test.cpp ****         int key = data->buffer->get();
 299              		.loc 1 71 5 is_stmt 1
  71:test/ConsumerProducer_C_API_test.cpp ****         int key = data->buffer->get();
 300              		.loc 1 71 35
  71:test/ConsumerProducer_C_API_test.cpp ****         int key = data->buffer->get();
 301              		.loc 1 71 32 is_stmt 0
 302 01ec 03358900 		ld	a0,8(s2)
 303 01f0 97000000 		call	_ZN6Buffer6getCntEv@plt
 303      E7800000 
 304              	.LVL39:
  71:test/ConsumerProducer_C_API_test.cpp ****         int key = data->buffer->get();
 305              		.loc 1 71 35
 306 01f8 E34EA0FC 		bgtz	a0,.L22
  74:test/ConsumerProducer_C_API_test.cpp ****     }
  75:test/ConsumerProducer_C_API_test.cpp **** 
  76:test/ConsumerProducer_C_API_test.cpp ****     sem_signal(data->wait);
 307              		.loc 1 76 5 is_stmt 1
 308              		.loc 1 76 15 is_stmt 0
 309 01fc 03350901 		ld	a0,16(s2)
 310 0200 97000000 		call	_Z10sem_signalP10KSemaphore@plt
 310      E7800000 
 311              	.LVL40:
  77:test/ConsumerProducer_C_API_test.cpp **** }
 312              		.loc 1 77 1
 313 0208 83308102 		ld	ra,40(sp)
 314              		.cfi_restore 1
 315 020c 03340102 		ld	s0,32(sp)
 316              		.cfi_restore 8
 317              		.cfi_def_cfa 2, 48
 318 0210 83348101 		ld	s1,24(sp)
 319              		.cfi_restore 9
GAS LISTING /tmp/ccT9dAhY.s 			page 9


 320 0214 03390101 		ld	s2,16(sp)
 321              		.cfi_restore 18
 322              	.LVL41:
 323 0218 83398100 		ld	s3,8(sp)
 324              		.cfi_restore 19
 325              	.LVL42:
 326 021c 13010103 		addi	sp,sp,48
 327              		.cfi_def_cfa_offset 0
 328 0220 67800000 		jr	ra
 329              		.cfi_endproc
 330              	.LFE2:
 332              		.section	.rodata.str1.8,"aMS",@progbits,1
 333              		.align	3
 334              	.LC0:
 335 0000 556E6573 		.string	"Unesite broj proizvodjaca?\n"
 335      69746520 
 335      62726F6A 
 335      2070726F 
 335      697A766F 
 336 001c 00000000 		.align	3
 337              	.LC1:
 338 0020 556E6573 		.string	"Unesite velicinu bafera?\n"
 338      69746520 
 338      76656C69 
 338      63696E75 
 338      20626166 
 339 003a 00000000 		.align	3
 339      0000
 340              	.LC2:
 341 0040 42726F6A 		.string	"Broj proizvodjaca "
 341      2070726F 
 341      697A766F 
 341      646A6163 
 341      612000
 342 0053 00000000 		.align	3
 342      00
 343              	.LC3:
 344 0058 20692076 		.string	" i velicina bafera "
 344      656C6963 
 344      696E6120 
 344      62616665 
 344      72612000 
 345 006c 00000000 		.align	3
 346              	.LC4:
 347 0070 2E0A00   		.string	".\n"
 348              		.text
 349              		.align	2
 350              		.globl	_Z22producerConsumer_C_APIv
 352              	_Z22producerConsumer_C_APIv:
 353              	.LFB3:
  78:test/ConsumerProducer_C_API_test.cpp **** 
  79:test/ConsumerProducer_C_API_test.cpp **** void producerConsumer_C_API() {
 354              		.loc 1 79 31 is_stmt 1
 355              		.cfi_startproc
 356              		.cfi_personality 0x9b,DW.ref.__gxx_personality_v0
 357              		.cfi_lsda 0x1b,.LLSDA3
 358 0224 130101F7 		addi	sp,sp,-144
GAS LISTING /tmp/ccT9dAhY.s 			page 10


 359              		.cfi_def_cfa_offset 144
 360 0228 23341108 		sd	ra,136(sp)
 361 022c 23308108 		sd	s0,128(sp)
 362 0230 233C9106 		sd	s1,120(sp)
 363 0234 23382107 		sd	s2,112(sp)
 364 0238 23343107 		sd	s3,104(sp)
 365              		.cfi_offset 1, -8
 366              		.cfi_offset 8, -16
 367              		.cfi_offset 9, -24
 368              		.cfi_offset 18, -32
 369              		.cfi_offset 19, -40
 370 023c 13040109 		addi	s0,sp,144
 371              		.cfi_def_cfa 8, 0
  80:test/ConsumerProducer_C_API_test.cpp ****     // char input[30];
  81:test/ConsumerProducer_C_API_test.cpp ****     int n, threadNum;
 372              		.loc 1 81 5
  82:test/ConsumerProducer_C_API_test.cpp **** 
  83:test/ConsumerProducer_C_API_test.cpp ****     printString("Unesite broj proizvodjaca?\n");
 373              		.loc 1 83 5
 374              		.loc 1 83 16 is_stmt 0
 375 0240 17050000 		lla	a0,.LC0
 375      13050500 
 376              	.LEHB0:
 377 0248 97000000 		call	_Z11printStringPKc@plt
 377      E7800000 
 378              	.LVL43:
  84:test/ConsumerProducer_C_API_test.cpp ****     // getString(input, 30);
  85:test/ConsumerProducer_C_API_test.cpp ****     // threadNum = stringToInt(input);
  86:test/ConsumerProducer_C_API_test.cpp ****     threadNum = 10;
 379              		.loc 1 86 5 is_stmt 1
  87:test/ConsumerProducer_C_API_test.cpp **** 
  88:test/ConsumerProducer_C_API_test.cpp ****     printString("Unesite velicinu bafera?\n");
 380              		.loc 1 88 5
 381              		.loc 1 88 16 is_stmt 0
 382 0250 17050000 		lla	a0,.LC1
 382      13050500 
 383 0258 97000000 		call	_Z11printStringPKc@plt
 383      E7800000 
 384              	.LVL44:
  89:test/ConsumerProducer_C_API_test.cpp ****     // getString(input, 30);
  90:test/ConsumerProducer_C_API_test.cpp ****     // n = stringToInt(input);
  91:test/ConsumerProducer_C_API_test.cpp ****     n = 30;
 385              		.loc 1 91 5 is_stmt 1
  92:test/ConsumerProducer_C_API_test.cpp **** 
  93:test/ConsumerProducer_C_API_test.cpp ****     printString("Broj proizvodjaca "); printInt(threadNum);
 386              		.loc 1 93 5
 387              		.loc 1 93 16 is_stmt 0
 388 0260 17050000 		lla	a0,.LC2
 388      13050500 
 389 0268 97000000 		call	_Z11printStringPKc@plt
 389      E7800000 
 390              	.LVL45:
 391              		.loc 1 93 40 is_stmt 1
 392              		.loc 1 93 48 is_stmt 0
 393 0270 13060000 		li	a2,0
 394 0274 9305A000 		li	a1,10
 395 0278 1305A000 		li	a0,10
GAS LISTING /tmp/ccT9dAhY.s 			page 11


 396 027c 97000000 		call	_Z8printIntiii@plt
 396      E7800000 
 397              	.LVL46:
  94:test/ConsumerProducer_C_API_test.cpp ****     printString(" i velicina bafera "); printInt(n);
 398              		.loc 1 94 5 is_stmt 1
 399              		.loc 1 94 16 is_stmt 0
 400 0284 17050000 		lla	a0,.LC3
 400      13050500 
 401 028c 97000000 		call	_Z11printStringPKc@plt
 401      E7800000 
 402              	.LVL47:
 403              		.loc 1 94 41 is_stmt 1
 404              		.loc 1 94 49 is_stmt 0
 405 0294 13060000 		li	a2,0
 406 0298 9305A000 		li	a1,10
 407 029c 1305E001 		li	a0,30
 408 02a0 97000000 		call	_Z8printIntiii@plt
 408      E7800000 
 409              	.LVL48:
  95:test/ConsumerProducer_C_API_test.cpp ****     printString(".\n");
 410              		.loc 1 95 5 is_stmt 1
 411              		.loc 1 95 16 is_stmt 0
 412 02a8 17050000 		lla	a0,.LC4
 412      13050500 
 413 02b0 97000000 		call	_Z11printStringPKc@plt
 413      E7800000 
 414              	.LVL49:
  96:test/ConsumerProducer_C_API_test.cpp **** 
  97:test/ConsumerProducer_C_API_test.cpp ****     if(threadNum > n) {
 415              		.loc 1 97 5 is_stmt 1
  98:test/ConsumerProducer_C_API_test.cpp ****         printString("Broj proizvodjaca ne sme biti manji od velicine bafera!\n");
  99:test/ConsumerProducer_C_API_test.cpp ****         return;
 100:test/ConsumerProducer_C_API_test.cpp ****     } else if (threadNum < 1) {
 416              		.loc 1 100 12
 101:test/ConsumerProducer_C_API_test.cpp ****         printString("Broj proizvodjaca mora biti veci od nula!\n");
 102:test/ConsumerProducer_C_API_test.cpp ****         return;
 103:test/ConsumerProducer_C_API_test.cpp ****     }
 104:test/ConsumerProducer_C_API_test.cpp **** 
 105:test/ConsumerProducer_C_API_test.cpp ****     Buffer *buffer = new Buffer(n);
 417              		.loc 1 105 5
 418              		.loc 1 105 34 is_stmt 0
 419 02b8 13058003 		li	a0,56
 420 02bc 97000000 		call	_Znwm@plt
 420      E7800000 
 421              	.LVL50:
 422              	.LEHE0:
 423 02c4 93090500 		mv	s3,a0
 424 02c8 9305E001 		li	a1,30
 425              	.LEHB1:
 426 02cc 97000000 		call	_ZN6BufferC1Ei@plt
 426      E7800000 
 427              	.LVL51:
 428              	.LEHE1:
 106:test/ConsumerProducer_C_API_test.cpp **** 
 107:test/ConsumerProducer_C_API_test.cpp ****     sem_open(&waitForAll, 0);
 429              		.loc 1 107 5 is_stmt 1 discriminator 3
 430              		.loc 1 107 13 is_stmt 0 discriminator 3
GAS LISTING /tmp/ccT9dAhY.s 			page 12


 431 02d4 93050000 		li	a1,0
 432 02d8 17050000 		lla	a0,.LANCHOR0+8
 432      13050500 
 433              	.LEHB2:
 434 02e0 97000000 		call	_Z8sem_openPP10KSemaphorej@plt
 434      E7800000 
 435              	.LVL52:
 108:test/ConsumerProducer_C_API_test.cpp **** 
 109:test/ConsumerProducer_C_API_test.cpp ****     thread_t threads[threadNum];
 436              		.loc 1 109 5 is_stmt 1 discriminator 3
 110:test/ConsumerProducer_C_API_test.cpp ****     thread_t consumerThread;
 437              		.loc 1 110 5 discriminator 3
 111:test/ConsumerProducer_C_API_test.cpp **** 
 112:test/ConsumerProducer_C_API_test.cpp ****     struct thread_data data[threadNum + 1];
 438              		.loc 1 112 5 discriminator 3
 439              		.loc 1 112 24 is_stmt 0 discriminator 3
 440 02e8 130101EF 		addi	sp,sp,-272
 441 02ec 13090100 		mv	s2,sp
 442              	.LVL53:
 113:test/ConsumerProducer_C_API_test.cpp **** 
 114:test/ConsumerProducer_C_API_test.cpp ****     data[threadNum].id = threadNum;
 443              		.loc 1 114 5 is_stmt 1 discriminator 3
 444              		.loc 1 114 24 is_stmt 0 discriminator 3
 445 02f0 9307A000 		li	a5,10
 446 02f4 2328F90E 		sw	a5,240(s2)
 115:test/ConsumerProducer_C_API_test.cpp ****     data[threadNum].buffer = buffer;
 447              		.loc 1 115 5 is_stmt 1 discriminator 3
 448              		.loc 1 115 28 is_stmt 0 discriminator 3
 449 02f8 233C390F 		sd	s3,248(s2)
 116:test/ConsumerProducer_C_API_test.cpp ****     data[threadNum].wait = waitForAll;
 450              		.loc 1 116 5 is_stmt 1 discriminator 3
 451              		.loc 1 116 26 is_stmt 0 discriminator 3
 452 02fc 97070000 		ld	a5,.LANCHOR0+8
 452      83B70700 
 453 0304 2330F910 		sd	a5,256(s2)
 117:test/ConsumerProducer_C_API_test.cpp ****     thread_create(&consumerThread, consumer, data + threadNum);
 454              		.loc 1 117 5 is_stmt 1 discriminator 3
 455              		.loc 1 117 18 is_stmt 0 discriminator 3
 456 0308 1306090F 		addi	a2,s2,240
 457 030c 97050000 		lla	a1,_ZL8consumerPv
 457      93850500 
 458 0314 130584FC 		addi	a0,s0,-56
 459 0318 97000000 		call	_Z13thread_createPP7KThreadPFvPvES2_@plt
 459      E7800000 
 460              	.LVL54:
 461              	.LBB5:
 118:test/ConsumerProducer_C_API_test.cpp **** 
 119:test/ConsumerProducer_C_API_test.cpp ****     for (int i = 0; i < threadNum; i++) {
 462              		.loc 1 119 14 discriminator 3
 463 0320 93040000 		li	s1,0
 464              	.L26:
 465              	.LVL55:
 466              		.loc 1 119 23 is_stmt 1 discriminator 1
 467 0324 93079000 		li	a5,9
 468 0328 63C89706 		bgt	s1,a5,.L24
 120:test/ConsumerProducer_C_API_test.cpp ****         data[i].id = i;
 469              		.loc 1 120 9
GAS LISTING /tmp/ccT9dAhY.s 			page 13


 470              		.loc 1 120 20 is_stmt 0
 471 032c 93971400 		slli	a5,s1,1
 472 0330 B3879700 		add	a5,a5,s1
 473 0334 93973700 		slli	a5,a5,3
 474 0338 B307F900 		add	a5,s2,a5
 475 033c 23A09700 		sw	s1,0(a5)
 121:test/ConsumerProducer_C_API_test.cpp ****         data[i].buffer = buffer;
 476              		.loc 1 121 9 is_stmt 1
 477              		.loc 1 121 24 is_stmt 0
 478 0340 23B43701 		sd	s3,8(a5)
 122:test/ConsumerProducer_C_API_test.cpp ****         data[i].wait = waitForAll;
 479              		.loc 1 122 9 is_stmt 1
 480              		.loc 1 122 22 is_stmt 0
 481 0344 17070000 		ld	a4,.LANCHOR0+8
 481      03370700 
 482 034c 23B8E700 		sd	a4,16(a5)
 123:test/ConsumerProducer_C_API_test.cpp **** 
 124:test/ConsumerProducer_C_API_test.cpp ****         thread_create(threads + i,
 483              		.loc 1 124 9 is_stmt 1
 484              		.loc 1 124 33 is_stmt 0
 485 0350 13870400 		mv	a4,s1
 486              		.loc 1 124 31
 487 0354 13953400 		slli	a0,s1,3
 488              		.loc 1 124 22
 489 0358 930784F7 		addi	a5,s0,-136
 490              	.LVL56:
 491 035c 3385A700 		add	a0,a5,a0
 492 0360 63569002 		blez	s1,.L31
 493 0364 97050000 		lla	a1,_ZL8producerPv
 493      93850500 
 494              	.L25:
 125:test/ConsumerProducer_C_API_test.cpp ****                       i > 0 ? producer : producerKeyboard,
 126:test/ConsumerProducer_C_API_test.cpp ****                       data + i);
 495              		.loc 1 126 28 discriminator 4
 496 036c 13161700 		slli	a2,a4,1
 497 0370 3306E600 		add	a2,a2,a4
 498 0374 13163600 		slli	a2,a2,3
 124:test/ConsumerProducer_C_API_test.cpp ****                       i > 0 ? producer : producerKeyboard,
 499              		.loc 1 124 22 discriminator 4
 500 0378 3306C900 		add	a2,s2,a2
 501 037c 97000000 		call	_Z13thread_createPP7KThreadPFvPvES2_@plt
 501      E7800000 
 502              	.LVL57:
 119:test/ConsumerProducer_C_API_test.cpp ****         data[i].id = i;
 503              		.loc 1 119 5 is_stmt 1 discriminator 4
 504 0384 9B841400 		addiw	s1,s1,1
 505              	.LVL58:
 506 0388 6FF0DFF9 		j	.L26
 507              	.LVL59:
 508              	.L31:
 124:test/ConsumerProducer_C_API_test.cpp ****                       i > 0 ? producer : producerKeyboard,
 509              		.loc 1 124 22 is_stmt 0
 510 038c 97050000 		lla	a1,_ZL16producerKeyboardPv
 510      93850500 
 511 0394 6FF09FFD 		j	.L25
 512              	.LVL60:
 513              	.L24:
GAS LISTING /tmp/ccT9dAhY.s 			page 14


 514              	.LBE5:
 127:test/ConsumerProducer_C_API_test.cpp ****     }
 128:test/ConsumerProducer_C_API_test.cpp **** 
 129:test/ConsumerProducer_C_API_test.cpp ****     thread_dispatch();
 515              		.loc 1 129 5 is_stmt 1
 516              		.loc 1 129 20 is_stmt 0
 517 0398 97000000 		call	_Z15thread_dispatchv@plt
 517      E7800000 
 518              	.LVL61:
 519              	.LBB6:
 130:test/ConsumerProducer_C_API_test.cpp **** 
 131:test/ConsumerProducer_C_API_test.cpp ****     for (int i = 0; i <= threadNum; i++) {
 520              		.loc 1 131 14
 521 03a0 93040000 		li	s1,0
 522              	.LVL62:
 523 03a4 6F008001 		j	.L28
 524              	.LVL63:
 525              	.L34:
 132:test/ConsumerProducer_C_API_test.cpp ****         sem_wait(waitForAll);
 526              		.loc 1 132 9 is_stmt 1
 527              		.loc 1 132 17 is_stmt 0
 528 03a8 17050000 		ld	a0,.LANCHOR0+8
 528      03350500 
 529 03b0 97000000 		call	_Z8sem_waitP10KSemaphore@plt
 529      E7800000 
 530              	.LVL64:
 131:test/ConsumerProducer_C_API_test.cpp ****         sem_wait(waitForAll);
 531              		.loc 1 131 5 is_stmt 1
 532 03b8 9B841400 		addiw	s1,s1,1
 533              	.LVL65:
 534              	.L28:
 131:test/ConsumerProducer_C_API_test.cpp ****         sem_wait(waitForAll);
 535              		.loc 1 131 23 discriminator 1
 536 03bc 9307A000 		li	a5,10
 537 03c0 E3D497FE 		ble	s1,a5,.L34
 538              	.LBE6:
 133:test/ConsumerProducer_C_API_test.cpp ****     }
 134:test/ConsumerProducer_C_API_test.cpp **** 
 135:test/ConsumerProducer_C_API_test.cpp ****     sem_close(waitForAll);
 539              		.loc 1 135 5
 540              		.loc 1 135 14 is_stmt 0
 541 03c4 17050000 		ld	a0,.LANCHOR0+8
 541      03350500 
 542 03cc 97000000 		call	_Z9sem_closeP10KSemaphore@plt
 542      E7800000 
 543              	.LVL66:
 136:test/ConsumerProducer_C_API_test.cpp **** 
 137:test/ConsumerProducer_C_API_test.cpp ****     delete buffer;
 544              		.loc 1 137 5 is_stmt 1
 545              		.loc 1 137 18 is_stmt 0
 546 03d4 638E0900 		beqz	s3,.L23
 547              		.loc 1 137 12 discriminator 1
 548 03d8 13850900 		mv	a0,s3
 549 03dc 97000000 		call	_ZN6BufferD1Ev@plt
 549      E7800000 
 550              	.LVL67:
 551 03e4 13850900 		mv	a0,s3
GAS LISTING /tmp/ccT9dAhY.s 			page 15


 552 03e8 97000000 		call	_ZdlPv@plt
 552      E7800000 
 553              	.LVL68:
 554              	.L23:
 138:test/ConsumerProducer_C_API_test.cpp **** 
 139:test/ConsumerProducer_C_API_test.cpp **** }
 555              		.loc 1 139 1
 556 03f0 130104F7 		addi	sp,s0,-144
 557              		.cfi_remember_state
 558              		.cfi_def_cfa 2, 144
 559              	.LVL69:
 560 03f4 83308108 		ld	ra,136(sp)
 561              		.cfi_restore 1
 562 03f8 03340108 		ld	s0,128(sp)
 563              		.cfi_restore 8
 564              	.LVL70:
 565 03fc 83348107 		ld	s1,120(sp)
 566              		.cfi_restore 9
 567              	.LVL71:
 568 0400 03390107 		ld	s2,112(sp)
 569              		.cfi_restore 18
 570              	.LVL72:
 571 0404 83398106 		ld	s3,104(sp)
 572              		.cfi_restore 19
 573              	.LVL73:
 574 0408 13010109 		addi	sp,sp,144
 575              		.cfi_def_cfa_offset 0
 576              	.LVL74:
 577 040c 67800000 		jr	ra
 578              	.LVL75:
 579              	.L32:
 580              		.cfi_restore_state
 581 0410 93040500 		mv	s1,a0
 105:test/ConsumerProducer_C_API_test.cpp **** 
 582              		.loc 1 105 34
 583 0414 13850900 		mv	a0,s3
 584 0418 97000000 		call	_ZdlPv@plt
 584      E7800000 
 585              	.LVL76:
 586 0420 13850400 		mv	a0,s1
 587 0424 97000000 		call	_Unwind_Resume@plt
 587      E7800000 
 588              	.LVL77:
 589              	.LEHE2:
 590              		.cfi_endproc
 591              	.LFE3:
 592              		.globl	__gxx_personality_v0
 593              		.section	.gcc_except_table,"a",@progbits
 594              	.LLSDA3:
 595 0000 FF       		.byte	0xff
 596 0001 FF       		.byte	0xff
 597 0002 03       		.byte	0x3
 598 0003 27       		.byte	0x27
 599 0004 00000000 		.4byte	.LEHB0-.LFB3
 600 0008 00000000 		.4byte	.LEHE0-.LEHB0
 601 000c 00000000 		.4byte	0
 602 0010 00       		.byte	0
GAS LISTING /tmp/ccT9dAhY.s 			page 16


 603 0011 00000000 		.4byte	.LEHB1-.LFB3
 604 0015 00000000 		.4byte	.LEHE1-.LEHB1
 605 0019 00000000 		.4byte	.L32-.LFB3
 606 001d 00       		.byte	0
 607 001e 00000000 		.4byte	.LEHB2-.LFB3
 608 0022 00000000 		.4byte	.LEHE2-.LEHB2
 609 0026 00000000 		.4byte	0
 610 002a 00       		.byte	0
 611              		.text
 613              		.bss
 614              		.align	3
 615              		.set	.LANCHOR0,. + 0
 618              	_ZL9threadEnd:
 619 0000 00000000 		.zero	4
 620 0004 00000000 		.zero	4
 623              	_ZL10waitForAll:
 624 0008 00000000 		.zero	8
 624      00000000 
 625              		.text
 626              	.Letext0:
 627              		.file 2 "test/../h/../lib/hw.h"
 628              		.file 3 "test/../h/syscall_c.hpp"
 629              		.file 4 "test/buffer.hpp"
 630              		.file 5 "test/printing.hpp"
 2634              		.align	3
 2637              	DW.ref.__gxx_personality_v0:
 2638 0000 00000000 		.dword	__gxx_personality_v0
 2638      00000000 
 2639              		.ident	"GCC: (Ubuntu 9.4.0-1ubuntu1~20.04) 9.4.0"
 2640              		.section	.note.GNU-stack,"",@progbits
GAS LISTING /tmp/ccT9dAhY.s 			page 17

