GAS LISTING /tmp/ccT9dAhY.s 			page 1


   1              		.file	"ConsumerProducer_C_API_test.cpp"
   2              		.option pic
   3              		.option norelax
   4              		.text
   5              	.Ltext0:
   6              		.align	2
   8              	_ZL16producerKeyboardPv:
   9              	.LFB0:
  10              		.file 1 "test/ConsumerProducer_C_API_test.cpp"
   1:test/ConsumerProducer_C_API_test.cpp **** 
   2:test/ConsumerProducer_C_API_test.cpp **** #include "../h/syscall_c.hpp"
   3:test/ConsumerProducer_C_API_test.cpp **** 
   4:test/ConsumerProducer_C_API_test.cpp **** #include "buffer.hpp"
   5:test/ConsumerProducer_C_API_test.cpp **** 
   6:test/ConsumerProducer_C_API_test.cpp **** static sem_t waitForAll;
   7:test/ConsumerProducer_C_API_test.cpp **** 
   8:test/ConsumerProducer_C_API_test.cpp **** struct thread_data {
   9:test/ConsumerProducer_C_API_test.cpp ****     int id;
  10:test/ConsumerProducer_C_API_test.cpp ****     Buffer *buffer;
  11:test/ConsumerProducer_C_API_test.cpp ****     sem_t wait;
  12:test/ConsumerProducer_C_API_test.cpp **** };
  13:test/ConsumerProducer_C_API_test.cpp **** 
  14:test/ConsumerProducer_C_API_test.cpp **** static volatile int threadEnd = 0;
  15:test/ConsumerProducer_C_API_test.cpp **** 
  16:test/ConsumerProducer_C_API_test.cpp **** static void producerKeyboard(void *arg) {
  11              		.loc 1 16 41
  12              		.cfi_startproc
  13              	.LVL0:
  14 0000 130101FE 		addi	sp,sp,-32
  15              		.cfi_def_cfa_offset 32
  16 0004 233C1100 		sd	ra,24(sp)
  17 0008 23388100 		sd	s0,16(sp)
  18 000c 23349100 		sd	s1,8(sp)
  19 0010 23302101 		sd	s2,0(sp)
  20              		.cfi_offset 1, -8
  21              		.cfi_offset 8, -16
  22              		.cfi_offset 9, -24
  23              		.cfi_offset 18, -32
  24 0014 13040102 		addi	s0,sp,32
  25              		.cfi_def_cfa 8, 0
  26 0018 93040500 		mv	s1,a0
  17:test/ConsumerProducer_C_API_test.cpp ****     struct thread_data *data = (struct thread_data *) arg;
  27              		.loc 1 17 5
  28              	.LVL1:
  18:test/ConsumerProducer_C_API_test.cpp **** 
  19:test/ConsumerProducer_C_API_test.cpp ****     int key;
  29              		.loc 1 19 5
  20:test/ConsumerProducer_C_API_test.cpp ****     int i = 0;
  30              		.loc 1 20 5
  31              		.loc 1 20 9 is_stmt 0
  32 001c 13090000 		li	s2,0
  33 0020 6F00C000 		j	.L2
  34              	.LVL2:
  35              	.L6:
  21:test/ConsumerProducer_C_API_test.cpp ****     while ((key = getc()) != 0x1b) {
  22:test/ConsumerProducer_C_API_test.cpp ****         data->buffer->put(key);
  23:test/ConsumerProducer_C_API_test.cpp ****         i++;
GAS LISTING /tmp/ccT9dAhY.s 			page 2


  24:test/ConsumerProducer_C_API_test.cpp **** 
  25:test/ConsumerProducer_C_API_test.cpp ****         if (i % (10 * data->id) == 0) {
  26:test/ConsumerProducer_C_API_test.cpp ****             thread_dispatch();
  36              		.loc 1 26 13 is_stmt 1
  37              		.loc 1 26 28 is_stmt 0
  38 0024 97000000 		call	_Z15thread_dispatchv@plt
  38      E7800000 
  39              	.LVL3:
  40              	.L2:
  21:test/ConsumerProducer_C_API_test.cpp ****     while ((key = getc()) != 0x1b) {
  41              		.loc 1 21 5 is_stmt 1
  21:test/ConsumerProducer_C_API_test.cpp ****     while ((key = getc()) != 0x1b) {
  42              		.loc 1 21 27
  21:test/ConsumerProducer_C_API_test.cpp ****     while ((key = getc()) != 0x1b) {
  43              		.loc 1 21 23 is_stmt 0
  44 002c 97000000 		call	_Z4getcv@plt
  44      E7800000 
  45              	.LVL4:
  21:test/ConsumerProducer_C_API_test.cpp ****     while ((key = getc()) != 0x1b) {
  46              		.loc 1 21 17
  47 0034 9B050500 		sext.w	a1,a0
  48              	.LVL5:
  21:test/ConsumerProducer_C_API_test.cpp ****     while ((key = getc()) != 0x1b) {
  49              		.loc 1 21 27
  50 0038 9307B001 		li	a5,27
  51 003c 638AF502 		beq	a1,a5,.L3
  22:test/ConsumerProducer_C_API_test.cpp ****         i++;
  52              		.loc 1 22 9 is_stmt 1
  22:test/ConsumerProducer_C_API_test.cpp ****         i++;
  53              		.loc 1 22 26 is_stmt 0
  54 0040 03B58400 		ld	a0,8(s1)
  55 0044 97000000 		call	_ZN6Buffer3putEi@plt
  55      E7800000 
  56              	.LVL6:
  23:test/ConsumerProducer_C_API_test.cpp **** 
  57              		.loc 1 23 9 is_stmt 1
  23:test/ConsumerProducer_C_API_test.cpp **** 
  58              		.loc 1 23 10 is_stmt 0
  59 004c 1B071900 		addiw	a4,s2,1
  60 0050 1B090700 		sext.w	s2,a4
  61              	.LVL7:
  25:test/ConsumerProducer_C_API_test.cpp ****             thread_dispatch();
  62              		.loc 1 25 9 is_stmt 1
  25:test/ConsumerProducer_C_API_test.cpp ****             thread_dispatch();
  63              		.loc 1 25 29 is_stmt 0
  64 0054 83A60400 		lw	a3,0(s1)
  25:test/ConsumerProducer_C_API_test.cpp ****             thread_dispatch();
  65              		.loc 1 25 21
  66 0058 9B972600 		slliw	a5,a3,2
  67 005c BB87D700 		addw	a5,a5,a3
  68 0060 9B971700 		slliw	a5,a5,1
  25:test/ConsumerProducer_C_API_test.cpp ****             thread_dispatch();
  69              		.loc 1 25 15
  70 0064 BB67F702 		remw	a5,a4,a5
  25:test/ConsumerProducer_C_API_test.cpp ****             thread_dispatch();
  71              		.loc 1 25 9
  72 0068 E39207FC 		bnez	a5,.L2
GAS LISTING /tmp/ccT9dAhY.s 			page 3


  73 006c 6FF09FFB 		j	.L6
  74              	.LVL8:
  75              	.L3:
  27:test/ConsumerProducer_C_API_test.cpp ****         }
  28:test/ConsumerProducer_C_API_test.cpp ****     }
  29:test/ConsumerProducer_C_API_test.cpp **** 
  30:test/ConsumerProducer_C_API_test.cpp ****     threadEnd = 1;
  76              		.loc 1 30 5 is_stmt 1
  77              		.loc 1 30 15 is_stmt 0
  78 0070 93071000 		li	a5,1
  79 0074 17070000 		sw	a5,.LANCHOR0,a4
  79      2320F700 
  31:test/ConsumerProducer_C_API_test.cpp ****     data->buffer->put('!');
  80              		.loc 1 31 5 is_stmt 1
  81              		.loc 1 31 22 is_stmt 0
  82 007c 93051002 		li	a1,33
  83              	.LVL9:
  84 0080 03B58400 		ld	a0,8(s1)
  85              	.LVL10:
  86 0084 97000000 		call	_ZN6Buffer3putEi@plt
  86      E7800000 
  87              	.LVL11:
  32:test/ConsumerProducer_C_API_test.cpp **** 
  33:test/ConsumerProducer_C_API_test.cpp ****     sem_signal(data->wait);
  88              		.loc 1 33 5 is_stmt 1
  89              		.loc 1 33 15 is_stmt 0
  90 008c 03B50401 		ld	a0,16(s1)
  91 0090 97000000 		call	_Z10sem_signalP10KSemaphore@plt
  91      E7800000 
  92              	.LVL12:
  34:test/ConsumerProducer_C_API_test.cpp **** }
  93              		.loc 1 34 1
  94 0098 83308101 		ld	ra,24(sp)
  95              		.cfi_restore 1
  96 009c 03340101 		ld	s0,16(sp)
  97              		.cfi_restore 8
  98              		.cfi_def_cfa 2, 32
  99 00a0 83348100 		ld	s1,8(sp)
 100              		.cfi_restore 9
 101              	.LVL13:
 102 00a4 03390100 		ld	s2,0(sp)
 103              		.cfi_restore 18
 104              	.LVL14:
 105 00a8 13010102 		addi	sp,sp,32
 106              		.cfi_def_cfa_offset 0
 107 00ac 67800000 		jr	ra
 108              		.cfi_endproc
 109              	.LFE0:
 111              		.align	2
 113              	_ZL8producerPv:
 114              	.LFB1:
  35:test/ConsumerProducer_C_API_test.cpp **** 
  36:test/ConsumerProducer_C_API_test.cpp **** static void producer(void *arg) {
 115              		.loc 1 36 33 is_stmt 1
 116              		.cfi_startproc
 117              	.LVL15:
 118 00b0 130101FE 		addi	sp,sp,-32
GAS LISTING /tmp/ccT9dAhY.s 			page 4


 119              		.cfi_def_cfa_offset 32
 120 00b4 233C1100 		sd	ra,24(sp)
 121 00b8 23388100 		sd	s0,16(sp)
 122 00bc 23349100 		sd	s1,8(sp)
 123 00c0 23302101 		sd	s2,0(sp)
 124              		.cfi_offset 1, -8
 125              		.cfi_offset 8, -16
 126              		.cfi_offset 9, -24
 127              		.cfi_offset 18, -32
 128 00c4 13040102 		addi	s0,sp,32
 129              		.cfi_def_cfa 8, 0
 130 00c8 93040500 		mv	s1,a0
  37:test/ConsumerProducer_C_API_test.cpp ****     struct thread_data *data = (struct thread_data *) arg;
 131              		.loc 1 37 5
 132              	.LVL16:
  38:test/ConsumerProducer_C_API_test.cpp **** 
  39:test/ConsumerProducer_C_API_test.cpp ****     int i = 0;
 133              		.loc 1 39 5
 134              		.loc 1 39 9 is_stmt 0
 135 00cc 13090000 		li	s2,0
 136 00d0 6F00C000 		j	.L8
 137              	.LVL17:
 138              	.L12:
  40:test/ConsumerProducer_C_API_test.cpp ****     while (!threadEnd) {
  41:test/ConsumerProducer_C_API_test.cpp ****         data->buffer->put(data->id + '0');
  42:test/ConsumerProducer_C_API_test.cpp ****         i++;
  43:test/ConsumerProducer_C_API_test.cpp **** 
  44:test/ConsumerProducer_C_API_test.cpp ****         if (i % (10 * data->id) == 0) {
  45:test/ConsumerProducer_C_API_test.cpp ****             thread_dispatch();
 139              		.loc 1 45 13 is_stmt 1
 140              		.loc 1 45 28 is_stmt 0
 141 00d4 97000000 		call	_Z15thread_dispatchv@plt
 141      E7800000 
 142              	.LVL18:
 143              	.L8:
  40:test/ConsumerProducer_C_API_test.cpp ****     while (!threadEnd) {
 144              		.loc 1 40 5 is_stmt 1
  40:test/ConsumerProducer_C_API_test.cpp ****     while (!threadEnd) {
 145              		.loc 1 40 12
 146 00dc 97070000 		lw	a5,.LANCHOR0
 146      83A70700 
 147 00e4 639E0702 		bnez	a5,.L9
  41:test/ConsumerProducer_C_API_test.cpp ****         i++;
 148              		.loc 1 41 9
  41:test/ConsumerProducer_C_API_test.cpp ****         i++;
 149              		.loc 1 41 33 is_stmt 0
 150 00e8 83A50400 		lw	a1,0(s1)
  41:test/ConsumerProducer_C_API_test.cpp ****         i++;
 151              		.loc 1 41 26
 152 00ec 9B850503 		addiw	a1,a1,48
 153 00f0 03B58400 		ld	a0,8(s1)
 154 00f4 97000000 		call	_ZN6Buffer3putEi@plt
 154      E7800000 
 155              	.LVL19:
  42:test/ConsumerProducer_C_API_test.cpp **** 
 156              		.loc 1 42 9 is_stmt 1
  42:test/ConsumerProducer_C_API_test.cpp **** 
GAS LISTING /tmp/ccT9dAhY.s 			page 5


 157              		.loc 1 42 10 is_stmt 0
 158 00fc 1B071900 		addiw	a4,s2,1
 159 0100 1B090700 		sext.w	s2,a4
 160              	.LVL20:
  44:test/ConsumerProducer_C_API_test.cpp ****             thread_dispatch();
 161              		.loc 1 44 9 is_stmt 1
  44:test/ConsumerProducer_C_API_test.cpp ****             thread_dispatch();
 162              		.loc 1 44 29 is_stmt 0
 163 0104 83A60400 		lw	a3,0(s1)
  44:test/ConsumerProducer_C_API_test.cpp ****             thread_dispatch();
 164              		.loc 1 44 21
 165 0108 9B972600 		slliw	a5,a3,2
 166 010c BB87D700 		addw	a5,a5,a3
 167 0110 9B971700 		slliw	a5,a5,1
  44:test/ConsumerProducer_C_API_test.cpp ****             thread_dispatch();
 168              		.loc 1 44 15
 169 0114 BB67F702 		remw	a5,a4,a5
  44:test/ConsumerProducer_C_API_test.cpp ****             thread_dispatch();
 170              		.loc 1 44 9
 171 0118 E39207FC 		bnez	a5,.L8
 172 011c 6FF09FFB 		j	.L12
 173              	.LVL21:
 174              	.L9:
  46:test/ConsumerProducer_C_API_test.cpp ****         }
  47:test/ConsumerProducer_C_API_test.cpp ****     }
  48:test/ConsumerProducer_C_API_test.cpp **** 
  49:test/ConsumerProducer_C_API_test.cpp ****     sem_signal(data->wait);
 175              		.loc 1 49 5 is_stmt 1
 176              		.loc 1 49 15 is_stmt 0
 177 0120 03B50401 		ld	a0,16(s1)
 178 0124 97000000 		call	_Z10sem_signalP10KSemaphore@plt
 178      E7800000 
 179              	.LVL22:
  50:test/ConsumerProducer_C_API_test.cpp **** }
 180              		.loc 1 50 1
 181 012c 83308101 		ld	ra,24(sp)
 182              		.cfi_restore 1
 183 0130 03340101 		ld	s0,16(sp)
 184              		.cfi_restore 8
 185              		.cfi_def_cfa 2, 32
 186 0134 83348100 		ld	s1,8(sp)
 187              		.cfi_restore 9
 188              	.LVL23:
 189 0138 03390100 		ld	s2,0(sp)
 190              		.cfi_restore 18
 191              	.LVL24:
 192 013c 13010102 		addi	sp,sp,32
 193              		.cfi_def_cfa_offset 0
 194 0140 67800000 		jr	ra
 195              		.cfi_endproc
 196              	.LFE1:
 198              		.align	2
 200              	_ZL8consumerPv:
 201              	.LFB2:
  51:test/ConsumerProducer_C_API_test.cpp **** 
  52:test/ConsumerProducer_C_API_test.cpp **** static void consumer(void *arg) {
 202              		.loc 1 52 33 is_stmt 1
GAS LISTING /tmp/ccT9dAhY.s 			page 6


 203              		.cfi_startproc
 204              	.LVL25:
 205 0144 130101FD 		addi	sp,sp,-48
 206              		.cfi_def_cfa_offset 48
 207 0148 23341102 		sd	ra,40(sp)
 208 014c 23308102 		sd	s0,32(sp)
 209 0150 233C9100 		sd	s1,24(sp)
 210 0154 23382101 		sd	s2,16(sp)
 211 0158 23343101 		sd	s3,8(sp)
 212              		.cfi_offset 1, -8
 213              		.cfi_offset 8, -16
 214              		.cfi_offset 9, -24
 215              		.cfi_offset 18, -32
 216              		.cfi_offset 19, -40
 217 015c 13040103 		addi	s0,sp,48
 218              		.cfi_def_cfa 8, 0
 219 0160 13090500 		mv	s2,a0
  53:test/ConsumerProducer_C_API_test.cpp ****     struct thread_data *data = (struct thread_data *) arg;
 220              		.loc 1 53 5
 221              	.LVL26:
  54:test/ConsumerProducer_C_API_test.cpp **** 
  55:test/ConsumerProducer_C_API_test.cpp ****     int i = 0;
 222              		.loc 1 55 5
 223              		.loc 1 55 9 is_stmt 0
 224 0164 93090000 		li	s3,0
 225 0168 6F00C001 		j	.L14
 226              	.LVL27:
 227              	.L20:
 228              	.LBB2:
  56:test/ConsumerProducer_C_API_test.cpp ****     while (!threadEnd) {
  57:test/ConsumerProducer_C_API_test.cpp ****         int key = data->buffer->get();
  58:test/ConsumerProducer_C_API_test.cpp ****         i++;
  59:test/ConsumerProducer_C_API_test.cpp **** 
  60:test/ConsumerProducer_C_API_test.cpp ****         putc(key);
  61:test/ConsumerProducer_C_API_test.cpp **** 
  62:test/ConsumerProducer_C_API_test.cpp ****         if (i % (5 * data->id) == 0) {
  63:test/ConsumerProducer_C_API_test.cpp ****             thread_dispatch();
 229              		.loc 1 63 13 is_stmt 1
 230              		.loc 1 63 28 is_stmt 0
 231 016c 97000000 		call	_Z15thread_dispatchv@plt
 231      E7800000 
 232              	.LVL28:
 233 0174 6F000005 		j	.L16
 234              	.LVL29:
 235              	.L21:
  64:test/ConsumerProducer_C_API_test.cpp ****         }
  65:test/ConsumerProducer_C_API_test.cpp **** 
  66:test/ConsumerProducer_C_API_test.cpp ****         if (i % 80 == 0) {
  67:test/ConsumerProducer_C_API_test.cpp ****             putc('\n');
 236              		.loc 1 67 13 is_stmt 1
 237              		.loc 1 67 17 is_stmt 0
 238 0178 1305A000 		li	a0,10
 239 017c 97000000 		call	_Z4putcc@plt
 239      E7800000 
 240              	.LVL30:
 241              	.L14:
 242              	.LBE2:
GAS LISTING /tmp/ccT9dAhY.s 			page 7


  56:test/ConsumerProducer_C_API_test.cpp ****     while (!threadEnd) {
 243              		.loc 1 56 5 is_stmt 1
  56:test/ConsumerProducer_C_API_test.cpp ****     while (!threadEnd) {
 244              		.loc 1 56 12
 245 0184 97070000 		lw	a5,.LANCHOR0
 245      83A70700 
 246 018c 63900706 		bnez	a5,.L15
 247              	.LBB3:
  57:test/ConsumerProducer_C_API_test.cpp ****         i++;
 248              		.loc 1 57 9
  57:test/ConsumerProducer_C_API_test.cpp ****         i++;
 249              		.loc 1 57 36 is_stmt 0
 250 0190 03358900 		ld	a0,8(s2)
 251 0194 97000000 		call	_ZN6Buffer3getEv@plt
 251      E7800000 
 252              	.LVL31:
  58:test/ConsumerProducer_C_API_test.cpp **** 
 253              		.loc 1 58 9 is_stmt 1
  58:test/ConsumerProducer_C_API_test.cpp **** 
 254              		.loc 1 58 10 is_stmt 0
 255 019c 9B841900 		addiw	s1,s3,1
 256 01a0 9B890400 		sext.w	s3,s1
 257              	.LVL32:
  60:test/ConsumerProducer_C_API_test.cpp **** 
 258              		.loc 1 60 9 is_stmt 1
  60:test/ConsumerProducer_C_API_test.cpp **** 
 259              		.loc 1 60 13 is_stmt 0
 260 01a4 1375F50F 		andi	a0,a0,0xff
 261              	.LVL33:
 262 01a8 97000000 		call	_Z4putcc@plt
 262      E7800000 
 263              	.LVL34:
  62:test/ConsumerProducer_C_API_test.cpp ****             thread_dispatch();
 264              		.loc 1 62 9 is_stmt 1
  62:test/ConsumerProducer_C_API_test.cpp ****             thread_dispatch();
 265              		.loc 1 62 28 is_stmt 0
 266 01b0 03270900 		lw	a4,0(s2)
  62:test/ConsumerProducer_C_API_test.cpp ****             thread_dispatch();
 267              		.loc 1 62 20
 268 01b4 9B172700 		slliw	a5,a4,2
 269 01b8 BB87E700 		addw	a5,a5,a4
  62:test/ConsumerProducer_C_API_test.cpp ****             thread_dispatch();
 270              		.loc 1 62 15
 271 01bc BBE7F402 		remw	a5,s1,a5
  62:test/ConsumerProducer_C_API_test.cpp ****             thread_dispatch();
 272              		.loc 1 62 9
 273 01c0 E38607FA 		beqz	a5,.L20
 274              	.L16:
  66:test/ConsumerProducer_C_API_test.cpp ****             putc('\n');
 275              		.loc 1 66 9 is_stmt 1
  66:test/ConsumerProducer_C_API_test.cpp ****             putc('\n');
 276              		.loc 1 66 15 is_stmt 0
 277 01c4 93070005 		li	a5,80
 278 01c8 BBE4F402 		remw	s1,s1,a5
 279              	.LVL35:
  66:test/ConsumerProducer_C_API_test.cpp ****             putc('\n');
 280              		.loc 1 66 9
GAS LISTING /tmp/ccT9dAhY.s 			page 8


 281 01cc E39C04FA 		bnez	s1,.L14
 282 01d0 6FF09FFA 		j	.L21
 283              	.L22:
 284              	.LBE3:
 285              	.LBB4:
  68:test/ConsumerProducer_C_API_test.cpp ****         }
  69:test/ConsumerProducer_C_API_test.cpp ****     }
  70:test/ConsumerProducer_C_API_test.cpp **** 
  71:test/ConsumerProducer_C_API_test.cpp ****     while (data->buffer->getCnt() > 0) {
  72:test/ConsumerProducer_C_API_test.cpp ****         int key = data->buffer->get();
 286              		.loc 1 72 9 is_stmt 1
 287              		.loc 1 72 36 is_stmt 0
 288 01d4 03358900 		ld	a0,8(s2)
 289 01d8 97000000 		call	_ZN6Buffer3getEv@plt
 289      E7800000 
 290              	.LVL36:
  73:test/ConsumerProducer_C_API_test.cpp ****         putc(key);
 291              		.loc 1 73 9 is_stmt 1
 292              		.loc 1 73 13 is_stmt 0
 293 01e0 1375F50F 		andi	a0,a0,0xff
 294              	.LVL37:
 295 01e4 97000000 		call	_Z4putcc@plt
 295      E7800000 
 296              	.LVL38:
 297              	.L15:
 298              	.LBE4:
  71:test/ConsumerProducer_C_API_test.cpp ****         int key = data->buffer->get();
 299              		.loc 1 71 5 is_stmt 1
  71:test/ConsumerProducer_C_API_test.cpp ****         int key = data->buffer->get();
 300              		.loc 1 71 35
  71:test/ConsumerProducer_C_API_test.cpp ****         int key = data->buffer->get();
 301              		.loc 1 71 32 is_stmt 0
 302 01ec 03358900 		ld	a0,8(s2)
 303 01f0 97000000 		call	_ZN6Buffer6getCntEv@plt
 303      E7800000 
 304              	.LVL39:
  71:test/ConsumerProducer_C_API_test.cpp ****         int key = data->buffer->get();
 305              		.loc 1 71 35
 306 01f8 E34EA0FC 		bgtz	a0,.L22
  74:test/ConsumerProducer_C_API_test.cpp ****     }
  75:test/ConsumerProducer_C_API_test.cpp **** 
  76:test/ConsumerProducer_C_API_test.cpp ****     sem_signal(data->wait);
 307              		.loc 1 76 5 is_stmt 1
 308              		.loc 1 76 15 is_stmt 0
 309 01fc 03350901 		ld	a0,16(s2)
 310 0200 97000000 		call	_Z10sem_signalP10KSemaphore@plt
 310      E7800000 
 311              	.LVL40:
  77:test/ConsumerProducer_C_API_test.cpp **** }
 312              		.loc 1 77 1
 313 0208 83308102 		ld	ra,40(sp)
 314              		.cfi_restore 1
 315 020c 03340102 		ld	s0,32(sp)
 316              		.cfi_restore 8
 317              		.cfi_def_cfa 2, 48
 318 0210 83348101 		ld	s1,24(sp)
 319              		.cfi_restore 9
GAS LISTING /tmp/ccT9dAhY.s 			page 9


 320 0214 03390101 		ld	s2,16(sp)
 321              		.cfi_restore 18
 322              	.LVL41:
 323 0218 83398100 		ld	s3,8(sp)
 324              		.cfi_restore 19
 325              	.LVL42:
 326 021c 13010103 		addi	sp,sp,48
 327              		.cfi_def_cfa_offset 0
 328 0220 67800000 		jr	ra
 329              		.cfi_endproc
 330              	.LFE2:
 332              		.section	.rodata.str1.8,"aMS",@progbits,1
 333              		.align	3
 334              	.LC0:
 335 0000 556E6573 		.string	"Unesite broj proizvodjaca?\n"
 335      69746520 
 335      62726F6A 
 335      2070726F 
 335      697A766F 
 336 001c 00000000 		.align	3
 337              	.LC1:
 338 0020 556E6573 		.string	"Unesite velicinu bafera?\n"
 338      69746520 
 338      76656C69 
 338      63696E75 
 338      20626166 
 339 003a 00000000 		.align	3
 339      0000
 340              	.LC2:
 341 0040 42726F6A 		.string	"Broj proizvodjaca "
 341      2070726F 
 341      697A766F 
 341      646A6163 
 341      612000
 342 0053 00000000 		.align	3
 342      00
 343              	.LC3:
 344 0058 20692076 		.string	" i velicina bafera "
 344      656C6963 
 344      696E6120 
 344      62616665 
 344      72612000 
 345 006c 00000000 		.align	3
 346              	.LC4:
 347 0070 2E0A00   		.string	".\n"
 348              		.text
 349              		.align	2
 350              		.globl	_Z22producerConsumer_C_APIv
 352              	_Z22producerConsumer_C_APIv:
 353              	.LFB3:
  78:test/ConsumerProducer_C_API_test.cpp **** 
  79:test/ConsumerProducer_C_API_test.cpp **** void producerConsumer_C_API() {
 354              		.loc 1 79 31 is_stmt 1
 355              		.cfi_startproc
 356              		.cfi_personality 0x9b,DW.ref.__gxx_personality_v0
 357              		.cfi_lsda 0x1b,.LLSDA3
 358 0224 130101F7 		addi	sp,sp,-144
GAS LISTING /tmp/ccT9dAhY.s 			page 10


 359              		.cfi_def_cfa_offset 144
 360 0228 23341108 		sd	ra,136(sp)
 361 022c 23308108 		sd	s0,128(sp)
 362 0230 233C9106 		sd	s1,120(sp)
 363 0234 23382107 		sd	s2,112(sp)
 364 0238 23343107 		sd	s3,104(sp)
 365              		.cfi_offset 1, -8
 366              		.cfi_offset 8, -16
 367              		.cfi_offset 9, -24
 368              		.cfi_offset 18, -32
 369              		.cfi_offset 19, -40
 370 023c 13040109 		addi	s0,sp,144
 371              		.cfi_def_cfa 8, 0
  80:test/ConsumerProducer_C_API_test.cpp ****     // char input[30];
  81:test/ConsumerProducer_C_API_test.cpp ****     int n, threadNum;
 372              		.loc 1 81 5
  82:test/ConsumerProducer_C_API_test.cpp **** 
  83:test/ConsumerProducer_C_API_test.cpp ****     printString("Unesite broj proizvodjaca?\n");
 373              		.loc 1 83 5
 374              		.loc 1 83 16 is_stmt 0
 375 0240 17050000 		lla	a0,.LC0
 375      13050500 
 376              	.LEHB0:
 377 0248 97000000 		call	_Z11printStringPKc@plt
 377      E7800000 
 378              	.LVL43:
  84:test/ConsumerProducer_C_API_test.cpp ****     // getString(input, 30);
  85:test/ConsumerProducer_C_API_test.cpp ****     // threadNum = stringToInt(input);
  86:test/ConsumerProducer_C_API_test.cpp ****     threadNum = 10;
 379              		.loc 1 86 5 is_stmt 1
  87:test/ConsumerProducer_C_API_test.cpp **** 
  88:test/ConsumerProducer_C_API_test.cpp ****     printString("Unesite velicinu bafera?\n");
 380              		.loc 1 88 5
 381              		.loc 1 88 16 is_stmt 0
 382 0250 17050000 		lla	a0,.LC1
 382      13050500 
 383 0258 97000000 		call	_Z11printStringPKc@plt
 383      E7800000 
 384              	.LVL44:
  89:test/ConsumerProducer_C_API_test.cpp ****     // getString(input, 30);
  90:test/ConsumerProducer_C_API_test.cpp ****     // n = stringToInt(input);
  91:test/ConsumerProducer_C_API_test.cpp ****     n = 30;
 385              		.loc 1 91 5 is_stmt 1
  92:test/ConsumerProducer_C_API_test.cpp **** 
  93:test/ConsumerProducer_C_API_test.cpp ****     printString("Broj proizvodjaca "); printInt(threadNum);
 386              		.loc 1 93 5
 387              		.loc 1 93 16 is_stmt 0
 388 0260 17050000 		lla	a0,.LC2
 388      13050500 
 389 0268 97000000 		call	_Z11printStringPKc@plt
 389      E7800000 
 390              	.LVL45:
 391              		.loc 1 93 40 is_stmt 1
 392              		.loc 1 93 48 is_stmt 0
 393 0270 13060000 		li	a2,0
 394 0274 9305A000 		li	a1,10
 395 0278 1305A000 		li	a0,10
GAS LISTING /tmp/ccT9dAhY.s 			page 11


 396 027c 97000000 		call	_Z8printIntiii@plt
 396      E7800000 
 397              	.LVL46:
  94:test/ConsumerProducer_C_API_test.cpp ****     printString(" i velicina bafera "); printInt(n);
 398              		.loc 1 94 5 is_stmt 1
 399              		.loc 1 94 16 is_stmt 0
 400 0284 17050000 		lla	a0,.LC3
 400      13050500 
 401 028c 97000000 		call	_Z11printStringPKc@plt
 401      E7800000 
 402              	.LVL47:
 403              		.loc 1 94 41 is_stmt 1
 404              		.loc 1 94 49 is_stmt 0
 405 0294 13060000 		li	a2,0
 406 0298 9305A000 		li	a1,10
 407 029c 1305E001 		li	a0,30
 408 02a0 97000000 		call	_Z8printIntiii@plt
 408      E7800000 
 409              	.LVL48:
  95:test/ConsumerProducer_C_API_test.cpp ****     printString(".\n");
 410              		.loc 1 95 5 is_stmt 1
 411              		.loc 1 95 16 is_stmt 0
 412 02a8 17050000 		lla	a0,.LC4
 412      13050500 
 413 02b0 97000000 		call	_Z11printStringPKc@plt
 413      E7800000 
 414              	.LVL49:
  96:test/ConsumerProducer_C_API_test.cpp **** 
  97:test/ConsumerProducer_C_API_test.cpp ****     if(threadNum > n) {
 415              		.loc 1 97 5 is_stmt 1
  98:test/ConsumerProducer_C_API_test.cpp ****         printString("Broj proizvodjaca ne sme biti manji od velicine bafera!\n");
  99:test/ConsumerProducer_C_API_test.cpp ****         return;
 100:test/ConsumerProducer_C_API_test.cpp ****     } else if (threadNum < 1) {
 416              		.loc 1 100 12
 101:test/ConsumerProducer_C_API_test.cpp ****         printString("Broj proizvodjaca mora biti veci od nula!\n");
 102:test/ConsumerProducer_C_API_test.cpp ****         return;
 103:test/ConsumerProducer_C_API_test.cpp ****     }
 104:test/ConsumerProducer_C_API_test.cpp **** 
 105:test/ConsumerProducer_C_API_test.cpp ****     Buffer *buffer = new Buffer(n);
 417              		.loc 1 105 5
 418              		.loc 1 105 34 is_stmt 0
 419 02b8 13058003 		li	a0,56
 420 02bc 97000000 		call	_Znwm@plt
 420      E7800000 
 421              	.LVL50:
 422              	.LEHE0:
 423 02c4 93090500 		mv	s3,a0
 424 02c8 9305E001 		li	a1,30
 425              	.LEHB1:
 426 02cc 97000000 		call	_ZN6BufferC1Ei@plt
 426      E7800000 
 427              	.LVL51:
 428              	.LEHE1:
 106:test/ConsumerProducer_C_API_test.cpp **** 
 107:test/ConsumerProducer_C_API_test.cpp ****     sem_open(&waitForAll, 0);
 429              		.loc 1 107 5 is_stmt 1 discriminator 3
 430              		.loc 1 107 13 is_stmt 0 discriminator 3
GAS LISTING /tmp/ccT9dAhY.s 			page 12


 431 02d4 93050000 		li	a1,0
 432 02d8 17050000 		lla	a0,.LANCHOR0+8
 432      13050500 
 433              	.LEHB2:
 434 02e0 97000000 		call	_Z8sem_openPP10KSemaphorej@plt
 434      E7800000 
 435              	.LVL52:
 108:test/ConsumerProducer_C_API_test.cpp **** 
 109:test/ConsumerProducer_C_API_test.cpp ****     thread_t threads[threadNum];
 436              		.loc 1 109 5 is_stmt 1 discriminator 3
 110:test/ConsumerProducer_C_API_test.cpp ****     thread_t consumerThread;
 437              		.loc 1 110 5 discriminator 3
 111:test/ConsumerProducer_C_API_test.cpp **** 
 112:test/ConsumerProducer_C_API_test.cpp ****     struct thread_data data[threadNum + 1];
 438              		.loc 1 112 5 discriminator 3
 439              		.loc 1 112 24 is_stmt 0 discriminator 3
 440 02e8 130101EF 		addi	sp,sp,-272
 441 02ec 13090100 		mv	s2,sp
 442              	.LVL53:
 113:test/ConsumerProducer_C_API_test.cpp **** 
 114:test/ConsumerProducer_C_API_test.cpp ****     data[threadNum].id = threadNum;
 443              		.loc 1 114 5 is_stmt 1 discriminator 3
 444              		.loc 1 114 24 is_stmt 0 discriminator 3
 445 02f0 9307A000 		li	a5,10
 446 02f4 2328F90E 		sw	a5,240(s2)
 115:test/ConsumerProducer_C_API_test.cpp ****     data[threadNum].buffer = buffer;
 447              		.loc 1 115 5 is_stmt 1 discriminator 3
 448              		.loc 1 115 28 is_stmt 0 discriminator 3
 449 02f8 233C390F 		sd	s3,248(s2)
 116:test/ConsumerProducer_C_API_test.cpp ****     data[threadNum].wait = waitForAll;
 450              		.loc 1 116 5 is_stmt 1 discriminator 3
 451              		.loc 1 116 26 is_stmt 0 discriminator 3
 452 02fc 97070000 		ld	a5,.LANCHOR0+8
 452      83B70700 
 453 0304 2330F910 		sd	a5,256(s2)
 117:test/ConsumerProducer_C_API_test.cpp ****     thread_create(&consumerThread, consumer, data + threadNum);
 454              		.loc 1 117 5 is_stmt 1 discriminator 3
 455              		.loc 1 117 18 is_stmt 0 discriminator 3
 456 0308 1306090F 		addi	a2,s2,240
 457 030c 97050000 		lla	a1,_ZL8consumerPv
 457      93850500 
 458 0314 130584FC 		addi	a0,s0,-56
 459 0318 97000000 		call	_Z13thread_createPP7KThreadPFvPvES2_@plt
 459      E7800000 
 460              	.LVL54:
 461              	.LBB5:
 118:test/ConsumerProducer_C_API_test.cpp **** 
 119:test/ConsumerProducer_C_API_test.cpp ****     for (int i = 0; i < threadNum; i++) {
 462              		.loc 1 119 14 discriminator 3
 463 0320 93040000 		li	s1,0
 464              	.L26:
 465              	.LVL55:
 466              		.loc 1 119 23 is_stmt 1 discriminator 1
 467 0324 93079000 		li	a5,9
 468 0328 63C89706 		bgt	s1,a5,.L24
 120:test/ConsumerProducer_C_API_test.cpp ****         data[i].id = i;
 469              		.loc 1 120 9
GAS LISTING /tmp/ccT9dAhY.s 			page 13


 470              		.loc 1 120 20 is_stmt 0
 471 032c 93971400 		slli	a5,s1,1
 472 0330 B3879700 		add	a5,a5,s1
 473 0334 93973700 		slli	a5,a5,3
 474 0338 B307F900 		add	a5,s2,a5
 475 033c 23A09700 		sw	s1,0(a5)
 121:test/ConsumerProducer_C_API_test.cpp ****         data[i].buffer = buffer;
 476              		.loc 1 121 9 is_stmt 1
 477              		.loc 1 121 24 is_stmt 0
 478 0340 23B43701 		sd	s3,8(a5)
 122:test/ConsumerProducer_C_API_test.cpp ****         data[i].wait = waitForAll;
 479              		.loc 1 122 9 is_stmt 1
 480              		.loc 1 122 22 is_stmt 0
 481 0344 17070000 		ld	a4,.LANCHOR0+8
 481      03370700 
 482 034c 23B8E700 		sd	a4,16(a5)
 123:test/ConsumerProducer_C_API_test.cpp **** 
 124:test/ConsumerProducer_C_API_test.cpp ****         thread_create(threads + i,
 483              		.loc 1 124 9 is_stmt 1
 484              		.loc 1 124 33 is_stmt 0
 485 0350 13870400 		mv	a4,s1
 486              		.loc 1 124 31
 487 0354 13953400 		slli	a0,s1,3
 488              		.loc 1 124 22
 489 0358 930784F7 		addi	a5,s0,-136
 490              	.LVL56:
 491 035c 3385A700 		add	a0,a5,a0
 492 0360 63569002 		blez	s1,.L31
 493 0364 97050000 		lla	a1,_ZL8producerPv
 493      93850500 
 494              	.L25:
 125:test/ConsumerProducer_C_API_test.cpp ****                       i > 0 ? producer : producerKeyboard,
 126:test/ConsumerProducer_C_API_test.cpp ****                       data + i);
 495              		.loc 1 126 28 discriminator 4
 496 036c 13161700 		slli	a2,a4,1
 497 0370 3306E600 		add	a2,a2,a4
 498 0374 13163600 		slli	a2,a2,3
 124:test/ConsumerProducer_C_API_test.cpp ****                       i > 0 ? producer : producerKeyboard,
 499              		.loc 1 124 22 discriminator 4
 500 0378 3306C900 		add	a2,s2,a2
 501 037c 97000000 		call	_Z13thread_createPP7KThreadPFvPvES2_@plt
 501      E7800000 
 502              	.LVL57:
 119:test/ConsumerProducer_C_API_test.cpp ****         data[i].id = i;
 503              		.loc 1 119 5 is_stmt 1 discriminator 4
 504 0384 9B841400 		addiw	s1,s1,1
 505              	.LVL58:
 506 0388 6FF0DFF9 		j	.L26
 507              	.LVL59:
 508              	.L31:
 124:test/ConsumerProducer_C_API_test.cpp ****                       i > 0 ? producer : producerKeyboard,
 509              		.loc 1 124 22 is_stmt 0
 510 038c 97050000 		lla	a1,_ZL16producerKeyboardPv
 510      93850500 
 511 0394 6FF09FFD 		j	.L25
 512              	.LVL60:
 513              	.L24:
GAS LISTING /tmp/ccT9dAhY.s 			page 14


 514              	.LBE5:
 127:test/ConsumerProducer_C_API_test.cpp ****     }
 128:test/ConsumerProducer_C_API_test.cpp **** 
 129:test/ConsumerProducer_C_API_test.cpp ****     thread_dispatch();
 515              		.loc 1 129 5 is_stmt 1
 516              		.loc 1 129 20 is_stmt 0
 517 0398 97000000 		call	_Z15thread_dispatchv@plt
 517      E7800000 
 518              	.LVL61:
 519              	.LBB6:
 130:test/ConsumerProducer_C_API_test.cpp **** 
 131:test/ConsumerProducer_C_API_test.cpp ****     for (int i = 0; i <= threadNum; i++) {
 520              		.loc 1 131 14
 521 03a0 93040000 		li	s1,0
 522              	.LVL62:
 523 03a4 6F008001 		j	.L28
 524              	.LVL63:
 525              	.L34:
 132:test/ConsumerProducer_C_API_test.cpp ****         sem_wait(waitForAll);
 526              		.loc 1 132 9 is_stmt 1
 527              		.loc 1 132 17 is_stmt 0
 528 03a8 17050000 		ld	a0,.LANCHOR0+8
 528      03350500 
 529 03b0 97000000 		call	_Z8sem_waitP10KSemaphore@plt
 529      E7800000 
 530              	.LVL64:
 131:test/ConsumerProducer_C_API_test.cpp ****         sem_wait(waitForAll);
 531              		.loc 1 131 5 is_stmt 1
 532 03b8 9B841400 		addiw	s1,s1,1
 533              	.LVL65:
 534              	.L28:
 131:test/ConsumerProducer_C_API_test.cpp ****         sem_wait(waitForAll);
 535              		.loc 1 131 23 discriminator 1
 536 03bc 9307A000 		li	a5,10
 537 03c0 E3D497FE 		ble	s1,a5,.L34
 538              	.LBE6:
 133:test/ConsumerProducer_C_API_test.cpp ****     }
 134:test/ConsumerProducer_C_API_test.cpp **** 
 135:test/ConsumerProducer_C_API_test.cpp ****     sem_close(waitForAll);
 539              		.loc 1 135 5
 540              		.loc 1 135 14 is_stmt 0
 541 03c4 17050000 		ld	a0,.LANCHOR0+8
 541      03350500 
 542 03cc 97000000 		call	_Z9sem_closeP10KSemaphore@plt
 542      E7800000 
 543              	.LVL66:
 136:test/ConsumerProducer_C_API_test.cpp **** 
 137:test/ConsumerProducer_C_API_test.cpp ****     delete buffer;
 544              		.loc 1 137 5 is_stmt 1
 545              		.loc 1 137 18 is_stmt 0
 546 03d4 638E0900 		beqz	s3,.L23
 547              		.loc 1 137 12 discriminator 1
 548 03d8 13850900 		mv	a0,s3
 549 03dc 97000000 		call	_ZN6BufferD1Ev@plt
 549      E7800000 
 550              	.LVL67:
 551 03e4 13850900 		mv	a0,s3
GAS LISTING /tmp/ccT9dAhY.s 			page 15


 552 03e8 97000000 		call	_ZdlPv@plt
 552      E7800000 
 553              	.LVL68:
 554              	.L23:
 138:test/ConsumerProducer_C_API_test.cpp **** 
 139:test/ConsumerProducer_C_API_test.cpp **** }
 555              		.loc 1 139 1
 556 03f0 130104F7 		addi	sp,s0,-144
 557              		.cfi_remember_state
 558              		.cfi_def_cfa 2, 144
 559              	.LVL69:
 560 03f4 83308108 		ld	ra,136(sp)
 561              		.cfi_restore 1
 562 03f8 03340108 		ld	s0,128(sp)
 563              		.cfi_restore 8
 564              	.LVL70:
 565 03fc 83348107 		ld	s1,120(sp)
 566              		.cfi_restore 9
 567              	.LVL71:
 568 0400 03390107 		ld	s2,112(sp)
 569              		.cfi_restore 18
 570              	.LVL72:
 571 0404 83398106 		ld	s3,104(sp)
 572              		.cfi_restore 19
 573              	.LVL73:
 574 0408 13010109 		addi	sp,sp,144
 575              		.cfi_def_cfa_offset 0
 576              	.LVL74:
 577 040c 67800000 		jr	ra
 578              	.LVL75:
 579              	.L32:
 580              		.cfi_restore_state
 581 0410 93040500 		mv	s1,a0
 105:test/ConsumerProducer_C_API_test.cpp **** 
 582              		.loc 1 105 34
 583 0414 13850900 		mv	a0,s3
 584 0418 97000000 		call	_ZdlPv@plt
 584      E7800000 
 585              	.LVL76:
 586 0420 13850400 		mv	a0,s1
 587 0424 97000000 		call	_Unwind_Resume@plt
 587      E7800000 
 588              	.LVL77:
 589              	.LEHE2:
 590              		.cfi_endproc
 591              	.LFE3:
 592              		.globl	__gxx_personality_v0
 593              		.section	.gcc_except_table,"a",@progbits
 594              	.LLSDA3:
 595 0000 FF       		.byte	0xff
 596 0001 FF       		.byte	0xff
 597 0002 03       		.byte	0x3
 598 0003 27       		.byte	0x27
 599 0004 00000000 		.4byte	.LEHB0-.LFB3
 600 0008 00000000 		.4byte	.LEHE0-.LEHB0
 601 000c 00000000 		.4byte	0
 602 0010 00       		.byte	0
GAS LISTING /tmp/ccT9dAhY.s 			page 16


 603 0011 00000000 		.4byte	.LEHB1-.LFB3
 604 0015 00000000 		.4byte	.LEHE1-.LEHB1
 605 0019 00000000 		.4byte	.L32-.LFB3
 606 001d 00       		.byte	0
 607 001e 00000000 		.4byte	.LEHB2-.LFB3
 608 0022 00000000 		.4byte	.LEHE2-.LEHB2
 609 0026 00000000 		.4byte	0
 610 002a 00       		.byte	0
 611              		.text
 613              		.bss
 614              		.align	3
 615              		.set	.LANCHOR0,. + 0
 618              	_ZL9threadEnd:
 619 0000 00000000 		.zero	4
 620 0004 00000000 		.zero	4
 623              	_ZL10waitForAll:
 624 0008 00000000 		.zero	8
 624      00000000 
 625              		.text
 626              	.Letext0:
 627              		.file 2 "test/../h/../lib/hw.h"
 628              		.file 3 "test/../h/syscall_c.hpp"
 629              		.file 4 "test/buffer.hpp"
 630              		.file 5 "test/printing.hpp"
 2634              		.align	3
 2637              	DW.ref.__gxx_personality_v0:
 2638 0000 00000000 		.dword	__gxx_personality_v0
 2638      00000000 
 2639              		.ident	"GCC: (Ubuntu 9.4.0-1ubuntu1~20.04) 9.4.0"
 2640              		.section	.note.GNU-stack,"",@progbits
GAS LISTING /tmp/ccT9dAhY.s 			page 17


DEFINED SYMBOLS
                            *ABS*:0000000000000000 ConsumerProducer_C_API_test.cpp
     /tmp/ccT9dAhY.s:8      .text:0000000000000000 _ZL16producerKeyboardPv
     /tmp/ccT9dAhY.s:12     .text:0000000000000000 .L0 
     /tmp/ccT9dAhY.s:14     .text:0000000000000000 .L0 
     /tmp/ccT9dAhY.s:15     .text:0000000000000004 .L0 
     /tmp/ccT9dAhY.s:20     .text:0000000000000014 .L0 
     /tmp/ccT9dAhY.s:21     .text:0000000000000014 .L0 
     /tmp/ccT9dAhY.s:22     .text:0000000000000014 .L0 
     /tmp/ccT9dAhY.s:23     .text:0000000000000014 .L0 
     /tmp/ccT9dAhY.s:25     .text:0000000000000018 .L0 
     /tmp/ccT9dAhY.s:29     .text:000000000000001c .L0 
     /tmp/ccT9dAhY.s:30     .text:000000000000001c .L0 
     /tmp/ccT9dAhY.s:31     .text:000000000000001c .L0 
     /tmp/ccT9dAhY.s:32     .text:000000000000001c .L0 
     /tmp/ccT9dAhY.s:37     .text:0000000000000024 .L0 
     /tmp/ccT9dAhY.s:38     .text:0000000000000024 .L0 
     /tmp/ccT9dAhY.s:42     .text:000000000000002c .L0 
     /tmp/ccT9dAhY.s:43     .text:000000000000002c .L0 
     /tmp/ccT9dAhY.s:44     .text:000000000000002c .L0 
     /tmp/ccT9dAhY.s:47     .text:0000000000000034 .L0 
     /tmp/ccT9dAhY.s:50     .text:0000000000000038 .L0 
     /tmp/ccT9dAhY.s:53     .text:0000000000000040 .L0 
     /tmp/ccT9dAhY.s:54     .text:0000000000000040 .L0 
     /tmp/ccT9dAhY.s:58     .text:000000000000004c .L0 
     /tmp/ccT9dAhY.s:59     .text:000000000000004c .L0 
     /tmp/ccT9dAhY.s:63     .text:0000000000000054 .L0 
     /tmp/ccT9dAhY.s:64     .text:0000000000000054 .L0 
     /tmp/ccT9dAhY.s:66     .text:0000000000000058 .L0 
     /tmp/ccT9dAhY.s:70     .text:0000000000000064 .L0 
     /tmp/ccT9dAhY.s:72     .text:0000000000000068 .L0 
     /tmp/ccT9dAhY.s:77     .text:0000000000000070 .L0 
     /tmp/ccT9dAhY.s:78     .text:0000000000000070 .L0 
     /tmp/ccT9dAhY.s:81     .text:000000000000007c .L0 
     /tmp/ccT9dAhY.s:82     .text:000000000000007c .L0 
     /tmp/ccT9dAhY.s:89     .text:000000000000008c .L0 
     /tmp/ccT9dAhY.s:90     .text:000000000000008c .L0 
     /tmp/ccT9dAhY.s:94     .text:0000000000000098 .L0 
     /tmp/ccT9dAhY.s:95     .text:000000000000009c .L0 
     /tmp/ccT9dAhY.s:97     .text:00000000000000a0 .L0 
     /tmp/ccT9dAhY.s:98     .text:00000000000000a0 .L0 
     /tmp/ccT9dAhY.s:100    .text:00000000000000a4 .L0 
     /tmp/ccT9dAhY.s:103    .text:00000000000000a8 .L0 
     /tmp/ccT9dAhY.s:106    .text:00000000000000ac .L0 
     /tmp/ccT9dAhY.s:108    .text:00000000000000b0 .L0 
     /tmp/ccT9dAhY.s:113    .text:00000000000000b0 _ZL8producerPv
     /tmp/ccT9dAhY.s:116    .text:00000000000000b0 .L0 
     /tmp/ccT9dAhY.s:118    .text:00000000000000b0 .L0 
     /tmp/ccT9dAhY.s:119    .text:00000000000000b4 .L0 
     /tmp/ccT9dAhY.s:124    .text:00000000000000c4 .L0 
     /tmp/ccT9dAhY.s:125    .text:00000000000000c4 .L0 
     /tmp/ccT9dAhY.s:126    .text:00000000000000c4 .L0 
     /tmp/ccT9dAhY.s:127    .text:00000000000000c4 .L0 
     /tmp/ccT9dAhY.s:129    .text:00000000000000c8 .L0 
     /tmp/ccT9dAhY.s:133    .text:00000000000000cc .L0 
     /tmp/ccT9dAhY.s:134    .text:00000000000000cc .L0 
     /tmp/ccT9dAhY.s:135    .text:00000000000000cc .L0 
GAS LISTING /tmp/ccT9dAhY.s 			page 18


     /tmp/ccT9dAhY.s:140    .text:00000000000000d4 .L0 
     /tmp/ccT9dAhY.s:141    .text:00000000000000d4 .L0 
     /tmp/ccT9dAhY.s:145    .text:00000000000000dc .L0 
     /tmp/ccT9dAhY.s:146    .text:00000000000000dc .L0 
     /tmp/ccT9dAhY.s:149    .text:00000000000000e8 .L0 
     /tmp/ccT9dAhY.s:150    .text:00000000000000e8 .L0 
     /tmp/ccT9dAhY.s:152    .text:00000000000000ec .L0 
     /tmp/ccT9dAhY.s:157    .text:00000000000000fc .L0 
     /tmp/ccT9dAhY.s:158    .text:00000000000000fc .L0 
     /tmp/ccT9dAhY.s:162    .text:0000000000000104 .L0 
     /tmp/ccT9dAhY.s:163    .text:0000000000000104 .L0 
     /tmp/ccT9dAhY.s:165    .text:0000000000000108 .L0 
     /tmp/ccT9dAhY.s:169    .text:0000000000000114 .L0 
     /tmp/ccT9dAhY.s:171    .text:0000000000000118 .L0 
     /tmp/ccT9dAhY.s:176    .text:0000000000000120 .L0 
     /tmp/ccT9dAhY.s:177    .text:0000000000000120 .L0 
     /tmp/ccT9dAhY.s:181    .text:000000000000012c .L0 
     /tmp/ccT9dAhY.s:182    .text:0000000000000130 .L0 
     /tmp/ccT9dAhY.s:184    .text:0000000000000134 .L0 
     /tmp/ccT9dAhY.s:185    .text:0000000000000134 .L0 
     /tmp/ccT9dAhY.s:187    .text:0000000000000138 .L0 
     /tmp/ccT9dAhY.s:190    .text:000000000000013c .L0 
     /tmp/ccT9dAhY.s:193    .text:0000000000000140 .L0 
     /tmp/ccT9dAhY.s:195    .text:0000000000000144 .L0 
     /tmp/ccT9dAhY.s:200    .text:0000000000000144 _ZL8consumerPv
     /tmp/ccT9dAhY.s:203    .text:0000000000000144 .L0 
     /tmp/ccT9dAhY.s:205    .text:0000000000000144 .L0 
     /tmp/ccT9dAhY.s:206    .text:0000000000000148 .L0 
     /tmp/ccT9dAhY.s:212    .text:000000000000015c .L0 
     /tmp/ccT9dAhY.s:213    .text:000000000000015c .L0 
     /tmp/ccT9dAhY.s:214    .text:000000000000015c .L0 
     /tmp/ccT9dAhY.s:215    .text:000000000000015c .L0 
     /tmp/ccT9dAhY.s:216    .text:000000000000015c .L0 
     /tmp/ccT9dAhY.s:218    .text:0000000000000160 .L0 
     /tmp/ccT9dAhY.s:222    .text:0000000000000164 .L0 
     /tmp/ccT9dAhY.s:223    .text:0000000000000164 .L0 
     /tmp/ccT9dAhY.s:224    .text:0000000000000164 .L0 
     /tmp/ccT9dAhY.s:230    .text:000000000000016c .L0 
     /tmp/ccT9dAhY.s:231    .text:000000000000016c .L0 
     /tmp/ccT9dAhY.s:237    .text:0000000000000178 .L0 
     /tmp/ccT9dAhY.s:238    .text:0000000000000178 .L0 
     /tmp/ccT9dAhY.s:244    .text:0000000000000184 .L0 
     /tmp/ccT9dAhY.s:245    .text:0000000000000184 .L0 
     /tmp/ccT9dAhY.s:249    .text:0000000000000190 .L0 
     /tmp/ccT9dAhY.s:250    .text:0000000000000190 .L0 
     /tmp/ccT9dAhY.s:254    .text:000000000000019c .L0 
     /tmp/ccT9dAhY.s:255    .text:000000000000019c .L0 
     /tmp/ccT9dAhY.s:259    .text:00000000000001a4 .L0 
     /tmp/ccT9dAhY.s:260    .text:00000000000001a4 .L0 
     /tmp/ccT9dAhY.s:265    .text:00000000000001b0 .L0 
     /tmp/ccT9dAhY.s:266    .text:00000000000001b0 .L0 
     /tmp/ccT9dAhY.s:268    .text:00000000000001b4 .L0 
     /tmp/ccT9dAhY.s:271    .text:00000000000001bc .L0 
     /tmp/ccT9dAhY.s:273    .text:00000000000001c0 .L0 
     /tmp/ccT9dAhY.s:276    .text:00000000000001c4 .L0 
     /tmp/ccT9dAhY.s:277    .text:00000000000001c4 .L0 
     /tmp/ccT9dAhY.s:281    .text:00000000000001cc .L0 
GAS LISTING /tmp/ccT9dAhY.s 			page 19


     /tmp/ccT9dAhY.s:287    .text:00000000000001d4 .L0 
     /tmp/ccT9dAhY.s:288    .text:00000000000001d4 .L0 
     /tmp/ccT9dAhY.s:292    .text:00000000000001e0 .L0 
     /tmp/ccT9dAhY.s:293    .text:00000000000001e0 .L0 
     /tmp/ccT9dAhY.s:300    .text:00000000000001ec .L0 
     /tmp/ccT9dAhY.s:301    .text:00000000000001ec .L0 
     /tmp/ccT9dAhY.s:302    .text:00000000000001ec .L0 
     /tmp/ccT9dAhY.s:306    .text:00000000000001f8 .L0 
     /tmp/ccT9dAhY.s:308    .text:00000000000001fc .L0 
     /tmp/ccT9dAhY.s:309    .text:00000000000001fc .L0 
     /tmp/ccT9dAhY.s:313    .text:0000000000000208 .L0 
     /tmp/ccT9dAhY.s:314    .text:000000000000020c .L0 
     /tmp/ccT9dAhY.s:316    .text:0000000000000210 .L0 
     /tmp/ccT9dAhY.s:317    .text:0000000000000210 .L0 
     /tmp/ccT9dAhY.s:319    .text:0000000000000214 .L0 
     /tmp/ccT9dAhY.s:321    .text:0000000000000218 .L0 
     /tmp/ccT9dAhY.s:324    .text:000000000000021c .L0 
     /tmp/ccT9dAhY.s:327    .text:0000000000000220 .L0 
     /tmp/ccT9dAhY.s:329    .text:0000000000000224 .L0 
     /tmp/ccT9dAhY.s:352    .text:0000000000000224 _Z22producerConsumer_C_APIv
     /tmp/ccT9dAhY.s:355    .text:0000000000000224 .L0 
     /tmp/ccT9dAhY.s:2637   .data.rel.local.DW.ref.__gxx_personality_v0:0000000000000000 DW.ref.__gxx_personality_v0
     /tmp/ccT9dAhY.s:358    .text:0000000000000224 .L0 
     /tmp/ccT9dAhY.s:359    .text:0000000000000228 .L0 
     /tmp/ccT9dAhY.s:365    .text:000000000000023c .L0 
     /tmp/ccT9dAhY.s:366    .text:000000000000023c .L0 
     /tmp/ccT9dAhY.s:367    .text:000000000000023c .L0 
     /tmp/ccT9dAhY.s:368    .text:000000000000023c .L0 
     /tmp/ccT9dAhY.s:369    .text:000000000000023c .L0 
     /tmp/ccT9dAhY.s:371    .text:0000000000000240 .L0 
     /tmp/ccT9dAhY.s:373    .text:0000000000000240 .L0 
     /tmp/ccT9dAhY.s:374    .text:0000000000000240 .L0 
     /tmp/ccT9dAhY.s:375    .text:0000000000000240 .L0 
     /tmp/ccT9dAhY.s:380    .text:0000000000000250 .L0 
     /tmp/ccT9dAhY.s:381    .text:0000000000000250 .L0 
     /tmp/ccT9dAhY.s:382    .text:0000000000000250 .L0 
     /tmp/ccT9dAhY.s:386    .text:0000000000000260 .L0 
     /tmp/ccT9dAhY.s:387    .text:0000000000000260 .L0 
     /tmp/ccT9dAhY.s:388    .text:0000000000000260 .L0 
     /tmp/ccT9dAhY.s:392    .text:0000000000000270 .L0 
     /tmp/ccT9dAhY.s:393    .text:0000000000000270 .L0 
     /tmp/ccT9dAhY.s:399    .text:0000000000000284 .L0 
     /tmp/ccT9dAhY.s:400    .text:0000000000000284 .L0 
     /tmp/ccT9dAhY.s:404    .text:0000000000000294 .L0 
     /tmp/ccT9dAhY.s:405    .text:0000000000000294 .L0 
     /tmp/ccT9dAhY.s:411    .text:00000000000002a8 .L0 
     /tmp/ccT9dAhY.s:412    .text:00000000000002a8 .L0 
     /tmp/ccT9dAhY.s:416    .text:00000000000002b8 .L0 
     /tmp/ccT9dAhY.s:417    .text:00000000000002b8 .L0 
     /tmp/ccT9dAhY.s:418    .text:00000000000002b8 .L0 
     /tmp/ccT9dAhY.s:419    .text:00000000000002b8 .L0 
     /tmp/ccT9dAhY.s:430    .text:00000000000002d4 .L0 
     /tmp/ccT9dAhY.s:431    .text:00000000000002d4 .L0 
     /tmp/ccT9dAhY.s:437    .text:00000000000002e8 .L0 
     /tmp/ccT9dAhY.s:438    .text:00000000000002e8 .L0 
     /tmp/ccT9dAhY.s:439    .text:00000000000002e8 .L0 
     /tmp/ccT9dAhY.s:440    .text:00000000000002e8 .L0 
GAS LISTING /tmp/ccT9dAhY.s 			page 20


     /tmp/ccT9dAhY.s:444    .text:00000000000002f0 .L0 
     /tmp/ccT9dAhY.s:445    .text:00000000000002f0 .L0 
     /tmp/ccT9dAhY.s:448    .text:00000000000002f8 .L0 
     /tmp/ccT9dAhY.s:449    .text:00000000000002f8 .L0 
     /tmp/ccT9dAhY.s:451    .text:00000000000002fc .L0 
     /tmp/ccT9dAhY.s:452    .text:00000000000002fc .L0 
     /tmp/ccT9dAhY.s:455    .text:0000000000000308 .L0 
     /tmp/ccT9dAhY.s:456    .text:0000000000000308 .L0 
     /tmp/ccT9dAhY.s:463    .text:0000000000000320 .L0 
     /tmp/ccT9dAhY.s:467    .text:0000000000000324 .L0 
     /tmp/ccT9dAhY.s:470    .text:000000000000032c .L0 
     /tmp/ccT9dAhY.s:471    .text:000000000000032c .L0 
     /tmp/ccT9dAhY.s:477    .text:0000000000000340 .L0 
     /tmp/ccT9dAhY.s:478    .text:0000000000000340 .L0 
     /tmp/ccT9dAhY.s:480    .text:0000000000000344 .L0 
     /tmp/ccT9dAhY.s:481    .text:0000000000000344 .L0 
     /tmp/ccT9dAhY.s:484    .text:0000000000000350 .L0 
     /tmp/ccT9dAhY.s:485    .text:0000000000000350 .L0 
     /tmp/ccT9dAhY.s:487    .text:0000000000000354 .L0 
     /tmp/ccT9dAhY.s:489    .text:0000000000000358 .L0 
     /tmp/ccT9dAhY.s:496    .text:000000000000036c .L0 
     /tmp/ccT9dAhY.s:500    .text:0000000000000378 .L0 
     /tmp/ccT9dAhY.s:504    .text:0000000000000384 .L0 
     /tmp/ccT9dAhY.s:510    .text:000000000000038c .L0 
     /tmp/ccT9dAhY.s:516    .text:0000000000000398 .L0 
     /tmp/ccT9dAhY.s:517    .text:0000000000000398 .L0 
     /tmp/ccT9dAhY.s:521    .text:00000000000003a0 .L0 
     /tmp/ccT9dAhY.s:527    .text:00000000000003a8 .L0 
     /tmp/ccT9dAhY.s:528    .text:00000000000003a8 .L0 
     /tmp/ccT9dAhY.s:532    .text:00000000000003b8 .L0 
     /tmp/ccT9dAhY.s:536    .text:00000000000003bc .L0 
     /tmp/ccT9dAhY.s:540    .text:00000000000003c4 .L0 
     /tmp/ccT9dAhY.s:541    .text:00000000000003c4 .L0 
     /tmp/ccT9dAhY.s:545    .text:00000000000003d4 .L0 
     /tmp/ccT9dAhY.s:546    .text:00000000000003d4 .L0 
     /tmp/ccT9dAhY.s:548    .text:00000000000003d8 .L0 
     /tmp/ccT9dAhY.s:556    .text:00000000000003f0 .L0 
     /tmp/ccT9dAhY.s:557    .text:00000000000003f4 .L0 
     /tmp/ccT9dAhY.s:558    .text:00000000000003f4 .L0 
     /tmp/ccT9dAhY.s:561    .text:00000000000003f8 .L0 
     /tmp/ccT9dAhY.s:563    .text:00000000000003fc .L0 
     /tmp/ccT9dAhY.s:566    .text:0000000000000400 .L0 
     /tmp/ccT9dAhY.s:569    .text:0000000000000404 .L0 
     /tmp/ccT9dAhY.s:572    .text:0000000000000408 .L0 
     /tmp/ccT9dAhY.s:575    .text:000000000000040c .L0 
     /tmp/ccT9dAhY.s:580    .text:0000000000000410 .L0 
     /tmp/ccT9dAhY.s:583    .text:0000000000000414 .L0 
     /tmp/ccT9dAhY.s:590    .text:000000000000042c .L0 
     /tmp/ccT9dAhY.s:615    .bss:0000000000000000 .LANCHOR0
     /tmp/ccT9dAhY.s:618    .bss:0000000000000000 _ZL9threadEnd
     /tmp/ccT9dAhY.s:623    .bss:0000000000000008 _ZL10waitForAll
     /tmp/ccT9dAhY.s:631    .text:000000000000042c .L0 
     /tmp/ccT9dAhY.s:79     .text:0000000000000074 .L0 
     /tmp/ccT9dAhY.s:146    .text:00000000000000dc .L0 
     /tmp/ccT9dAhY.s:245    .text:0000000000000184 .L0 
     /tmp/ccT9dAhY.s:334    .rodata.str1.8:0000000000000000 .LC0
     /tmp/ccT9dAhY.s:375    .text:0000000000000240 .L0 
GAS LISTING /tmp/ccT9dAhY.s 			page 21


     /tmp/ccT9dAhY.s:337    .rodata.str1.8:0000000000000020 .LC1
     /tmp/ccT9dAhY.s:382    .text:0000000000000250 .L0 
     /tmp/ccT9dAhY.s:340    .rodata.str1.8:0000000000000040 .LC2
     /tmp/ccT9dAhY.s:388    .text:0000000000000260 .L0 
     /tmp/ccT9dAhY.s:343    .rodata.str1.8:0000000000000058 .LC3
     /tmp/ccT9dAhY.s:400    .text:0000000000000284 .L0 
     /tmp/ccT9dAhY.s:346    .rodata.str1.8:0000000000000070 .LC4
     /tmp/ccT9dAhY.s:412    .text:00000000000002a8 .L0 
     /tmp/ccT9dAhY.s:432    .text:00000000000002d8 .L0 
     /tmp/ccT9dAhY.s:452    .text:00000000000002fc .L0 
     /tmp/ccT9dAhY.s:457    .text:000000000000030c .L0 
     /tmp/ccT9dAhY.s:481    .text:0000000000000344 .L0 
     /tmp/ccT9dAhY.s:493    .text:0000000000000364 .L0 
     /tmp/ccT9dAhY.s:510    .text:000000000000038c .L0 
     /tmp/ccT9dAhY.s:528    .text:00000000000003a8 .L0 
     /tmp/ccT9dAhY.s:541    .text:00000000000003c4 .L0 
     /tmp/ccT9dAhY.s:40     .text:000000000000002c .L2
     /tmp/ccT9dAhY.s:75     .text:0000000000000070 .L3
     /tmp/ccT9dAhY.s:35     .text:0000000000000024 .L6
     /tmp/ccT9dAhY.s:143    .text:00000000000000dc .L8
     /tmp/ccT9dAhY.s:174    .text:0000000000000120 .L9
     /tmp/ccT9dAhY.s:138    .text:00000000000000d4 .L12
     /tmp/ccT9dAhY.s:241    .text:0000000000000184 .L14
     /tmp/ccT9dAhY.s:274    .text:00000000000001c4 .L16
     /tmp/ccT9dAhY.s:297    .text:00000000000001ec .L15
     /tmp/ccT9dAhY.s:227    .text:000000000000016c .L20
     /tmp/ccT9dAhY.s:235    .text:0000000000000178 .L21
     /tmp/ccT9dAhY.s:283    .text:00000000000001d4 .L22
     /tmp/ccT9dAhY.s:513    .text:0000000000000398 .L24
     /tmp/ccT9dAhY.s:508    .text:000000000000038c .L31
     /tmp/ccT9dAhY.s:464    .text:0000000000000324 .L26
     /tmp/ccT9dAhY.s:494    .text:000000000000036c .L25
     /tmp/ccT9dAhY.s:534    .text:00000000000003bc .L28
     /tmp/ccT9dAhY.s:525    .text:00000000000003a8 .L34
     /tmp/ccT9dAhY.s:554    .text:00000000000003f0 .L23
     /tmp/ccT9dAhY.s:376    .text:0000000000000248 .LEHB0
     /tmp/ccT9dAhY.s:353    .text:0000000000000224 .LFB3
     /tmp/ccT9dAhY.s:422    .text:00000000000002c4 .LEHE0
     /tmp/ccT9dAhY.s:425    .text:00000000000002cc .LEHB1
     /tmp/ccT9dAhY.s:428    .text:00000000000002d4 .LEHE1
     /tmp/ccT9dAhY.s:579    .text:0000000000000410 .L32
     /tmp/ccT9dAhY.s:433    .text:00000000000002e0 .LEHB2
     /tmp/ccT9dAhY.s:589    .text:000000000000042c .LEHE2
     /tmp/ccT9dAhY.s:1557   .debug_abbrev:0000000000000000 .Ldebug_abbrev0
     /tmp/ccT9dAhY.s:2547   .debug_str:0000000000000206 .LASF71
     /tmp/ccT9dAhY.s:2595   .debug_str:0000000000000407 .LASF72
     /tmp/ccT9dAhY.s:2577   .debug_str:000000000000037e .LASF73
     /tmp/ccT9dAhY.s:5      .text:0000000000000000 .Ltext0
     /tmp/ccT9dAhY.s:626    .text:000000000000042c .Letext0
     /tmp/ccT9dAhY.s:2473   .debug_line:0000000000000000 .Ldebug_line0
     /tmp/ccT9dAhY.s:2561   .debug_str:000000000000030a .LASF0
     /tmp/ccT9dAhY.s:2533   .debug_str:0000000000000188 .LASF1
     /tmp/ccT9dAhY.s:2523   .debug_str:0000000000000150 .LASF2
     /tmp/ccT9dAhY.s:2495   .debug_str:0000000000000083 .LASF4
     /tmp/ccT9dAhY.s:2531   .debug_str:0000000000000176 .LASF3
     /tmp/ccT9dAhY.s:2479   .debug_str:0000000000000018 .LASF5
     /tmp/ccT9dAhY.s:2477   .debug_str:0000000000000005 .LASF6
GAS LISTING /tmp/ccT9dAhY.s 			page 22


     /tmp/ccT9dAhY.s:2513   .debug_str:00000000000000fa .LASF7
     /tmp/ccT9dAhY.s:2571   .debug_str:000000000000034f .LASF8
     /tmp/ccT9dAhY.s:2491   .debug_str:000000000000006c .LASF9
     /tmp/ccT9dAhY.s:2629   .debug_str:00000000000004fd .LASF10
     /tmp/ccT9dAhY.s:2517   .debug_str:0000000000000119 .LASF11
     /tmp/ccT9dAhY.s:2605   .debug_str:0000000000000456 .LASF12
     /tmp/ccT9dAhY.s:2569   .debug_str:000000000000033f .LASF13
     /tmp/ccT9dAhY.s:2539   .debug_str:00000000000001cf .LASF14
     /tmp/ccT9dAhY.s:2505   .debug_str:00000000000000c2 .LASF15
     /tmp/ccT9dAhY.s:2573   .debug_str:000000000000035f .LASF16
     /tmp/ccT9dAhY.s:2575   .debug_str:0000000000000375 .LASF17
     /tmp/ccT9dAhY.s:2621   .debug_str:00000000000004ba .LASF19
     /tmp/ccT9dAhY.s:2487   .debug_str:000000000000004e .LASF18
     /tmp/ccT9dAhY.s:2509   .debug_str:00000000000000e1 .LASF20
     /tmp/ccT9dAhY.s:2583   .debug_str:00000000000003bb .LASF28
     /tmp/ccT9dAhY.s:2593   .debug_str:0000000000000400 .LASF21
     /tmp/ccT9dAhY.s:2555   .debug_str:00000000000002f1 .LASF22
     /tmp/ccT9dAhY.s:2597   .debug_str:000000000000042c .LASF23
     /tmp/ccT9dAhY.s:2537   .debug_str:00000000000001c0 .LASF24
     /tmp/ccT9dAhY.s:2511   .debug_str:00000000000000ec .LASF25
     /tmp/ccT9dAhY.s:2563   .debug_str:0000000000000317 .LASF26
     /tmp/ccT9dAhY.s:2623   .debug_str:00000000000004c2 .LASF27
     /tmp/ccT9dAhY.s:2611   .debug_str:0000000000000489 .LASF30
     /tmp/ccT9dAhY.s:2599   .debug_str:0000000000000431 .LASF29
     /tmp/ccT9dAhY.s:2497   .debug_str:000000000000008a .LASF31
     /tmp/ccT9dAhY.s:2519   .debug_str:0000000000000128 .LASF74
     /tmp/ccT9dAhY.s:2591   .debug_str:00000000000003ef .LASF75
     /tmp/ccT9dAhY.s:2501   .debug_str:00000000000000b2 .LASF32
     /tmp/ccT9dAhY.s:2541   .debug_str:00000000000001db .LASF33
     /tmp/ccT9dAhY.s:2549   .debug_str:00000000000002ca .LASF34
     /tmp/ccT9dAhY.s:2515   .debug_str:000000000000010d .LASF76
     /tmp/ccT9dAhY.s:2557   .debug_str:00000000000002f6 .LASF35
     /tmp/ccT9dAhY.s:2589   .debug_str:00000000000003e5 .LASF36
     /tmp/ccT9dAhY.s:2521   .debug_str:0000000000000139 .LASF37
     /tmp/ccT9dAhY.s:2625   .debug_str:00000000000004cc .LASF77
     /tmp/ccT9dAhY.s:591    .text:000000000000042c .LFE3
     /tmp/ccT9dAhY.s:2613   .debug_str:0000000000000498 .LASF38
     /tmp/ccT9dAhY.s:2152   .debug_loc:0000000000000000 .LLST14
     /tmp/ccT9dAhY.s:2587   .debug_str:00000000000003dd .LASF39
     /tmp/ccT9dAhY.s:2159   .debug_loc:0000000000000023 .LLST15
     /tmp/ccT9dAhY.s:2603   .debug_str:0000000000000447 .LASF40
     /tmp/ccT9dAhY.s:2485   .debug_str:0000000000000049 .LASF41
     /tmp/ccT9dAhY.s:2202   .debug_loc:00000000000000d8 .LLST16
     /tmp/ccT9dAhY.s:461    .text:0000000000000320 .LBB5
     /tmp/ccT9dAhY.s:514    .text:0000000000000398 .LBE5
     /tmp/ccT9dAhY.s:2225   .debug_loc:000000000000013a .LLST17
     /tmp/ccT9dAhY.s:502    .text:0000000000000384 .LVL57
     /tmp/ccT9dAhY.s:519    .text:00000000000003a0 .LBB6
     /tmp/ccT9dAhY.s:538    .text:00000000000003c4 .LBE6
     /tmp/ccT9dAhY.s:2236   .debug_loc:0000000000000170 .LLST18
     /tmp/ccT9dAhY.s:530    .text:00000000000003b8 .LVL64
     /tmp/ccT9dAhY.s:378    .text:0000000000000250 .LVL43
     /tmp/ccT9dAhY.s:384    .text:0000000000000260 .LVL44
     /tmp/ccT9dAhY.s:390    .text:0000000000000270 .LVL45
     /tmp/ccT9dAhY.s:397    .text:0000000000000284 .LVL46
     /tmp/ccT9dAhY.s:402    .text:0000000000000294 .LVL47
     /tmp/ccT9dAhY.s:409    .text:00000000000002a8 .LVL48
GAS LISTING /tmp/ccT9dAhY.s 			page 23


     /tmp/ccT9dAhY.s:414    .text:00000000000002b8 .LVL49
     /tmp/ccT9dAhY.s:421    .text:00000000000002c4 .LVL50
     /tmp/ccT9dAhY.s:427    .text:00000000000002d4 .LVL51
     /tmp/ccT9dAhY.s:435    .text:00000000000002e8 .LVL52
     /tmp/ccT9dAhY.s:460    .text:0000000000000320 .LVL54
     /tmp/ccT9dAhY.s:518    .text:00000000000003a0 .LVL61
     /tmp/ccT9dAhY.s:543    .text:00000000000003d4 .LVL66
     /tmp/ccT9dAhY.s:550    .text:00000000000003e4 .LVL67
     /tmp/ccT9dAhY.s:553    .text:00000000000003f0 .LVL68
     /tmp/ccT9dAhY.s:585    .text:0000000000000420 .LVL76
     /tmp/ccT9dAhY.s:588    .text:000000000000042c .LVL77
     /tmp/ccT9dAhY.s:2503   .debug_str:00000000000000b9 .LASF42
     /tmp/ccT9dAhY.s:201    .text:0000000000000144 .LFB2
     /tmp/ccT9dAhY.s:330    .text:0000000000000224 .LFE2
     /tmp/ccT9dAhY.s:2243   .debug_loc:0000000000000193 .LLST7
     /tmp/ccT9dAhY.s:2261   .debug_loc:00000000000001df .LLST8
     /tmp/ccT9dAhY.s:2279   .debug_loc:000000000000022b .LLST9
     /tmp/ccT9dAhY.s:2465   .debug_ranges:0000000000000000 .Ldebug_ranges0
     /tmp/ccT9dAhY.s:2303   .debug_loc:000000000000029b .LLST10
     /tmp/ccT9dAhY.s:232    .text:0000000000000174 .LVL28
     /tmp/ccT9dAhY.s:240    .text:0000000000000184 .LVL30
     /tmp/ccT9dAhY.s:252    .text:000000000000019c .LVL31
     /tmp/ccT9dAhY.s:263    .text:00000000000001b0 .LVL34
     /tmp/ccT9dAhY.s:285    .text:00000000000001d4 .LBB4
     /tmp/ccT9dAhY.s:298    .text:00000000000001ec .LBE4
     /tmp/ccT9dAhY.s:2310   .debug_loc:00000000000002be .LLST11
     /tmp/ccT9dAhY.s:290    .text:00000000000001e0 .LVL36
     /tmp/ccT9dAhY.s:296    .text:00000000000001ec .LVL38
     /tmp/ccT9dAhY.s:304    .text:00000000000001f8 .LVL39
     /tmp/ccT9dAhY.s:311    .text:0000000000000208 .LVL40
     /tmp/ccT9dAhY.s:2615   .debug_str:00000000000004a2 .LASF43
     /tmp/ccT9dAhY.s:114    .text:00000000000000b0 .LFB1
     /tmp/ccT9dAhY.s:196    .text:0000000000000144 .LFE1
     /tmp/ccT9dAhY.s:2317   .debug_loc:00000000000002e1 .LLST4
     /tmp/ccT9dAhY.s:2335   .debug_loc:000000000000032d .LLST5
     /tmp/ccT9dAhY.s:2353   .debug_loc:0000000000000379 .LLST6
     /tmp/ccT9dAhY.s:142    .text:00000000000000dc .LVL18
     /tmp/ccT9dAhY.s:155    .text:00000000000000fc .LVL19
     /tmp/ccT9dAhY.s:179    .text:000000000000012c .LVL22
     /tmp/ccT9dAhY.s:2565   .debug_str:0000000000000321 .LASF44
     /tmp/ccT9dAhY.s:9      .text:0000000000000000 .LFB0
     /tmp/ccT9dAhY.s:109    .text:00000000000000b0 .LFE0
     /tmp/ccT9dAhY.s:2377   .debug_loc:00000000000003e9 .LLST0
     /tmp/ccT9dAhY.s:2395   .debug_loc:0000000000000435 .LLST1
     /tmp/ccT9dAhY.s:2413   .debug_loc:0000000000000481 .LLST2
     /tmp/ccT9dAhY.s:2428   .debug_loc:00000000000004ca .LLST3
     /tmp/ccT9dAhY.s:39     .text:000000000000002c .LVL3
     /tmp/ccT9dAhY.s:45     .text:0000000000000034 .LVL4
     /tmp/ccT9dAhY.s:56     .text:000000000000004c .LVL6
     /tmp/ccT9dAhY.s:87     .text:000000000000008c .LVL11
     /tmp/ccT9dAhY.s:92     .text:0000000000000098 .LVL12
     /tmp/ccT9dAhY.s:2535   .debug_str:000000000000019b .LASF45
     /tmp/ccT9dAhY.s:2601   .debug_str:0000000000000439 .LASF47
     /tmp/ccT9dAhY.s:2499   .debug_str:0000000000000099 .LASF46
     /tmp/ccT9dAhY.s:2551   .debug_str:00000000000002d5 .LASF48
     /tmp/ccT9dAhY.s:2553   .debug_str:00000000000002de .LASF49
     /tmp/ccT9dAhY.s:2543   .debug_str:00000000000001ef .LASF50
GAS LISTING /tmp/ccT9dAhY.s 			page 24


     /tmp/ccT9dAhY.s:2581   .debug_str:00000000000003ac .LASF51
     /tmp/ccT9dAhY.s:2617   .debug_str:00000000000004ab .LASF52
     /tmp/ccT9dAhY.s:2619   .debug_str:00000000000004b4 .LASF59
     /tmp/ccT9dAhY.s:2567   .debug_str:0000000000000332 .LASF61
     /tmp/ccT9dAhY.s:2585   .debug_str:00000000000003c2 .LASF53
     /tmp/ccT9dAhY.s:2527   .debug_str:0000000000000163 .LASF54
     /tmp/ccT9dAhY.s:2627   .debug_str:00000000000004e8 .LASF55
     /tmp/ccT9dAhY.s:2579   .debug_str:000000000000039c .LASF56
     /tmp/ccT9dAhY.s:2483   .debug_str:000000000000002f .LASF57
     /tmp/ccT9dAhY.s:2529   .debug_str:000000000000016c .LASF58
     /tmp/ccT9dAhY.s:2607   .debug_str:0000000000000466 .LASF60
     /tmp/ccT9dAhY.s:2481   .debug_str:000000000000001f .LASF62
     /tmp/ccT9dAhY.s:2559   .debug_str:00000000000002fb .LASF63
     /tmp/ccT9dAhY.s:2489   .debug_str:0000000000000054 .LASF64
     /tmp/ccT9dAhY.s:2507   .debug_str:00000000000000d8 .LASF65
     /tmp/ccT9dAhY.s:2475   .debug_str:0000000000000000 .LASF66
     /tmp/ccT9dAhY.s:2609   .debug_str:000000000000046d .LASF67
     /tmp/ccT9dAhY.s:2545   .debug_str:00000000000001fb .LASF68
     /tmp/ccT9dAhY.s:2493   .debug_str:000000000000007a .LASF69
     /tmp/ccT9dAhY.s:2525   .debug_str:000000000000015e .LASF70
     /tmp/ccT9dAhY.s:573    .text:0000000000000408 .LVL73
     /tmp/ccT9dAhY.s:490    .text:000000000000035c .LVL56
     /tmp/ccT9dAhY.s:507    .text:000000000000038c .LVL59
     /tmp/ccT9dAhY.s:512    .text:0000000000000398 .LVL60
     /tmp/ccT9dAhY.s:564    .text:00000000000003fc .LVL70
     /tmp/ccT9dAhY.s:570    .text:0000000000000404 .LVL72
     /tmp/ccT9dAhY.s:576    .text:000000000000040c .LVL74
     /tmp/ccT9dAhY.s:578    .text:0000000000000410 .LVL75
     /tmp/ccT9dAhY.s:442    .text:00000000000002f0 .LVL53
     /tmp/ccT9dAhY.s:559    .text:00000000000003f4 .LVL69
     /tmp/ccT9dAhY.s:465    .text:0000000000000324 .LVL55
     /tmp/ccT9dAhY.s:505    .text:0000000000000388 .LVL58
     /tmp/ccT9dAhY.s:522    .text:00000000000003a4 .LVL62
     /tmp/ccT9dAhY.s:524    .text:00000000000003a8 .LVL63
     /tmp/ccT9dAhY.s:567    .text:0000000000000400 .LVL71
     /tmp/ccT9dAhY.s:204    .text:0000000000000144 .LVL25
     /tmp/ccT9dAhY.s:226    .text:000000000000016c .LVL27
     /tmp/ccT9dAhY.s:322    .text:0000000000000218 .LVL41
     /tmp/ccT9dAhY.s:221    .text:0000000000000164 .LVL26
     /tmp/ccT9dAhY.s:234    .text:0000000000000178 .LVL29
     /tmp/ccT9dAhY.s:257    .text:00000000000001a4 .LVL32
     /tmp/ccT9dAhY.s:279    .text:00000000000001cc .LVL35
     /tmp/ccT9dAhY.s:325    .text:000000000000021c .LVL42
     /tmp/ccT9dAhY.s:261    .text:00000000000001a8 .LVL33
     /tmp/ccT9dAhY.s:294    .text:00000000000001e4 .LVL37
     /tmp/ccT9dAhY.s:117    .text:00000000000000b0 .LVL15
     /tmp/ccT9dAhY.s:137    .text:00000000000000d4 .LVL17
     /tmp/ccT9dAhY.s:188    .text:0000000000000138 .LVL23
     /tmp/ccT9dAhY.s:132    .text:00000000000000cc .LVL16
     /tmp/ccT9dAhY.s:160    .text:0000000000000104 .LVL20
     /tmp/ccT9dAhY.s:173    .text:0000000000000120 .LVL21
     /tmp/ccT9dAhY.s:191    .text:000000000000013c .LVL24
     /tmp/ccT9dAhY.s:13     .text:0000000000000000 .LVL0
     /tmp/ccT9dAhY.s:34     .text:0000000000000024 .LVL2
     /tmp/ccT9dAhY.s:101    .text:00000000000000a4 .LVL13
     /tmp/ccT9dAhY.s:28     .text:000000000000001c .LVL1
     /tmp/ccT9dAhY.s:48     .text:0000000000000038 .LVL5
GAS LISTING /tmp/ccT9dAhY.s 			page 25


     /tmp/ccT9dAhY.s:74     .text:0000000000000070 .LVL8
     /tmp/ccT9dAhY.s:83     .text:0000000000000080 .LVL9
     /tmp/ccT9dAhY.s:85     .text:0000000000000084 .LVL10
     /tmp/ccT9dAhY.s:61     .text:0000000000000054 .LVL7
     /tmp/ccT9dAhY.s:104    .text:00000000000000a8 .LVL14
     /tmp/ccT9dAhY.s:632    .debug_info:0000000000000000 .Ldebug_info0
     /tmp/ccT9dAhY.s:228    .text:000000000000016c .LBB2
     /tmp/ccT9dAhY.s:242    .text:0000000000000184 .LBE2
     /tmp/ccT9dAhY.s:247    .text:0000000000000190 .LBB3
     /tmp/ccT9dAhY.s:284    .text:00000000000001d4 .LBE3
     /tmp/ccT9dAhY.s:594    .gcc_except_table:0000000000000000 .LLSDA3

UNDEFINED SYMBOLS
_Z15thread_dispatchv
_Z4getcv
_ZN6Buffer3putEi
_Z10sem_signalP10KSemaphore
_Z4putcc
_ZN6Buffer3getEv
_ZN6Buffer6getCntEv
_Z11printStringPKc
_Z8printIntiii
_Znwm
_ZN6BufferC1Ei
_Z8sem_openPP10KSemaphorej
_Z13thread_createPP7KThreadPFvPvES2_
_Z8sem_waitP10KSemaphore
_Z9sem_closeP10KSemaphore
_ZN6BufferD1Ev
_ZdlPv
_Unwind_Resume
__gxx_personality_v0
