GAS LISTING /tmp/ccrNKmny.s 			page 1


   1              		.file	"userMain.cpp"
   2              		.option pic
   3              		.option norelax
   4              		.text
   5              	.Ltext0:
   6              		.section	.rodata.str1.8,"aMS",@progbits,1
   7              		.align	3
   8              	.LC0:
   9 0000 556E6573 		.string	"Unesite broj testa? [1-7]\n"
   9      69746520 
   9      62726F6A 
   9      20746573 
   9      74613F20 
  10 001b 00000000 		.align	3
  10      00
  11              	.LC1:
  12 0020 4E696A65 		.string	"Nije navedeno da je zadatak 4 implementiran\n"
  12      206E6176 
  12      6564656E 
  12      6F206461 
  12      206A6520 
  13 004d 000000   		.align	3
  14              	.LC2:
  15 0050 54455354 		.string	"TEST 1 (zadatak 2, niti C API i sinhrona promena konteksta)\n"
  15      20312028 
  15      7A616461 
  15      74616B20 
  15      322C206E 
  16 008d 000000   		.align	3
  17              	.LC3:
  18 0090 54455354 		.string	"TEST 2 (zadatak 2., niti CPP API i sinhrona promena konteksta)\n"
  18      20322028 
  18      7A616461 
  18      74616B20 
  18      322E2C20 
  19              		.align	3
  20              	.LC4:
  21 00d0 54455354 		.string	"TEST 3 (zadatak 3., kompletan C API sa semaforima, sinhrona promena konteksta)\n"
  21      20332028 
  21      7A616461 
  21      74616B20 
  21      332E2C20 
  22              		.align	3
  23              	.LC5:
  24 0120 54657374 		.string	"Test se nije uspesno zavrsio\n"
  24      20736520 
  24      6E696A65 
  24      20757370 
  24      65736E6F 
  25 013e 0000     		.align	3
  26              	.LC6:
  27 0140 54455354 		.string	"TEST 7 (zadatak 2., testiranje da li se korisnicki kod izvrsava u korisnickom rezimu)\n"
  27      20372028 
  27      7A616461 
  27      74616B20 
  27      322E2C20 
  28 0197 00       		.align	3
GAS LISTING /tmp/ccrNKmny.s 			page 2


  29              	.LC7:
  30 0198 4E697374 		.string	"Niste uneli odgovarajuci broj za test\n"
  30      6520756E 
  30      656C6920 
  30      6F64676F 
  30      76617261 
  31              		.text
  32              		.align	2
  33              		.globl	_Z8userMainv
  35              	_Z8userMainv:
  36              	.LFB0:
  37              		.file 1 "test/userMain.cpp"
   1:test/userMain.cpp **** #include "printing.hpp"
   2:test/userMain.cpp **** 
   3:test/userMain.cpp **** #define LEVEL_1_IMPLEMENTED 0
   4:test/userMain.cpp **** #define LEVEL_2_IMPLEMENTED 1
   5:test/userMain.cpp **** #define LEVEL_3_IMPLEMENTED 1
   6:test/userMain.cpp **** #define LEVEL_4_IMPLEMENTED 0
   7:test/userMain.cpp **** 
   8:test/userMain.cpp **** #if LEVEL_2_IMPLEMENTED == 1
   9:test/userMain.cpp **** // TEST 1 (zadatak 2, niti C API i sinhrona promena konteksta)
  10:test/userMain.cpp **** #include "../test/Threads_C_API_test.hpp"
  11:test/userMain.cpp **** // TEST 2 (zadatak 2., niti CPP API i sinhrona promena konteksta)
  12:test/userMain.cpp **** #include "../test/Threads_CPP_API_test.hpp"
  13:test/userMain.cpp **** // TEST 7 (zadatak 2., testiranje da li se korisnicki kod izvrsava u korisnickom rezimu)
  14:test/userMain.cpp **** #include "../test/System_Mode_test.hpp"
  15:test/userMain.cpp **** #endif
  16:test/userMain.cpp **** 
  17:test/userMain.cpp **** #if LEVEL_3_IMPLEMENTED == 1
  18:test/userMain.cpp **** // TEST 3 (zadatak 3., kompletan C API sa semaforima, sinhrona promena konteksta)
  19:test/userMain.cpp **** #include "../test/ConsumerProducer_C_API_test.hpp"
  20:test/userMain.cpp **** // TEST 4 (zadatak 3., kompletan CPP API sa semaforima, sinhrona promena konteksta)
  21:test/userMain.cpp **** //#include "../test/ConsumerProducer_CPP_Sync_API_test.hpp"
  22:test/userMain.cpp **** #endif
  23:test/userMain.cpp **** 
  24:test/userMain.cpp **** #if LEVEL_4_IMPLEMENTED == 1
  25:test/userMain.cpp **** // TEST 5 (zadatak 4., thread_sleep test C API)
  26:test/userMain.cpp **** #include "../test/ThreadSleep_C_API_test.hpp"
  27:test/userMain.cpp **** // TEST 6 (zadatak 4. CPP API i asinhrona promena konteksta)
  28:test/userMain.cpp **** #include "../test/ConsumerProducer_CPP_API_test.hpp"
  29:test/userMain.cpp **** #include "System_Mode_test.hpp"
  30:test/userMain.cpp **** 
  31:test/userMain.cpp **** #endif
  32:test/userMain.cpp **** 
  33:test/userMain.cpp **** void userMain() {
  38              		.loc 1 33 17
  39              		.cfi_startproc
  40 0000 130101FE 		addi	sp,sp,-32
  41              		.cfi_def_cfa_offset 32
  42 0004 233C1100 		sd	ra,24(sp)
  43 0008 23388100 		sd	s0,16(sp)
  44 000c 23349100 		sd	s1,8(sp)
  45 0010 23302101 		sd	s2,0(sp)
  46              		.cfi_offset 1, -8
  47              		.cfi_offset 8, -16
  48              		.cfi_offset 9, -24
  49              		.cfi_offset 18, -32
GAS LISTING /tmp/ccrNKmny.s 			page 3


  50 0014 13040102 		addi	s0,sp,32
  51              		.cfi_def_cfa 8, 0
  34:test/userMain.cpp ****     printString("Unesite broj testa? [1-7]\n");
  52              		.loc 1 34 5
  53              		.loc 1 34 16 is_stmt 0
  54 0018 17050000 		lla	a0,.LC0
  54      13050500 
  55 0020 97000000 		call	_Z11printStringPKc@plt
  55      E7800000 
  56              	.LVL0:
  35:test/userMain.cpp ****     int test = getc() - '0';
  57              		.loc 1 35 5 is_stmt 1
  58              		.loc 1 35 20 is_stmt 0
  59 0028 97000000 		call	_Z4getcv@plt
  59      E7800000 
  60              	.LVL1:
  61 0030 13090500 		mv	s2,a0
  62              		.loc 1 35 25
  63 0034 9B0405FD 		addiw	s1,a0,-48
  64              	.LVL2:
  36:test/userMain.cpp ****     getc(); // Enter posle broja
  65              		.loc 1 36 5 is_stmt 1
  66              		.loc 1 36 9 is_stmt 0
  67 0038 97000000 		call	_Z4getcv@plt
  67      E7800000 
  68              	.LVL3:
  37:test/userMain.cpp ****     // int test = 1;
  38:test/userMain.cpp **** 
  39:test/userMain.cpp ****     if ((test >= 1 && test <= 2) || test == 7) {
  69              		.loc 1 39 5 is_stmt 1
  40:test/userMain.cpp ****         if (LEVEL_2_IMPLEMENTED == 0) {
  41:test/userMain.cpp ****             printString("Nije navedeno da je zadatak 2 implementiran\n");
  42:test/userMain.cpp ****             return;
  43:test/userMain.cpp ****         }
  44:test/userMain.cpp ****     }
  45:test/userMain.cpp **** 
  46:test/userMain.cpp ****     if (test >= 3 && test <= 4) {
  70              		.loc 1 46 5
  47:test/userMain.cpp ****         if (LEVEL_3_IMPLEMENTED == 0) {
  48:test/userMain.cpp ****             printString("Nije navedeno da je zadatak 3 implementiran\n");
  49:test/userMain.cpp ****             return;
  50:test/userMain.cpp ****         }
  51:test/userMain.cpp ****     }
  52:test/userMain.cpp **** 
  53:test/userMain.cpp ****     if (test >= 5 && test <= 6) {
  71              		.loc 1 53 5
  72              		.loc 1 53 19 is_stmt 0
  73 0040 1B09B9FC 		addiw	s2,s2,-53
  74              		.loc 1 53 5
  75 0044 93071000 		li	a5,1
  76 0048 63F42703 		bleu	s2,a5,.L11
  54:test/userMain.cpp ****         if (LEVEL_4_IMPLEMENTED == 0) {
  55:test/userMain.cpp ****             printString("Nije navedeno da je zadatak 4 implementiran\n");
  56:test/userMain.cpp ****             return;
  57:test/userMain.cpp ****         }
  58:test/userMain.cpp ****     }
  59:test/userMain.cpp **** 
GAS LISTING /tmp/ccrNKmny.s 			page 4


  60:test/userMain.cpp ****     switch (test) {
  77              		.loc 1 60 5 is_stmt 1
  78 004c 93077000 		li	a5,7
  79 0050 63E4970C 		bgtu	s1,a5,.L4
  80 0054 93942400 		slli	s1,s1,2
  81 0058 17070000 		lla	a4,.L6
  81      13070700 
  82 0060 B384E400 		add	s1,s1,a4
  83 0064 83A70400 		lw	a5,0(s1)
  84 0068 B387E700 		add	a5,a5,a4
  85 006c 67800700 		jr	a5
  86              		.section	.rodata
  87              		.align	2
  88              		.align	2
  89              	.L6:
  90 0000 00000000 		.word	.L4-.L6
  91 0004 00000000 		.word	.L9-.L6
  92 0008 00000000 		.word	.L8-.L6
  93 000c 00000000 		.word	.L7-.L6
  94 0010 00000000 		.word	.L1-.L6
  95 0014 00000000 		.word	.L1-.L6
  96 0018 00000000 		.word	.L1-.L6
  97 001c 00000000 		.word	.L5-.L6
  98              		.text
  99              	.L11:
  54:test/userMain.cpp ****         if (LEVEL_4_IMPLEMENTED == 0) {
 100              		.loc 1 54 9
  55:test/userMain.cpp ****             return;
 101              		.loc 1 55 13
  55:test/userMain.cpp ****             return;
 102              		.loc 1 55 24 is_stmt 0
 103 0070 17050000 		lla	a0,.LC1
 103      13050500 
 104 0078 97000000 		call	_Z11printStringPKc@plt
 104      E7800000 
 105              	.LVL4:
  56:test/userMain.cpp ****         }
 106              		.loc 1 56 13 is_stmt 1
 107              	.L1:
  61:test/userMain.cpp ****         case 1:
  62:test/userMain.cpp **** #if LEVEL_2_IMPLEMENTED == 1
  63:test/userMain.cpp ****             Threads_C_API_test();
  64:test/userMain.cpp ****             printString("TEST 1 (zadatak 2, niti C API i sinhrona promena konteksta)\n");
  65:test/userMain.cpp **** #endif
  66:test/userMain.cpp ****             break;
  67:test/userMain.cpp ****         case 2:
  68:test/userMain.cpp **** #if LEVEL_2_IMPLEMENTED == 1
  69:test/userMain.cpp ****             Threads_CPP_API_test();
  70:test/userMain.cpp ****             printString("TEST 2 (zadatak 2., niti CPP API i sinhrona promena konteksta)\n");
  71:test/userMain.cpp **** #endif
  72:test/userMain.cpp ****             break;
  73:test/userMain.cpp ****         case 3:
  74:test/userMain.cpp **** #if LEVEL_3_IMPLEMENTED == 1
  75:test/userMain.cpp ****             producerConsumer_C_API();
  76:test/userMain.cpp ****             printString("TEST 3 (zadatak 3., kompletan C API sa semaforima, sinhrona promena kontek
  77:test/userMain.cpp **** #endif
  78:test/userMain.cpp ****             break;
GAS LISTING /tmp/ccrNKmny.s 			page 5


  79:test/userMain.cpp ****         case 4:
  80:test/userMain.cpp **** #if LEVEL_3_IMPLEMENTED == 1
  81:test/userMain.cpp ****             // producerConsumer_CPP_Sync_API();
  82:test/userMain.cpp ****             // printString("TEST 4 (zadatak 3., kompletan CPP API sa semaforima, sinhrona promena k
  83:test/userMain.cpp **** #endif
  84:test/userMain.cpp ****             break;
  85:test/userMain.cpp ****         case 5:
  86:test/userMain.cpp **** #if LEVEL_4_IMPLEMENTED == 1
  87:test/userMain.cpp ****             testSleeping();
  88:test/userMain.cpp ****             printString("TEST 5 (zadatak 4., thread_sleep test C API)\n");
  89:test/userMain.cpp **** #endif
  90:test/userMain.cpp ****             break;
  91:test/userMain.cpp ****         case 6:
  92:test/userMain.cpp **** #if LEVEL_4_IMPLEMENTED == 1
  93:test/userMain.cpp ****             testConsumerProducer();
  94:test/userMain.cpp ****             printString("TEST 6 (zadatak 4. CPP API i asinhrona promena konteksta)\n");
  95:test/userMain.cpp **** #endif
  96:test/userMain.cpp ****             break;
  97:test/userMain.cpp ****         case 7:
  98:test/userMain.cpp **** #if LEVEL_2_IMPLEMENTED == 1
  99:test/userMain.cpp ****             System_Mode_test();
 100:test/userMain.cpp ****             printString("Test se nije uspesno zavrsio\n");
 101:test/userMain.cpp ****             printString("TEST 7 (zadatak 2., testiranje da li se korisnicki kod izvrsava u korisnic
 102:test/userMain.cpp **** #endif
 103:test/userMain.cpp ****             break;
 104:test/userMain.cpp ****         default:
 105:test/userMain.cpp ****             printString("Niste uneli odgovarajuci broj za test\n");
 106:test/userMain.cpp ****     }
 107:test/userMain.cpp **** }...
 108              		.loc 1 107 1 is_stmt 0
 109 0080 83308101 		ld	ra,24(sp)
 110              		.cfi_remember_state
 111              		.cfi_restore 1
 112 0084 03340101 		ld	s0,16(sp)
 113              		.cfi_restore 8
 114              		.cfi_def_cfa 2, 32
 115 0088 83348100 		ld	s1,8(sp)
 116              		.cfi_restore 9
 117 008c 03390100 		ld	s2,0(sp)
 118              		.cfi_restore 18
 119 0090 13010102 		addi	sp,sp,32
 120              		.cfi_def_cfa_offset 0
 121 0094 67800000 		jr	ra
 122              	.L9:
 123              		.cfi_restore_state
  61:test/userMain.cpp ****         case 1:
 124              		.loc 1 61 9 is_stmt 1
  63:test/userMain.cpp ****             Threads_C_API_test();
 125              		.loc 1 63 13
  63:test/userMain.cpp ****             Threads_C_API_test();
 126              		.loc 1 63 31 is_stmt 0
 127 0098 97000000 		call	_Z18Threads_C_API_testv@plt
 127      E7800000 
 128              	.LVL5:
  64:test/userMain.cpp ****             printString("TEST 1 (zadatak 2, niti C API i sinhrona promena konteksta)\n");
 129              		.loc 1 64 13 is_stmt 1
  64:test/userMain.cpp ****             printString("TEST 1 (zadatak 2, niti C API i sinhrona promena konteksta)\n");
GAS LISTING /tmp/ccrNKmny.s 			page 6


 130              		.loc 1 64 24 is_stmt 0
 131 00a0 17050000 		lla	a0,.LC2
 131      13050500 
 132 00a8 97000000 		call	_Z11printStringPKc@plt
 132      E7800000 
 133              	.LVL6:
  66:test/userMain.cpp ****             break;
 134              		.loc 1 66 13 is_stmt 1
 135 00b0 6FF01FFD 		j	.L1
 136              	.L8:
  67:test/userMain.cpp ****         case 2:
 137              		.loc 1 67 9
  69:test/userMain.cpp ****             Threads_CPP_API_test();
 138              		.loc 1 69 13
  69:test/userMain.cpp ****             Threads_CPP_API_test();
 139              		.loc 1 69 33 is_stmt 0
 140 00b4 97000000 		call	_Z20Threads_CPP_API_testv@plt
 140      E7800000 
 141              	.LVL7:
  70:test/userMain.cpp ****             printString("TEST 2 (zadatak 2., niti CPP API i sinhrona promena konteksta)\n");
 142              		.loc 1 70 13 is_stmt 1
  70:test/userMain.cpp ****             printString("TEST 2 (zadatak 2., niti CPP API i sinhrona promena konteksta)\n");
 143              		.loc 1 70 24 is_stmt 0
 144 00bc 17050000 		lla	a0,.LC3
 144      13050500 
 145 00c4 97000000 		call	_Z11printStringPKc@plt
 145      E7800000 
 146              	.LVL8:
  72:test/userMain.cpp ****             break;
 147              		.loc 1 72 13 is_stmt 1
 148 00cc 6FF05FFB 		j	.L1
 149              	.L7:
  73:test/userMain.cpp ****         case 3:
 150              		.loc 1 73 9
  75:test/userMain.cpp ****             producerConsumer_C_API();
 151              		.loc 1 75 13
  75:test/userMain.cpp ****             producerConsumer_C_API();
 152              		.loc 1 75 35 is_stmt 0
 153 00d0 97000000 		call	_Z22producerConsumer_C_APIv@plt
 153      E7800000 
 154              	.LVL9:
  76:test/userMain.cpp ****             printString("TEST 3 (zadatak 3., kompletan C API sa semaforima, sinhrona promena kontek
 155              		.loc 1 76 13 is_stmt 1
  76:test/userMain.cpp ****             printString("TEST 3 (zadatak 3., kompletan C API sa semaforima, sinhrona promena kontek
 156              		.loc 1 76 24 is_stmt 0
 157 00d8 17050000 		lla	a0,.LC4
 157      13050500 
 158 00e0 97000000 		call	_Z11printStringPKc@plt
 158      E7800000 
 159              	.LVL10:
  78:test/userMain.cpp ****             break;
 160              		.loc 1 78 13 is_stmt 1
 161 00e8 6FF09FF9 		j	.L1
 162              	.L5:
  97:test/userMain.cpp ****         case 7:
 163              		.loc 1 97 9
  99:test/userMain.cpp ****             System_Mode_test();
GAS LISTING /tmp/ccrNKmny.s 			page 7


 164              		.loc 1 99 13
  99:test/userMain.cpp ****             System_Mode_test();
 165              		.loc 1 99 29 is_stmt 0
 166 00ec 97000000 		call	_Z16System_Mode_testv@plt
 166      E7800000 
 167              	.LVL11:
 100:test/userMain.cpp ****             printString("Test se nije uspesno zavrsio\n");
 168              		.loc 1 100 13 is_stmt 1
 100:test/userMain.cpp ****             printString("Test se nije uspesno zavrsio\n");
 169              		.loc 1 100 24 is_stmt 0
 170 00f4 17050000 		lla	a0,.LC5
 170      13050500 
 171 00fc 97000000 		call	_Z11printStringPKc@plt
 171      E7800000 
 172              	.LVL12:
 101:test/userMain.cpp ****             printString("TEST 7 (zadatak 2., testiranje da li se korisnicki kod izvrsava u korisnic
 173              		.loc 1 101 13 is_stmt 1
 101:test/userMain.cpp ****             printString("TEST 7 (zadatak 2., testiranje da li se korisnicki kod izvrsava u korisnic
 174              		.loc 1 101 24 is_stmt 0
 175 0104 17050000 		lla	a0,.LC6
 175      13050500 
 176 010c 97000000 		call	_Z11printStringPKc@plt
 176      E7800000 
 177              	.LVL13:
 103:test/userMain.cpp ****             break;
 178              		.loc 1 103 13 is_stmt 1
 179 0114 6FF0DFF6 		j	.L1
 180              	.L4:
 104:test/userMain.cpp ****         default:
 181              		.loc 1 104 9
 105:test/userMain.cpp ****             printString("Niste uneli odgovarajuci broj za test\n");
 182              		.loc 1 105 13
 105:test/userMain.cpp ****             printString("Niste uneli odgovarajuci broj za test\n");
 183              		.loc 1 105 24 is_stmt 0
 184 0118 17050000 		lla	a0,.LC7
 184      13050500 
 185 0120 97000000 		call	_Z11printStringPKc@plt
 185      E7800000 
 186              	.LVL14:
 187 0128 6FF09FF5 		j	.L1
 188              		.cfi_endproc
 189              	.LFE0:
 191              	.Letext0:
 192              		.file 2 "test/../h/../lib/hw.h"
 193              		.file 3 "test/printing.hpp"
 194              		.file 4 "test/../h/syscall_c.hpp"
 195              		.file 5 "test/../test/Threads_C_API_test.hpp"
 196              		.file 6 "test/../test/Threads_CPP_API_test.hpp"
 197              		.file 7 "test/../test/ConsumerProducer_C_API_test.hpp"
 198              		.file 8 "test/../test/System_Mode_test.hpp"
GAS LISTING /tmp/ccrNKmny.s 			page 8


DEFINED SYMBOLS
                            *ABS*:0000000000000000 userMain.cpp
     /tmp/ccrNKmny.s:35     .text:0000000000000000 _Z8userMainv
     /tmp/ccrNKmny.s:39     .text:0000000000000000 .L0 
     /tmp/ccrNKmny.s:40     .text:0000000000000000 .L0 
     /tmp/ccrNKmny.s:41     .text:0000000000000004 .L0 
     /tmp/ccrNKmny.s:46     .text:0000000000000014 .L0 
     /tmp/ccrNKmny.s:47     .text:0000000000000014 .L0 
     /tmp/ccrNKmny.s:48     .text:0000000000000014 .L0 
     /tmp/ccrNKmny.s:49     .text:0000000000000014 .L0 
     /tmp/ccrNKmny.s:51     .text:0000000000000018 .L0 
     /tmp/ccrNKmny.s:53     .text:0000000000000018 .L0 
     /tmp/ccrNKmny.s:54     .text:0000000000000018 .L0 
     /tmp/ccrNKmny.s:58     .text:0000000000000028 .L0 
     /tmp/ccrNKmny.s:59     .text:0000000000000028 .L0 
     /tmp/ccrNKmny.s:63     .text:0000000000000034 .L0 
     /tmp/ccrNKmny.s:66     .text:0000000000000038 .L0 
     /tmp/ccrNKmny.s:67     .text:0000000000000038 .L0 
     /tmp/ccrNKmny.s:70     .text:0000000000000040 .L0 
     /tmp/ccrNKmny.s:71     .text:0000000000000040 .L0 
     /tmp/ccrNKmny.s:72     .text:0000000000000040 .L0 
     /tmp/ccrNKmny.s:73     .text:0000000000000040 .L0 
     /tmp/ccrNKmny.s:75     .text:0000000000000044 .L0 
     /tmp/ccrNKmny.s:78     .text:000000000000004c .L0 
     /tmp/ccrNKmny.s:101    .text:0000000000000070 .L0 
     /tmp/ccrNKmny.s:102    .text:0000000000000070 .L0 
     /tmp/ccrNKmny.s:103    .text:0000000000000070 .L0 
     /tmp/ccrNKmny.s:108    .text:0000000000000080 .L0 
     /tmp/ccrNKmny.s:109    .text:0000000000000080 .L0 
     /tmp/ccrNKmny.s:110    .text:0000000000000084 .L0 
     /tmp/ccrNKmny.s:111    .text:0000000000000084 .L0 
     /tmp/ccrNKmny.s:113    .text:0000000000000088 .L0 
     /tmp/ccrNKmny.s:114    .text:0000000000000088 .L0 
     /tmp/ccrNKmny.s:116    .text:000000000000008c .L0 
     /tmp/ccrNKmny.s:118    .text:0000000000000090 .L0 
     /tmp/ccrNKmny.s:120    .text:0000000000000094 .L0 
     /tmp/ccrNKmny.s:123    .text:0000000000000098 .L0 
     /tmp/ccrNKmny.s:125    .text:0000000000000098 .L0 
     /tmp/ccrNKmny.s:126    .text:0000000000000098 .L0 
     /tmp/ccrNKmny.s:127    .text:0000000000000098 .L0 
     /tmp/ccrNKmny.s:130    .text:00000000000000a0 .L0 
     /tmp/ccrNKmny.s:131    .text:00000000000000a0 .L0 
     /tmp/ccrNKmny.s:135    .text:00000000000000b0 .L0 
     /tmp/ccrNKmny.s:138    .text:00000000000000b4 .L0 
     /tmp/ccrNKmny.s:139    .text:00000000000000b4 .L0 
     /tmp/ccrNKmny.s:140    .text:00000000000000b4 .L0 
     /tmp/ccrNKmny.s:143    .text:00000000000000bc .L0 
     /tmp/ccrNKmny.s:144    .text:00000000000000bc .L0 
     /tmp/ccrNKmny.s:148    .text:00000000000000cc .L0 
     /tmp/ccrNKmny.s:151    .text:00000000000000d0 .L0 
     /tmp/ccrNKmny.s:152    .text:00000000000000d0 .L0 
     /tmp/ccrNKmny.s:153    .text:00000000000000d0 .L0 
     /tmp/ccrNKmny.s:156    .text:00000000000000d8 .L0 
     /tmp/ccrNKmny.s:157    .text:00000000000000d8 .L0 
     /tmp/ccrNKmny.s:161    .text:00000000000000e8 .L0 
     /tmp/ccrNKmny.s:164    .text:00000000000000ec .L0 
     /tmp/ccrNKmny.s:165    .text:00000000000000ec .L0 
GAS LISTING /tmp/ccrNKmny.s 			page 9


     /tmp/ccrNKmny.s:166    .text:00000000000000ec .L0 
     /tmp/ccrNKmny.s:169    .text:00000000000000f4 .L0 
     /tmp/ccrNKmny.s:170    .text:00000000000000f4 .L0 
     /tmp/ccrNKmny.s:174    .text:0000000000000104 .L0 
     /tmp/ccrNKmny.s:175    .text:0000000000000104 .L0 
     /tmp/ccrNKmny.s:179    .text:0000000000000114 .L0 
     /tmp/ccrNKmny.s:182    .text:0000000000000118 .L0 
     /tmp/ccrNKmny.s:183    .text:0000000000000118 .L0 
     /tmp/ccrNKmny.s:184    .text:0000000000000118 .L0 
     /tmp/ccrNKmny.s:188    .text:000000000000012c .L0 
     /tmp/ccrNKmny.s:199    .text:000000000000012c .L0 
     /tmp/ccrNKmny.s:8      .rodata.str1.8:0000000000000000 .LC0
     /tmp/ccrNKmny.s:54     .text:0000000000000018 .L0 
     /tmp/ccrNKmny.s:89     .rodata:0000000000000000 .L6
     /tmp/ccrNKmny.s:81     .text:0000000000000058 .L0 
     /tmp/ccrNKmny.s:11     .rodata.str1.8:0000000000000020 .LC1
     /tmp/ccrNKmny.s:103    .text:0000000000000070 .L0 
     /tmp/ccrNKmny.s:14     .rodata.str1.8:0000000000000050 .LC2
     /tmp/ccrNKmny.s:131    .text:00000000000000a0 .L0 
     /tmp/ccrNKmny.s:17     .rodata.str1.8:0000000000000090 .LC3
     /tmp/ccrNKmny.s:144    .text:00000000000000bc .L0 
     /tmp/ccrNKmny.s:20     .rodata.str1.8:00000000000000d0 .LC4
     /tmp/ccrNKmny.s:157    .text:00000000000000d8 .L0 
     /tmp/ccrNKmny.s:23     .rodata.str1.8:0000000000000120 .LC5
     /tmp/ccrNKmny.s:170    .text:00000000000000f4 .L0 
     /tmp/ccrNKmny.s:26     .rodata.str1.8:0000000000000140 .LC6
     /tmp/ccrNKmny.s:175    .text:0000000000000104 .L0 
     /tmp/ccrNKmny.s:29     .rodata.str1.8:0000000000000198 .LC7
     /tmp/ccrNKmny.s:184    .text:0000000000000118 .L0 
     /tmp/ccrNKmny.s:99     .text:0000000000000070 .L11
     /tmp/ccrNKmny.s:180    .text:0000000000000118 .L4
     /tmp/ccrNKmny.s:107    .text:0000000000000080 .L1
     /tmp/ccrNKmny.s:122    .text:0000000000000098 .L9
     /tmp/ccrNKmny.s:136    .text:00000000000000b4 .L8
     /tmp/ccrNKmny.s:149    .text:00000000000000d0 .L7
     /tmp/ccrNKmny.s:162    .text:00000000000000ec .L5
     /tmp/ccrNKmny.s:487    .debug_abbrev:0000000000000000 .Ldebug_abbrev0
     /tmp/ccrNKmny.s:802    .debug_str:00000000000001df .LASF30
     /tmp/ccrNKmny.s:772    .debug_str:00000000000000d5 .LASF31
     /tmp/ccrNKmny.s:776    .debug_str:00000000000000f4 .LASF32
     /tmp/ccrNKmny.s:5      .text:0000000000000000 .Ltext0
     /tmp/ccrNKmny.s:191    .text:000000000000012c .Letext0
     /tmp/ccrNKmny.s:744    .debug_line:0000000000000000 .Ldebug_line0
     /tmp/ccrNKmny.s:748    .debug_str:000000000000001a .LASF0
     /tmp/ccrNKmny.s:800    .debug_str:00000000000001cc .LASF1
     /tmp/ccrNKmny.s:780    .debug_str:000000000000011e .LASF2
     /tmp/ccrNKmny.s:770    .debug_str:00000000000000ce .LASF4
     /tmp/ccrNKmny.s:764    .debug_str:0000000000000091 .LASF3
     /tmp/ccrNKmny.s:758    .debug_str:0000000000000071 .LASF5
     /tmp/ccrNKmny.s:768    .debug_str:00000000000000bb .LASF6
     /tmp/ccrNKmny.s:798    .debug_str:00000000000001b9 .LASF7
     /tmp/ccrNKmny.s:808    .debug_str:00000000000002b7 .LASF8
     /tmp/ccrNKmny.s:754    .debug_str:0000000000000054 .LASF9
     /tmp/ccrNKmny.s:756    .debug_str:0000000000000062 .LASF10
     /tmp/ccrNKmny.s:804    .debug_str:00000000000002a3 .LASF11
     /tmp/ccrNKmny.s:760    .debug_str:0000000000000078 .LASF12
     /tmp/ccrNKmny.s:810    .debug_str:00000000000002c7 .LASF13
GAS LISTING /tmp/ccrNKmny.s 			page 10


     /tmp/ccrNKmny.s:778    .debug_str:0000000000000112 .LASF14
     /tmp/ccrNKmny.s:792    .debug_str:000000000000017d .LASF15
     /tmp/ccrNKmny.s:786    .debug_str:0000000000000147 .LASF16
     /tmp/ccrNKmny.s:788    .debug_str:000000000000015d .LASF33
     /tmp/ccrNKmny.s:774    .debug_str:00000000000000e7 .LASF34
     /tmp/ccrNKmny.s:36     .text:0000000000000000 .LFB0
     /tmp/ccrNKmny.s:189    .text:000000000000012c .LFE0
     /tmp/ccrNKmny.s:806    .debug_str:00000000000002b2 .LASF17
     /tmp/ccrNKmny.s:722    .debug_loc:0000000000000000 .LLST0
     /tmp/ccrNKmny.s:56     .text:0000000000000028 .LVL0
     /tmp/ccrNKmny.s:60     .text:0000000000000030 .LVL1
     /tmp/ccrNKmny.s:68     .text:0000000000000040 .LVL3
     /tmp/ccrNKmny.s:105    .text:0000000000000080 .LVL4
     /tmp/ccrNKmny.s:128    .text:00000000000000a0 .LVL5
     /tmp/ccrNKmny.s:133    .text:00000000000000b0 .LVL6
     /tmp/ccrNKmny.s:141    .text:00000000000000bc .LVL7
     /tmp/ccrNKmny.s:146    .text:00000000000000cc .LVL8
     /tmp/ccrNKmny.s:154    .text:00000000000000d8 .LVL9
     /tmp/ccrNKmny.s:159    .text:00000000000000e8 .LVL10
     /tmp/ccrNKmny.s:167    .text:00000000000000f4 .LVL11
     /tmp/ccrNKmny.s:172    .text:0000000000000104 .LVL12
     /tmp/ccrNKmny.s:177    .text:0000000000000114 .LVL13
     /tmp/ccrNKmny.s:186    .text:0000000000000128 .LVL14
     /tmp/ccrNKmny.s:794    .debug_str:0000000000000193 .LASF18
     /tmp/ccrNKmny.s:812    .debug_str:00000000000002d7 .LASF20
     /tmp/ccrNKmny.s:762    .debug_str:0000000000000088 .LASF19
     /tmp/ccrNKmny.s:784    .debug_str:0000000000000142 .LASF21
     /tmp/ccrNKmny.s:766    .debug_str:00000000000000a3 .LASF22
     /tmp/ccrNKmny.s:796    .debug_str:00000000000001a6 .LASF23
     /tmp/ccrNKmny.s:746    .debug_str:0000000000000000 .LASF24
     /tmp/ccrNKmny.s:814    .debug_str:00000000000002e3 .LASF25
     /tmp/ccrNKmny.s:750    .debug_str:0000000000000027 .LASF26
     /tmp/ccrNKmny.s:790    .debug_str:0000000000000166 .LASF27
     /tmp/ccrNKmny.s:782    .debug_str:000000000000012c .LASF28
     /tmp/ccrNKmny.s:752    .debug_str:0000000000000043 .LASF29
     /tmp/ccrNKmny.s:64     .text:0000000000000038 .LVL2
     /tmp/ccrNKmny.s:200    .debug_info:0000000000000000 .Ldebug_info0

UNDEFINED SYMBOLS
_Z11printStringPKc
_Z4getcv
_Z18Threads_C_API_testv
_Z20Threads_CPP_API_testv
_Z22producerConsumer_C_APIv
_Z16System_Mode_testv
