GAS LISTING /tmp/ccbmtB5m.s 			page 1


   1              		.file	"userMain.cpp"
   2              		.option pic
   3              		.option norelax
   4              		.text
   5              	.Ltext0:
   6              		.section	.rodata.str1.8,"aMS",@progbits,1
   7              		.align	3
   8              	.LC0:
   9 0000 54455354 		.string	"TEST 1 (zadatak 2, niti C API i sinhrona promena konteksta)\n"
   9      20312028 
   9      7A616461 
   9      74616B20 
   9      322C206E 
  10              		.text
  11              		.align	2
  12              		.globl	_Z8userMainv
  14              	_Z8userMainv:
  15              	.LFB0:
  16              		.file 1 "test/userMain.cpp"
   1:test/userMain.cpp **** #include "printing.hpp"
   2:test/userMain.cpp **** 
   3:test/userMain.cpp **** #define LEVEL_1_IMPLEMENTED 0
   4:test/userMain.cpp **** #define LEVEL_2_IMPLEMENTED 1
   5:test/userMain.cpp **** #define LEVEL_3_IMPLEMENTED 1
   6:test/userMain.cpp **** #define LEVEL_4_IMPLEMENTED 0
   7:test/userMain.cpp **** 
   8:test/userMain.cpp **** #if LEVEL_2_IMPLEMENTED == 1
   9:test/userMain.cpp **** // TEST 1 (zadatak 2, niti C API i sinhrona promena konteksta)
  10:test/userMain.cpp **** #include "../test/Threads_C_API_test.hpp"
  11:test/userMain.cpp **** // TEST 2 (zadatak 2., niti CPP API i sinhrona promena konteksta)
  12:test/userMain.cpp **** #include "../test/Threads_CPP_API_test.hpp"
  13:test/userMain.cpp **** // TEST 7 (zadatak 2., testiranje da li se korisnicki kod izvrsava u korisnickom rezimu)
  14:test/userMain.cpp **** #include "../test/System_Mode_test.hpp"
  15:test/userMain.cpp **** #endif
  16:test/userMain.cpp **** 
  17:test/userMain.cpp **** #if LEVEL_3_IMPLEMENTED == 1
  18:test/userMain.cpp **** // TEST 3 (zadatak 3., kompletan C API sa semaforima, sinhrona promena konteksta)
  19:test/userMain.cpp **** #include "../test/ConsumerProducer_C_API_test.hpp"
  20:test/userMain.cpp **** // TEST 4 (zadatak 3., kompletan CPP API sa semaforima, sinhrona promena konteksta)
  21:test/userMain.cpp **** //#include "../test/ConsumerProducer_CPP_Sync_API_test.hpp"
  22:test/userMain.cpp **** #endif
  23:test/userMain.cpp **** 
  24:test/userMain.cpp **** #if LEVEL_4_IMPLEMENTED == 1
  25:test/userMain.cpp **** // TEST 5 (zadatak 4., thread_sleep test C API)
  26:test/userMain.cpp **** #include "../test/ThreadSleep_C_API_test.hpp"
  27:test/userMain.cpp **** // TEST 6 (zadatak 4. CPP API i asinhrona promena konteksta)
  28:test/userMain.cpp **** #include "../test/ConsumerProducer_CPP_API_test.hpp"
  29:test/userMain.cpp **** #include "System_Mode_test.hpp"
  30:test/userMain.cpp **** 
  31:test/userMain.cpp **** #endif
  32:test/userMain.cpp **** 
  33:test/userMain.cpp **** void userMain() {
  17              		.loc 1 33 17
  18              		.cfi_startproc
  19 0000 130101FF 		addi	sp,sp,-16
  20              		.cfi_def_cfa_offset 16
  21 0004 23341100 		sd	ra,8(sp)
GAS LISTING /tmp/ccbmtB5m.s 			page 2


  22 0008 23308100 		sd	s0,0(sp)
  23              		.cfi_offset 1, -8
  24              		.cfi_offset 8, -16
  25 000c 13040101 		addi	s0,sp,16
  26              		.cfi_def_cfa 8, 0
  34:test/userMain.cpp ****     // printString("Unesite broj testa? [1-7]\n");
  35:test/userMain.cpp ****     // int test = getc() - '0';
  36:test/userMain.cpp ****     // getc(); // Enter posle broja
  37:test/userMain.cpp ****     int test = 1;
  27              		.loc 1 37 5
  28              	.LVL0:
  38:test/userMain.cpp **** 
  39:test/userMain.cpp ****     if ((test >= 1 && test <= 2) || test == 7) {
  29              		.loc 1 39 5
  40:test/userMain.cpp ****         if (LEVEL_2_IMPLEMENTED == 0) {
  41:test/userMain.cpp ****             printString("Nije navedeno da je zadatak 2 implementiran\n");
  42:test/userMain.cpp ****             return;
  43:test/userMain.cpp ****         }
  44:test/userMain.cpp ****     }
  45:test/userMain.cpp **** 
  46:test/userMain.cpp ****     if (test >= 3 && test <= 4) {
  30              		.loc 1 46 5
  47:test/userMain.cpp ****         if (LEVEL_3_IMPLEMENTED == 0) {
  48:test/userMain.cpp ****             printString("Nije navedeno da je zadatak 3 implementiran\n");
  49:test/userMain.cpp ****             return;
  50:test/userMain.cpp ****         }
  51:test/userMain.cpp ****     }
  52:test/userMain.cpp **** 
  53:test/userMain.cpp ****     if (test >= 5 && test <= 6) {
  31              		.loc 1 53 5
  54:test/userMain.cpp ****         if (LEVEL_4_IMPLEMENTED == 0) {
  55:test/userMain.cpp ****             printString("Nije navedeno da je zadatak 4 implementiran\n");
  56:test/userMain.cpp ****             return;
  57:test/userMain.cpp ****         }
  58:test/userMain.cpp ****     }
  59:test/userMain.cpp **** 
  60:test/userMain.cpp ****     switch (test) {
  32              		.loc 1 60 5
  61:test/userMain.cpp ****         case 1:
  33              		.loc 1 61 9
  62:test/userMain.cpp **** #if LEVEL_2_IMPLEMENTED == 1
  63:test/userMain.cpp ****             Threads_C_API_test();
  34              		.loc 1 63 13
  35              		.loc 1 63 31 is_stmt 0
  36 0010 97000000 		call	_Z18Threads_C_API_testv@plt
  36      E7800000 
  37              	.LVL1:
  64:test/userMain.cpp ****             printString("TEST 1 (zadatak 2, niti C API i sinhrona promena konteksta)\n");
  38              		.loc 1 64 13 is_stmt 1
  39              		.loc 1 64 24 is_stmt 0
  40 0018 17050000 		lla	a0,.LC0
  40      13050500 
  41 0020 97000000 		call	_Z11printStringPKc@plt
  41      E7800000 
  42              	.LVL2:
  65:test/userMain.cpp **** #endif
  66:test/userMain.cpp ****             break;
GAS LISTING /tmp/ccbmtB5m.s 			page 3


  43              		.loc 1 66 13 is_stmt 1
  67:test/userMain.cpp ****         case 2:
  68:test/userMain.cpp **** #if LEVEL_2_IMPLEMENTED == 1
  69:test/userMain.cpp ****             Threads_CPP_API_test();
  70:test/userMain.cpp ****             printString("TEST 2 (zadatak 2., niti CPP API i sinhrona promena konteksta)\n");
  71:test/userMain.cpp **** #endif
  72:test/userMain.cpp ****             break;
  73:test/userMain.cpp ****         case 3:
  74:test/userMain.cpp **** #if LEVEL_3_IMPLEMENTED == 1
  75:test/userMain.cpp ****             producerConsumer_C_API();
  76:test/userMain.cpp ****             printString("TEST 3 (zadatak 3., kompletan C API sa semaforima, sinhrona promena kontek
  77:test/userMain.cpp **** #endif
  78:test/userMain.cpp ****             break;
  79:test/userMain.cpp ****         case 4:
  80:test/userMain.cpp **** #if LEVEL_3_IMPLEMENTED == 1
  81:test/userMain.cpp ****             // producerConsumer_CPP_Sync_API();
  82:test/userMain.cpp ****             // printString("TEST 4 (zadatak 3., kompletan CPP API sa semaforima, sinhrona promena k
  83:test/userMain.cpp **** #endif
  84:test/userMain.cpp ****             break;
  85:test/userMain.cpp ****         case 5:
  86:test/userMain.cpp **** #if LEVEL_4_IMPLEMENTED == 1
  87:test/userMain.cpp ****             testSleeping();
  88:test/userMain.cpp ****             printString("TEST 5 (zadatak 4., thread_sleep test C API)\n");
  89:test/userMain.cpp **** #endif
  90:test/userMain.cpp ****             break;
  91:test/userMain.cpp ****         case 6:
  92:test/userMain.cpp **** #if LEVEL_4_IMPLEMENTED == 1
  93:test/userMain.cpp ****             testConsumerProducer();
  94:test/userMain.cpp ****             printString("TEST 6 (zadatak 4. CPP API i asinhrona promena konteksta)\n");
  95:test/userMain.cpp **** #endif
  96:test/userMain.cpp ****             break;
  97:test/userMain.cpp ****         case 7:
  98:test/userMain.cpp **** #if LEVEL_2_IMPLEMENTED == 1
  99:test/userMain.cpp ****             System_Mode_test();
 100:test/userMain.cpp ****             printString("Test se nije uspesno zavrsio\n");
 101:test/userMain.cpp ****             printString("TEST 7 (zadatak 2., testiranje da li se korisnicki kod izvrsava u korisnic
 102:test/userMain.cpp **** #endif
 103:test/userMain.cpp ****             break;
 104:test/userMain.cpp ****         default:
 105:test/userMain.cpp ****             printString("Niste uneli odgovarajuci broj za test\n");
 106:test/userMain.cpp ****     }
 107:test/userMain.cpp **** }...
  44              		.loc 1 107 1 is_stmt 0
  45 0028 83308100 		ld	ra,8(sp)
  46              		.cfi_restore 1
  47 002c 03340100 		ld	s0,0(sp)
  48              		.cfi_restore 8
  49              		.cfi_def_cfa 2, 16
  50 0030 13010101 		addi	sp,sp,16
  51              		.cfi_def_cfa_offset 0
  52 0034 67800000 		jr	ra
  53              		.cfi_endproc
  54              	.LFE0:
  56              	.Letext0:
  57              		.file 2 "test/../h/../lib/hw.h"
  58              		.file 3 "test/../test/Threads_C_API_test.hpp"
  59              		.file 4 "test/printing.hpp"
GAS LISTING /tmp/ccbmtB5m.s 			page 4


GAS LISTING /tmp/ccbmtB5m.s 			page 5

