GAS LISTING /tmp/ccyjZgdc.s 			page 1


   1              		.file	"userMain.cpp"
   2              		.option pic
   3              		.option norelax
   4              		.text
   5              	.Ltext0:
   6              		.align	2
   7              		.globl	_Z10test_ecallv
   9              	_Z10test_ecallv:
  10              	.LFB0:
  11              		.file 1 "test/userMain.cpp"
   1:test/userMain.cpp **** //
   2:test/userMain.cpp **** // Created by os on 10/7/25.
   3:test/userMain.cpp **** //
   4:test/userMain.cpp **** 
   5:test/userMain.cpp **** #include "../h/syscall_c.hpp"
   6:test/userMain.cpp **** #include "../lib/console.h"
   7:test/userMain.cpp **** 
   8:test/userMain.cpp **** void test_ecall() {
  12              		.loc 1 8 19
  13              		.cfi_startproc
  14 0000 130101FF 		addi	sp,sp,-16
  15              		.cfi_def_cfa_offset 16
  16 0004 23348100 		sd	s0,8(sp)
  17              		.cfi_offset 8, -8
  18 0008 13040101 		addi	s0,sp,16
  19              		.cfi_def_cfa 8, 0
   9:test/userMain.cpp ****     asm volatile (
  20              		.loc 1 9 5
  10:test/userMain.cpp ****         "li a0, 0\n"
  11:test/userMain.cpp ****         "li a7, 0xDE\n"
  12:test/userMain.cpp ****         "ecall\n"
  13:test/userMain.cpp ****     );
  21              		.loc 1 13 6 is_stmt 0
  22              	#APP
  23              	# 13 "test/userMain.cpp" 1
  14 0010 9308E00D 	}
  15 0014 73000000 	
  16              	void printChar(char c) { __putc(c); }
  17              	void printString(const char* s) { while (*s) __putc(*s++); }
  14:test/userMain.cpp **** 
  24              		li a0, 0
  25              	li a7, 0xDE
  26              	ecall
  27              	
  28              	# 0 "" 2
  29              		.loc 1 14 1
  30              	#NO_APP
  31 0018 03348100 		ld	s0,8(sp)
  32              		.cfi_restore 8
  33              		.cfi_def_cfa 2, 16
  34 001c 13010101 		addi	sp,sp,16
  35              		.cfi_def_cfa_offset 0
  36 0020 67800000 		jr	ra
  37              		.cfi_endproc
  38              	.LFE0:
  40              		.align	2
  41              		.globl	_Z9printCharc
GAS LISTING /tmp/ccyjZgdc.s 			page 2


  43              	_Z9printCharc:
  44              	.LFB1:
  16:test/userMain.cpp **** void printString(const char* s) { while (*s) __putc(*s++); }
  45              		.loc 1 16 24 is_stmt 1
  46              		.cfi_startproc
  47              	.LVL0:
  48 0024 130101FF 		addi	sp,sp,-16
  49              		.cfi_def_cfa_offset 16
  50 0028 23341100 		sd	ra,8(sp)
  51 002c 23308100 		sd	s0,0(sp)
  52              		.cfi_offset 1, -8
  53              		.cfi_offset 8, -16
  54 0030 13040101 		addi	s0,sp,16
  55              		.cfi_def_cfa 8, 0
  16:test/userMain.cpp **** void printString(const char* s) { while (*s) __putc(*s++); }
  56              		.loc 1 16 26
  16:test/userMain.cpp **** void printString(const char* s) { while (*s) __putc(*s++); }
  57              		.loc 1 16 32 is_stmt 0
  58 0034 97000000 		call	__putc@plt
  58      E7800000 
  59              	.LVL1:
  16:test/userMain.cpp **** void printString(const char* s) { while (*s) __putc(*s++); }
  60              		.loc 1 16 37
  61 003c 83308100 		ld	ra,8(sp)
  62              		.cfi_restore 1
  63 0040 03340100 		ld	s0,0(sp)
  64              		.cfi_restore 8
  65              		.cfi_def_cfa 2, 16
  66 0044 13010101 		addi	sp,sp,16
  67              		.cfi_def_cfa_offset 0
  68 0048 67800000 		jr	ra
  69              		.cfi_endproc
  70              	.LFE1:
  72              		.align	2
  73              		.globl	_Z11printStringPKc
  75              	_Z11printStringPKc:
  76              	.LFB2:
  77              		.loc 1 17 33 is_stmt 1
  78              		.cfi_startproc
  79              	.LVL2:
  80 004c 130101FE 		addi	sp,sp,-32
  81              		.cfi_def_cfa_offset 32
  82 0050 233C1100 		sd	ra,24(sp)
  83 0054 23388100 		sd	s0,16(sp)
  84 0058 23349100 		sd	s1,8(sp)
  85              		.cfi_offset 1, -8
  86              		.cfi_offset 8, -16
  87              		.cfi_offset 9, -24
  88 005c 13040102 		addi	s0,sp,32
  89              		.cfi_def_cfa 8, 0
  90 0060 93040500 		mv	s1,a0
  91              	.LVL3:
  92              	.L7:
  93              		.loc 1 17 35 discriminator 3
  94              		.loc 1 17 43 discriminator 3
  95              		.loc 1 17 42 is_stmt 0 discriminator 3
  96 0064 03C50400 		lbu	a0,0(s1)
GAS LISTING /tmp/ccyjZgdc.s 			page 3


  97              		.loc 1 17 43 discriminator 3
  98 0068 630A0500 		beqz	a0,.L5
  99              		.loc 1 17 46 is_stmt 1 discriminator 2
 100              		.loc 1 17 55 is_stmt 0 discriminator 2
 101 006c 93841400 		addi	s1,s1,1
 102              	.LVL4:
 103              		.loc 1 17 52 discriminator 2
 104 0070 97000000 		call	__putc@plt
 104      E7800000 
 105              	.LVL5:
 106              		.loc 1 17 35 discriminator 2
 107 0078 6FF0DFFE 		j	.L7
 108              	.L5:
 109              		.loc 1 17 60
 110 007c 83308101 		ld	ra,24(sp)
 111              		.cfi_restore 1
 112 0080 03340101 		ld	s0,16(sp)
 113              		.cfi_restore 8
 114              		.cfi_def_cfa 2, 32
 115 0084 83348100 		ld	s1,8(sp)
 116              		.cfi_restore 9
 117              	.LVL6:
 118 0088 13010102 		addi	sp,sp,32
 119              		.cfi_def_cfa_offset 0
 120 008c 67800000 		jr	ra
 121              		.cfi_endproc
 122              	.LFE2:
 124              		.align	2
 125              		.globl	_Z11printNumberm
 127              	_Z11printNumberm:
 128              	.LFB3:
  18:test/userMain.cpp **** void printNumber(size_t num) {
 129              		.loc 1 18 30 is_stmt 1
 130              		.cfi_startproc
 131              	.LVL7:
 132 0090 130101FC 		addi	sp,sp,-64
 133              		.cfi_def_cfa_offset 64
 134 0094 233C1102 		sd	ra,56(sp)
 135 0098 23388102 		sd	s0,48(sp)
 136 009c 23349102 		sd	s1,40(sp)
 137              		.cfi_offset 1, -8
 138              		.cfi_offset 8, -16
 139              		.cfi_offset 9, -24
 140 00a0 13040104 		addi	s0,sp,64
 141              		.cfi_def_cfa 8, 0
  19:test/userMain.cpp ****     if (num == 0) { __putc('0'); return; }
 142              		.loc 1 19 5
 143 00a4 63080502 		beqz	a0,.L16
  20:test/userMain.cpp ****     char buf[20]; int i = 0;
 144              		.loc 1 20 23 is_stmt 0
 145 00a8 93070000 		li	a5,0
 146              	.L10:
 147              	.LVL8:
  21:test/userMain.cpp ****     while (num) { buf[i++] = '0' + (num % 10); num /= 10; }
 148              		.loc 1 21 5 is_stmt 1 discriminator 2
 149              		.loc 1 21 12 discriminator 2
 150 00ac 63080504 		beqz	a0,.L12
GAS LISTING /tmp/ccyjZgdc.s 			page 4


 151              		.loc 1 21 19 discriminator 1
 152              		.loc 1 21 41 is_stmt 0 discriminator 1
 153 00b0 9306A000 		li	a3,10
 154 00b4 3377D502 		remu	a4,a0,a3
 155              	.LVL9:
 156              		.loc 1 21 34 discriminator 1
 157 00b8 13070703 		addi	a4,a4,48
 158              		.loc 1 21 28 discriminator 1
 159 00bc 130604FE 		addi	a2,s0,-32
 160 00c0 3306F600 		add	a2,a2,a5
 161 00c4 2304E6FE 		sb	a4,-24(a2)
 162              		.loc 1 21 48 is_stmt 1 discriminator 1
 163              		.loc 1 21 52 is_stmt 0 discriminator 1
 164 00c8 3355D502 		divu	a0,a0,a3
 165              	.LVL10:
 166              		.loc 1 21 24 discriminator 1
 167 00cc 9B871700 		addiw	a5,a5,1
 168              	.LVL11:
 169              		.loc 1 21 5 discriminator 1
 170 00d0 6FF0DFFD 		j	.L10
 171              	.L16:
  19:test/userMain.cpp ****     if (num == 0) { __putc('0'); return; }
 172              		.loc 1 19 21 is_stmt 1 discriminator 1
  19:test/userMain.cpp ****     if (num == 0) { __putc('0'); return; }
 173              		.loc 1 19 27 is_stmt 0 discriminator 1
 174 00d4 13050003 		li	a0,48
 175              	.LVL12:
 176 00d8 97000000 		call	__putc@plt
 176      E7800000 
 177              	.LVL13:
  19:test/userMain.cpp ****     if (num == 0) { __putc('0'); return; }
 178              		.loc 1 19 34 is_stmt 1 discriminator 1
 179 00e0 6F004002 		j	.L9
 180              	.LVL14:
 181              	.L17:
  22:test/userMain.cpp ****     while (i--) __putc(buf[i]);
 182              		.loc 1 22 17 discriminator 1
 183              		.loc 1 22 23 is_stmt 0 discriminator 1
 184 00e4 930704FE 		addi	a5,s0,-32
 185              	.LVL15:
 186 00e8 B3879700 		add	a5,a5,s1
 187 00ec 03C587FE 		lbu	a0,-24(a5)
 188 00f0 97000000 		call	__putc@plt
 188      E7800000 
 189              	.LVL16:
 190              		.loc 1 22 13 discriminator 1
 191 00f8 93870400 		mv	a5,s1
 192              	.L12:
 193              	.LVL17:
 194              		.loc 1 22 5 is_stmt 1
 195              		.loc 1 22 13
 196 00fc 9B84F7FF 		addiw	s1,a5,-1
 197              	.LVL18:
 198 0100 E39207FE 		bnez	a5,.L17
 199              	.LVL19:
 200              	.L9:
  23:test/userMain.cpp **** }
GAS LISTING /tmp/ccyjZgdc.s 			page 5


 201              		.loc 1 23 1 is_stmt 0
 202 0104 83308103 		ld	ra,56(sp)
 203              		.cfi_restore 1
 204 0108 03340103 		ld	s0,48(sp)
 205              		.cfi_restore 8
 206              		.cfi_def_cfa 2, 64
 207 010c 83348102 		ld	s1,40(sp)
 208              		.cfi_restore 9
 209 0110 13010104 		addi	sp,sp,64
 210              		.cfi_def_cfa_offset 0
 211 0114 67800000 		jr	ra
 212              		.cfi_endproc
 213              	.LFE3:
 215              		.align	2
 216              		.globl	_Z12printPointerPv
 218              	_Z12printPointerPv:
 219              	.LFB4:
  24:test/userMain.cpp **** 
  25:test/userMain.cpp **** void printPointer(void* ptr) {
 220              		.loc 1 25 30 is_stmt 1
 221              		.cfi_startproc
 222              	.LVL20:
 223 0118 130101FF 		addi	sp,sp,-16
 224              		.cfi_def_cfa_offset 16
 225 011c 23341100 		sd	ra,8(sp)
 226 0120 23308100 		sd	s0,0(sp)
 227              		.cfi_offset 1, -8
 228              		.cfi_offset 8, -16
 229 0124 13040101 		addi	s0,sp,16
 230              		.cfi_def_cfa 8, 0
  26:test/userMain.cpp ****     printNumber((size_t)ptr);
 231              		.loc 1 26 5
 232              		.loc 1 26 16 is_stmt 0
 233 0128 97000000 		call	_Z11printNumberm
 233      E7800000 
 234              	.LVL21:
  27:test/userMain.cpp **** }
 235              		.loc 1 27 1
 236 0130 83308100 		ld	ra,8(sp)
 237              		.cfi_restore 1
 238 0134 03340100 		ld	s0,0(sp)
 239              		.cfi_restore 8
 240              		.cfi_def_cfa 2, 16
 241 0138 13010101 		addi	sp,sp,16
 242              		.cfi_def_cfa_offset 0
 243 013c 67800000 		jr	ra
 244              		.cfi_endproc
 245              	.LFE4:
 247              		.section	.rodata.str1.8,"aMS",@progbits,1
 248              		.align	3
 249              	.LC0:
 250 0000 55736572 		.string	"UserMain started\n"
 250      4D61696E 
 250      20737461 
 250      72746564 
 250      0A00
 251 0012 00000000 		.align	3
GAS LISTING /tmp/ccyjZgdc.s 			page 6


 251      0000
 252              	.LC1:
 253 0018 46726565 		.string	"Free space: "
 253      20737061 
 253      63653A20 
 253      00
 254 0025 000000   		.align	3
 255              	.LC2:
 256 0028 0A00     		.string	"\n"
 257 002a 00000000 		.align	3
 257      0000
 258              	.LC3:
 259 0030 416C6C6F 		.string	"Allocated: "
 259      63617465 
 259      643A2000 
 260 003c 00000000 		.align	3
 261              	.LC4:
 262 0040 46726565 		.string	"Free space after alloc: "
 262      20737061 
 262      63652061 
 262      66746572 
 262      20616C6C 
 263 0059 00000000 		.align	3
 263      000000
 264              	.LC5:
 265 0060 46726565 		.string	"Freed p1\n"
 265      64207031 
 265      0A00
 266 006a 00000000 		.align	3
 266      0000
 267              	.LC6:
 268 0070 46726565 		.string	"Free space after free: "
 268      20737061 
 268      63652061 
 268      66746572 
 268      20667265 
 269              		.text
 270              		.align	2
 271              		.globl	_Z8userMainv
 273              	_Z8userMainv:
 274              	.LFB5:
  28:test/userMain.cpp **** 
  29:test/userMain.cpp **** void userMain() {
 275              		.loc 1 29 17 is_stmt 1
 276              		.cfi_startproc
 277 0140 130101FE 		addi	sp,sp,-32
 278              		.cfi_def_cfa_offset 32
 279 0144 233C1100 		sd	ra,24(sp)
 280 0148 23388100 		sd	s0,16(sp)
 281 014c 23349100 		sd	s1,8(sp)
 282              		.cfi_offset 1, -8
 283              		.cfi_offset 8, -16
 284              		.cfi_offset 9, -24
 285 0150 13040102 		addi	s0,sp,32
 286              		.cfi_def_cfa 8, 0
  30:test/userMain.cpp ****     printString("UserMain started\n");
 287              		.loc 1 30 5
GAS LISTING /tmp/ccyjZgdc.s 			page 7


 288              		.loc 1 30 16 is_stmt 0
 289 0154 17050000 		lla	a0,.LC0
 289      13050500 
 290 015c 97000000 		call	_Z11printStringPKc
 290      E7800000 
 291              	.LVL22:
  31:test/userMain.cpp **** 
  32:test/userMain.cpp ****     printString("Free space: ");
 292              		.loc 1 32 5 is_stmt 1
 293              		.loc 1 32 16 is_stmt 0
 294 0164 17050000 		lla	a0,.LC1
 294      13050500 
 295 016c 97000000 		call	_Z11printStringPKc
 295      E7800000 
 296              	.LVL23:
  33:test/userMain.cpp ****     printNumber(mem_get_free_space());
 297              		.loc 1 33 5 is_stmt 1
 298              		.loc 1 33 16 is_stmt 0
 299 0174 97000000 		call	_Z18mem_get_free_spacev@plt
 299      E7800000 
 300              	.LVL24:
 301 017c 97000000 		call	_Z11printNumberm
 301      E7800000 
 302              	.LVL25:
  34:test/userMain.cpp ****     printString("\n");
 303              		.loc 1 34 5 is_stmt 1
 304              		.loc 1 34 16 is_stmt 0
 305 0184 17050000 		lla	a0,.LC2
 305      13050500 
 306 018c 97000000 		call	_Z11printStringPKc
 306      E7800000 
 307              	.LVL26:
  35:test/userMain.cpp **** 
  36:test/userMain.cpp ****     void* p1 = mem_alloc(160);
 308              		.loc 1 36 5 is_stmt 1
 309              		.loc 1 36 25 is_stmt 0
 310 0194 1305000A 		li	a0,160
 311 0198 97000000 		call	_Z9mem_allocm@plt
 311      E7800000 
 312              	.LVL27:
 313 01a0 93040500 		mv	s1,a0
 314              	.LVL28:
  37:test/userMain.cpp ****     printString("Allocated: "); printNumber((size_t)p1); printString("\n");
 315              		.loc 1 37 5 is_stmt 1
 316              		.loc 1 37 16 is_stmt 0
 317 01a4 17050000 		lla	a0,.LC3
 317      13050500 
 318 01ac 97000000 		call	_Z11printStringPKc
 318      E7800000 
 319              	.LVL29:
 320              		.loc 1 37 33 is_stmt 1
 321              		.loc 1 37 44 is_stmt 0
 322 01b4 13850400 		mv	a0,s1
 323 01b8 97000000 		call	_Z11printNumberm
 323      E7800000 
 324              	.LVL30:
 325              		.loc 1 37 58 is_stmt 1
GAS LISTING /tmp/ccyjZgdc.s 			page 8


 326              		.loc 1 37 69 is_stmt 0
 327 01c0 17050000 		lla	a0,.LC2
 327      13050500 
 328 01c8 97000000 		call	_Z11printStringPKc
 328      E7800000 
 329              	.LVL31:
  38:test/userMain.cpp **** 
  39:test/userMain.cpp ****     printString("Free space after alloc: ");
 330              		.loc 1 39 5 is_stmt 1
 331              		.loc 1 39 16 is_stmt 0
 332 01d0 17050000 		lla	a0,.LC4
 332      13050500 
 333 01d8 97000000 		call	_Z11printStringPKc
 333      E7800000 
 334              	.LVL32:
  40:test/userMain.cpp ****     printNumber(mem_get_free_space());
 335              		.loc 1 40 5 is_stmt 1
 336              		.loc 1 40 16 is_stmt 0
 337 01e0 97000000 		call	_Z18mem_get_free_spacev@plt
 337      E7800000 
 338              	.LVL33:
 339 01e8 97000000 		call	_Z11printNumberm
 339      E7800000 
 340              	.LVL34:
  41:test/userMain.cpp ****     printString("\n");
 341              		.loc 1 41 5 is_stmt 1
 342              		.loc 1 41 16 is_stmt 0
 343 01f0 17050000 		lla	a0,.LC2
 343      13050500 
 344 01f8 97000000 		call	_Z11printStringPKc
 344      E7800000 
 345              	.LVL35:
  42:test/userMain.cpp **** 
  43:test/userMain.cpp ****     mem_free(p1);
 346              		.loc 1 43 5 is_stmt 1
 347              		.loc 1 43 13 is_stmt 0
 348 0200 13850400 		mv	a0,s1
 349 0204 97000000 		call	_Z8mem_freePv@plt
 349      E7800000 
 350              	.LVL36:
  44:test/userMain.cpp ****     printString("Freed p1\n");
 351              		.loc 1 44 5 is_stmt 1
 352              		.loc 1 44 16 is_stmt 0
 353 020c 17050000 		lla	a0,.LC5
 353      13050500 
 354 0214 97000000 		call	_Z11printStringPKc
 354      E7800000 
 355              	.LVL37:
  45:test/userMain.cpp **** 
  46:test/userMain.cpp ****     printString("Free space after free: ");
 356              		.loc 1 46 5 is_stmt 1
 357              		.loc 1 46 16 is_stmt 0
 358 021c 17050000 		lla	a0,.LC6
 358      13050500 
 359 0224 97000000 		call	_Z11printStringPKc
 359      E7800000 
 360              	.LVL38:
GAS LISTING /tmp/ccyjZgdc.s 			page 9


  47:test/userMain.cpp ****     printNumber(mem_get_free_space());
 361              		.loc 1 47 5 is_stmt 1
 362              		.loc 1 47 16 is_stmt 0
 363 022c 97000000 		call	_Z18mem_get_free_spacev@plt
 363      E7800000 
 364              	.LVL39:
 365 0234 97000000 		call	_Z11printNumberm
 365      E7800000 
 366              	.LVL40:
  48:test/userMain.cpp ****     printString("\n");
 367              		.loc 1 48 5 is_stmt 1
 368              		.loc 1 48 16 is_stmt 0
 369 023c 17050000 		lla	a0,.LC2
 369      13050500 
 370 0244 97000000 		call	_Z11printStringPKc
 370      E7800000 
 371              	.LVL41:
  49:test/userMain.cpp **** 
  50:test/userMain.cpp ****     // BlockHeader* curr = MemoryAllocator::freeListHead;
  51:test/userMain.cpp ****     // while(curr) {
  52:test/userMain.cpp ****     //     printString("Free block at "); printPointer(curr);
  53:test/userMain.cpp ****     //     printString(" size "); printNumber(curr->size); printString("\n");
  54:test/userMain.cpp ****     //     curr = curr->next;
  55:test/userMain.cpp ****     // }
  56:test/userMain.cpp ****     //
  57:test/userMain.cpp ****     // void* p1 = MemoryAllocator::mem_alloc(10);
  58:test/userMain.cpp ****     // void* p2 = MemoryAllocator::mem_alloc(20);
  59:test/userMain.cpp ****     //
  60:test/userMain.cpp ****     // printString("p1: "); printPointer(p1); printString("\n");
  61:test/userMain.cpp ****     // printString("p2: "); printPointer(p2); printString("\n");
  62:test/userMain.cpp ****     //
  63:test/userMain.cpp ****     // MemoryAllocator::mem_free(p1);
  64:test/userMain.cpp ****     // printString("Freed p1\n");
  65:test/userMain.cpp ****     //
  66:test/userMain.cpp ****     // curr = MemoryAllocator::freeListHead;
  67:test/userMain.cpp ****     // while(curr) {
  68:test/userMain.cpp ****     //     printString("Free block at "); printPointer(curr);
  69:test/userMain.cpp ****     //     printString(" size "); printNumber(curr->size); printString("\n");
  70:test/userMain.cpp ****     //     curr = curr->next;
  71:test/userMain.cpp ****     // }
  72:test/userMain.cpp ****     //
  73:test/userMain.cpp ****     // printString("Total free space: ");
  74:test/userMain.cpp ****     // printNumber(MemoryAllocator::mem_get_free_space());
  75:test/userMain.cpp ****     // printString("\n");
  76:test/userMain.cpp ****     //
  77:test/userMain.cpp ****     // printString("Largest free block: ");
  78:test/userMain.cpp ****     // printNumber(MemoryAllocator::mem_get_largest_free_block());
  79:test/userMain.cpp ****     // printString("\n");
  80:test/userMain.cpp ****     //
  81:test/userMain.cpp ****     // MemoryAllocator::mem_free(p2);
  82:test/userMain.cpp ****     // printString("Freed p2\n");
  83:test/userMain.cpp ****     //
  84:test/userMain.cpp ****     // curr = MemoryAllocator::freeListHead;
  85:test/userMain.cpp ****     // while(curr) {
  86:test/userMain.cpp ****     //     printString("Free block at "); printPointer(curr);
  87:test/userMain.cpp ****     //     printString(" size "); printNumber(curr->size); printString("\n");
  88:test/userMain.cpp ****     //     curr = curr->next;
GAS LISTING /tmp/ccyjZgdc.s 			page 10


  89:test/userMain.cpp ****     // }
  90:test/userMain.cpp ****     //
  91:test/userMain.cpp ****     // printString("Total free space: ");
  92:test/userMain.cpp ****     // printNumber(MemoryAllocator::mem_get_free_space());
  93:test/userMain.cpp ****     // printString("\n");
  94:test/userMain.cpp ****     //
  95:test/userMain.cpp ****     // printString("Largest free block: ");
  96:test/userMain.cpp ****     // printNumber(MemoryAllocator::mem_get_largest_free_block());
  97:test/userMain.cpp ****     // printString("\n");
  98:test/userMain.cpp ****     //
  99:test/userMain.cpp ****     // printString("Pre ecall\n");
 100:test/userMain.cpp ****     //
 101:test/userMain.cpp ****     // test_ecall();
 102:test/userMain.cpp ****     //
 103:test/userMain.cpp ****     // printString("After ecall\n");
 104:test/userMain.cpp **** }
 372              		.loc 1 104 1
 373 024c 83308101 		ld	ra,24(sp)
 374              		.cfi_restore 1
 375 0250 03340101 		ld	s0,16(sp)
 376              		.cfi_restore 8
 377              		.cfi_def_cfa 2, 32
 378 0254 83348100 		ld	s1,8(sp)
 379              		.cfi_restore 9
 380              	.LVL42:
 381 0258 13010102 		addi	sp,sp,32
 382              		.cfi_def_cfa_offset 0
 383 025c 67800000 		jr	ra
 384              		.cfi_endproc
 385              	.LFE5:
 387              	.Letext0:
 388              		.file 2 "test/../h/../lib/hw.h"
 389              		.file 3 "test/../h/syscall_c.hpp"
 390              		.file 4 "test/../lib/console.h"
GAS LISTING /tmp/ccyjZgdc.s 			page 11


DEFINED SYMBOLS
                            *ABS*:0000000000000000 userMain.cpp
     /tmp/ccyjZgdc.s:9      .text:0000000000000000 _Z10test_ecallv
     /tmp/ccyjZgdc.s:13     .text:0000000000000000 .L0 
     /tmp/ccyjZgdc.s:14     .text:0000000000000000 .L0 
     /tmp/ccyjZgdc.s:15     .text:0000000000000004 .L0 
     /tmp/ccyjZgdc.s:17     .text:0000000000000008 .L0 
     /tmp/ccyjZgdc.s:19     .text:000000000000000c .L0 
     /tmp/ccyjZgdc.s:21     .text:000000000000000c .L0 
   test/userMain.cpp:13     .text:000000000000000c .L0 
     /tmp/ccyjZgdc.s:31     .text:0000000000000018 .L0 
     /tmp/ccyjZgdc.s:32     .text:000000000000001c .L0 
     /tmp/ccyjZgdc.s:33     .text:000000000000001c .L0 
     /tmp/ccyjZgdc.s:35     .text:0000000000000020 .L0 
     /tmp/ccyjZgdc.s:37     .text:0000000000000024 .L0 
     /tmp/ccyjZgdc.s:43     .text:0000000000000024 _Z9printCharc
     /tmp/ccyjZgdc.s:46     .text:0000000000000024 .L0 
     /tmp/ccyjZgdc.s:48     .text:0000000000000024 .L0 
     /tmp/ccyjZgdc.s:49     .text:0000000000000028 .L0 
     /tmp/ccyjZgdc.s:52     .text:0000000000000030 .L0 
     /tmp/ccyjZgdc.s:53     .text:0000000000000030 .L0 
     /tmp/ccyjZgdc.s:55     .text:0000000000000034 .L0 
     /tmp/ccyjZgdc.s:57     .text:0000000000000034 .L0 
     /tmp/ccyjZgdc.s:58     .text:0000000000000034 .L0 
     /tmp/ccyjZgdc.s:61     .text:000000000000003c .L0 
     /tmp/ccyjZgdc.s:62     .text:0000000000000040 .L0 
     /tmp/ccyjZgdc.s:64     .text:0000000000000044 .L0 
     /tmp/ccyjZgdc.s:65     .text:0000000000000044 .L0 
     /tmp/ccyjZgdc.s:67     .text:0000000000000048 .L0 
     /tmp/ccyjZgdc.s:69     .text:000000000000004c .L0 
     /tmp/ccyjZgdc.s:75     .text:000000000000004c _Z11printStringPKc
     /tmp/ccyjZgdc.s:78     .text:000000000000004c .L0 
     /tmp/ccyjZgdc.s:80     .text:000000000000004c .L0 
     /tmp/ccyjZgdc.s:81     .text:0000000000000050 .L0 
     /tmp/ccyjZgdc.s:85     .text:000000000000005c .L0 
     /tmp/ccyjZgdc.s:86     .text:000000000000005c .L0 
     /tmp/ccyjZgdc.s:87     .text:000000000000005c .L0 
     /tmp/ccyjZgdc.s:89     .text:0000000000000060 .L0 
     /tmp/ccyjZgdc.s:94     .text:0000000000000064 .L0 
     /tmp/ccyjZgdc.s:95     .text:0000000000000064 .L0 
     /tmp/ccyjZgdc.s:96     .text:0000000000000064 .L0 
     /tmp/ccyjZgdc.s:98     .text:0000000000000068 .L0 
     /tmp/ccyjZgdc.s:100    .text:000000000000006c .L0 
     /tmp/ccyjZgdc.s:101    .text:000000000000006c .L0 
     /tmp/ccyjZgdc.s:104    .text:0000000000000070 .L0 
     /tmp/ccyjZgdc.s:107    .text:0000000000000078 .L0 
     /tmp/ccyjZgdc.s:110    .text:000000000000007c .L0 
     /tmp/ccyjZgdc.s:111    .text:0000000000000080 .L0 
     /tmp/ccyjZgdc.s:113    .text:0000000000000084 .L0 
     /tmp/ccyjZgdc.s:114    .text:0000000000000084 .L0 
     /tmp/ccyjZgdc.s:116    .text:0000000000000088 .L0 
     /tmp/ccyjZgdc.s:119    .text:000000000000008c .L0 
     /tmp/ccyjZgdc.s:121    .text:0000000000000090 .L0 
     /tmp/ccyjZgdc.s:127    .text:0000000000000090 _Z11printNumberm
     /tmp/ccyjZgdc.s:130    .text:0000000000000090 .L0 
     /tmp/ccyjZgdc.s:132    .text:0000000000000090 .L0 
     /tmp/ccyjZgdc.s:133    .text:0000000000000094 .L0 
GAS LISTING /tmp/ccyjZgdc.s 			page 12


     /tmp/ccyjZgdc.s:137    .text:00000000000000a0 .L0 
     /tmp/ccyjZgdc.s:138    .text:00000000000000a0 .L0 
     /tmp/ccyjZgdc.s:139    .text:00000000000000a0 .L0 
     /tmp/ccyjZgdc.s:141    .text:00000000000000a4 .L0 
     /tmp/ccyjZgdc.s:143    .text:00000000000000a4 .L0 
     /tmp/ccyjZgdc.s:145    .text:00000000000000a8 .L0 
     /tmp/ccyjZgdc.s:149    .text:00000000000000ac .L0 
     /tmp/ccyjZgdc.s:150    .text:00000000000000ac .L0 
     /tmp/ccyjZgdc.s:152    .text:00000000000000b0 .L0 
     /tmp/ccyjZgdc.s:153    .text:00000000000000b0 .L0 
     /tmp/ccyjZgdc.s:157    .text:00000000000000b8 .L0 
     /tmp/ccyjZgdc.s:159    .text:00000000000000bc .L0 
     /tmp/ccyjZgdc.s:163    .text:00000000000000c8 .L0 
     /tmp/ccyjZgdc.s:164    .text:00000000000000c8 .L0 
     /tmp/ccyjZgdc.s:167    .text:00000000000000cc .L0 
     /tmp/ccyjZgdc.s:170    .text:00000000000000d0 .L0 
     /tmp/ccyjZgdc.s:173    .text:00000000000000d4 .L0 
     /tmp/ccyjZgdc.s:174    .text:00000000000000d4 .L0 
     /tmp/ccyjZgdc.s:179    .text:00000000000000e0 .L0 
     /tmp/ccyjZgdc.s:183    .text:00000000000000e4 .L0 
     /tmp/ccyjZgdc.s:184    .text:00000000000000e4 .L0 
     /tmp/ccyjZgdc.s:191    .text:00000000000000f8 .L0 
     /tmp/ccyjZgdc.s:195    .text:00000000000000fc .L0 
     /tmp/ccyjZgdc.s:196    .text:00000000000000fc .L0 
     /tmp/ccyjZgdc.s:202    .text:0000000000000104 .L0 
     /tmp/ccyjZgdc.s:203    .text:0000000000000108 .L0 
     /tmp/ccyjZgdc.s:205    .text:000000000000010c .L0 
     /tmp/ccyjZgdc.s:206    .text:000000000000010c .L0 
     /tmp/ccyjZgdc.s:208    .text:0000000000000110 .L0 
     /tmp/ccyjZgdc.s:210    .text:0000000000000114 .L0 
     /tmp/ccyjZgdc.s:212    .text:0000000000000118 .L0 
     /tmp/ccyjZgdc.s:218    .text:0000000000000118 _Z12printPointerPv
     /tmp/ccyjZgdc.s:221    .text:0000000000000118 .L0 
     /tmp/ccyjZgdc.s:223    .text:0000000000000118 .L0 
     /tmp/ccyjZgdc.s:224    .text:000000000000011c .L0 
     /tmp/ccyjZgdc.s:227    .text:0000000000000124 .L0 
     /tmp/ccyjZgdc.s:228    .text:0000000000000124 .L0 
     /tmp/ccyjZgdc.s:230    .text:0000000000000128 .L0 
     /tmp/ccyjZgdc.s:232    .text:0000000000000128 .L0 
     /tmp/ccyjZgdc.s:233    .text:0000000000000128 .L0 
     /tmp/ccyjZgdc.s:236    .text:0000000000000130 .L0 
     /tmp/ccyjZgdc.s:237    .text:0000000000000134 .L0 
     /tmp/ccyjZgdc.s:239    .text:0000000000000138 .L0 
     /tmp/ccyjZgdc.s:240    .text:0000000000000138 .L0 
     /tmp/ccyjZgdc.s:242    .text:000000000000013c .L0 
     /tmp/ccyjZgdc.s:244    .text:0000000000000140 .L0 
     /tmp/ccyjZgdc.s:273    .text:0000000000000140 _Z8userMainv
     /tmp/ccyjZgdc.s:276    .text:0000000000000140 .L0 
     /tmp/ccyjZgdc.s:277    .text:0000000000000140 .L0 
     /tmp/ccyjZgdc.s:278    .text:0000000000000144 .L0 
     /tmp/ccyjZgdc.s:282    .text:0000000000000150 .L0 
     /tmp/ccyjZgdc.s:283    .text:0000000000000150 .L0 
     /tmp/ccyjZgdc.s:284    .text:0000000000000150 .L0 
     /tmp/ccyjZgdc.s:286    .text:0000000000000154 .L0 
     /tmp/ccyjZgdc.s:288    .text:0000000000000154 .L0 
     /tmp/ccyjZgdc.s:289    .text:0000000000000154 .L0 
     /tmp/ccyjZgdc.s:293    .text:0000000000000164 .L0 
GAS LISTING /tmp/ccyjZgdc.s 			page 13


     /tmp/ccyjZgdc.s:294    .text:0000000000000164 .L0 
     /tmp/ccyjZgdc.s:298    .text:0000000000000174 .L0 
     /tmp/ccyjZgdc.s:299    .text:0000000000000174 .L0 
     /tmp/ccyjZgdc.s:304    .text:0000000000000184 .L0 
     /tmp/ccyjZgdc.s:305    .text:0000000000000184 .L0 
     /tmp/ccyjZgdc.s:309    .text:0000000000000194 .L0 
     /tmp/ccyjZgdc.s:310    .text:0000000000000194 .L0 
     /tmp/ccyjZgdc.s:316    .text:00000000000001a4 .L0 
     /tmp/ccyjZgdc.s:317    .text:00000000000001a4 .L0 
     /tmp/ccyjZgdc.s:321    .text:00000000000001b4 .L0 
     /tmp/ccyjZgdc.s:322    .text:00000000000001b4 .L0 
     /tmp/ccyjZgdc.s:326    .text:00000000000001c0 .L0 
     /tmp/ccyjZgdc.s:327    .text:00000000000001c0 .L0 
     /tmp/ccyjZgdc.s:331    .text:00000000000001d0 .L0 
     /tmp/ccyjZgdc.s:332    .text:00000000000001d0 .L0 
     /tmp/ccyjZgdc.s:336    .text:00000000000001e0 .L0 
     /tmp/ccyjZgdc.s:337    .text:00000000000001e0 .L0 
     /tmp/ccyjZgdc.s:342    .text:00000000000001f0 .L0 
     /tmp/ccyjZgdc.s:343    .text:00000000000001f0 .L0 
     /tmp/ccyjZgdc.s:347    .text:0000000000000200 .L0 
     /tmp/ccyjZgdc.s:348    .text:0000000000000200 .L0 
     /tmp/ccyjZgdc.s:352    .text:000000000000020c .L0 
     /tmp/ccyjZgdc.s:353    .text:000000000000020c .L0 
     /tmp/ccyjZgdc.s:357    .text:000000000000021c .L0 
     /tmp/ccyjZgdc.s:358    .text:000000000000021c .L0 
     /tmp/ccyjZgdc.s:362    .text:000000000000022c .L0 
     /tmp/ccyjZgdc.s:363    .text:000000000000022c .L0 
     /tmp/ccyjZgdc.s:368    .text:000000000000023c .L0 
     /tmp/ccyjZgdc.s:369    .text:000000000000023c .L0 
     /tmp/ccyjZgdc.s:373    .text:000000000000024c .L0 
     /tmp/ccyjZgdc.s:374    .text:0000000000000250 .L0 
     /tmp/ccyjZgdc.s:376    .text:0000000000000254 .L0 
     /tmp/ccyjZgdc.s:377    .text:0000000000000254 .L0 
     /tmp/ccyjZgdc.s:379    .text:0000000000000258 .L0 
     /tmp/ccyjZgdc.s:382    .text:000000000000025c .L0 
     /tmp/ccyjZgdc.s:384    .text:0000000000000260 .L0 
     /tmp/ccyjZgdc.s:391    .text:0000000000000260 .L0 
     /tmp/ccyjZgdc.s:249    .rodata.str1.8:0000000000000000 .LC0
     /tmp/ccyjZgdc.s:289    .text:0000000000000154 .L0 
     /tmp/ccyjZgdc.s:252    .rodata.str1.8:0000000000000018 .LC1
     /tmp/ccyjZgdc.s:294    .text:0000000000000164 .L0 
     /tmp/ccyjZgdc.s:255    .rodata.str1.8:0000000000000028 .LC2
     /tmp/ccyjZgdc.s:305    .text:0000000000000184 .L0 
     /tmp/ccyjZgdc.s:258    .rodata.str1.8:0000000000000030 .LC3
     /tmp/ccyjZgdc.s:317    .text:00000000000001a4 .L0 
     /tmp/ccyjZgdc.s:327    .text:00000000000001c0 .L0 
     /tmp/ccyjZgdc.s:261    .rodata.str1.8:0000000000000040 .LC4
     /tmp/ccyjZgdc.s:332    .text:00000000000001d0 .L0 
     /tmp/ccyjZgdc.s:343    .text:00000000000001f0 .L0 
     /tmp/ccyjZgdc.s:264    .rodata.str1.8:0000000000000060 .LC5
     /tmp/ccyjZgdc.s:353    .text:000000000000020c .L0 
     /tmp/ccyjZgdc.s:267    .rodata.str1.8:0000000000000070 .LC6
     /tmp/ccyjZgdc.s:358    .text:000000000000021c .L0 
     /tmp/ccyjZgdc.s:369    .text:000000000000023c .L0 
     /tmp/ccyjZgdc.s:108    .text:000000000000007c .L5
     /tmp/ccyjZgdc.s:92     .text:0000000000000064 .L7
     /tmp/ccyjZgdc.s:171    .text:00000000000000d4 .L16
GAS LISTING /tmp/ccyjZgdc.s 			page 14


     /tmp/ccyjZgdc.s:192    .text:00000000000000fc .L12
     /tmp/ccyjZgdc.s:146    .text:00000000000000ac .L10
     /tmp/ccyjZgdc.s:200    .text:0000000000000104 .L9
     /tmp/ccyjZgdc.s:181    .text:00000000000000e4 .L17
     /tmp/ccyjZgdc.s:888    .debug_abbrev:0000000000000000 .Ldebug_abbrev0
     /tmp/ccyjZgdc.s:1351   .debug_str:000000000000010f .LASF35
     /tmp/ccyjZgdc.s:1371   .debug_str:0000000000000247 .LASF36
     /tmp/ccyjZgdc.s:1375   .debug_str:000000000000026a .LASF37
     /tmp/ccyjZgdc.s:5      .text:0000000000000000 .Ltext0
     /tmp/ccyjZgdc.s:387    .text:0000000000000260 .Letext0
     /tmp/ccyjZgdc.s:1313   .debug_line:0000000000000000 .Ldebug_line0
     /tmp/ccyjZgdc.s:1359   .debug_str:00000000000001f8 .LASF0
     /tmp/ccyjZgdc.s:1343   .debug_str:00000000000000d0 .LASF1
     /tmp/ccyjZgdc.s:1339   .debug_str:00000000000000b0 .LASF2
     /tmp/ccyjZgdc.s:1325   .debug_str:0000000000000041 .LASF4
     /tmp/ccyjZgdc.s:1341   .debug_str:00000000000000be .LASF3
     /tmp/ccyjZgdc.s:1319   .debug_str:0000000000000021 .LASF5
     /tmp/ccyjZgdc.s:1317   .debug_str:000000000000000e .LASF6
     /tmp/ccyjZgdc.s:1329   .debug_str:000000000000005e .LASF7
     /tmp/ccyjZgdc.s:1367   .debug_str:0000000000000221 .LASF8
     /tmp/ccyjZgdc.s:1323   .debug_str:0000000000000033 .LASF9
     /tmp/ccyjZgdc.s:1393   .debug_str:00000000000002f8 .LASF10
     /tmp/ccyjZgdc.s:1333   .debug_str:000000000000007b .LASF11
     /tmp/ccyjZgdc.s:1383   .debug_str:00000000000002b5 .LASF12
     /tmp/ccyjZgdc.s:1363   .debug_str:000000000000020a .LASF13
     /tmp/ccyjZgdc.s:1347   .debug_str:00000000000000f0 .LASF14
     /tmp/ccyjZgdc.s:1327   .debug_str:0000000000000048 .LASF15
     /tmp/ccyjZgdc.s:1369   .debug_str:0000000000000231 .LASF16
     /tmp/ccyjZgdc.s:1357   .debug_str:00000000000001ef .LASF17
     /tmp/ccyjZgdc.s:1389   .debug_str:00000000000002df .LASF19
     /tmp/ccyjZgdc.s:274    .text:0000000000000140 .LFB5
     /tmp/ccyjZgdc.s:385    .text:0000000000000260 .LFE5
     /tmp/ccyjZgdc.s:1207   .debug_loc:0000000000000000 .LLST5
     /tmp/ccyjZgdc.s:291    .text:0000000000000164 .LVL22
     /tmp/ccyjZgdc.s:296    .text:0000000000000174 .LVL23
     /tmp/ccyjZgdc.s:300    .text:000000000000017c .LVL24
     /tmp/ccyjZgdc.s:302    .text:0000000000000184 .LVL25
     /tmp/ccyjZgdc.s:307    .text:0000000000000194 .LVL26
     /tmp/ccyjZgdc.s:312    .text:00000000000001a0 .LVL27
     /tmp/ccyjZgdc.s:319    .text:00000000000001b4 .LVL29
     /tmp/ccyjZgdc.s:324    .text:00000000000001c0 .LVL30
     /tmp/ccyjZgdc.s:329    .text:00000000000001d0 .LVL31
     /tmp/ccyjZgdc.s:334    .text:00000000000001e0 .LVL32
     /tmp/ccyjZgdc.s:338    .text:00000000000001e8 .LVL33
     /tmp/ccyjZgdc.s:340    .text:00000000000001f0 .LVL34
     /tmp/ccyjZgdc.s:345    .text:0000000000000200 .LVL35
     /tmp/ccyjZgdc.s:350    .text:000000000000020c .LVL36
     /tmp/ccyjZgdc.s:355    .text:000000000000021c .LVL37
     /tmp/ccyjZgdc.s:360    .text:000000000000022c .LVL38
     /tmp/ccyjZgdc.s:364    .text:0000000000000234 .LVL39
     /tmp/ccyjZgdc.s:366    .text:000000000000023c .LVL40
     /tmp/ccyjZgdc.s:371    .text:000000000000024c .LVL41
     /tmp/ccyjZgdc.s:1345   .debug_str:00000000000000e3 .LASF18
     /tmp/ccyjZgdc.s:1349   .debug_str:00000000000000fc .LASF20
     /tmp/ccyjZgdc.s:219    .text:0000000000000118 .LFB4
     /tmp/ccyjZgdc.s:245    .text:0000000000000140 .LFE4
     /tmp/ccyjZgdc.s:1214   .debug_loc:0000000000000023 .LLST4
GAS LISTING /tmp/ccyjZgdc.s 			page 15


     /tmp/ccyjZgdc.s:234    .text:0000000000000130 .LVL21
     /tmp/ccyjZgdc.s:1379   .debug_str:0000000000000291 .LASF21
     /tmp/ccyjZgdc.s:1373   .debug_str:0000000000000259 .LASF22
     /tmp/ccyjZgdc.s:128    .text:0000000000000090 .LFB3
     /tmp/ccyjZgdc.s:213    .text:0000000000000118 .LFE3
     /tmp/ccyjZgdc.s:1228   .debug_loc:000000000000005c .LLST2
     /tmp/ccyjZgdc.s:1246   .debug_loc:00000000000000a8 .LLST3
     /tmp/ccyjZgdc.s:177    .text:00000000000000e0 .LVL13
     /tmp/ccyjZgdc.s:189    .text:00000000000000f8 .LVL16
     /tmp/ccyjZgdc.s:1361   .debug_str:0000000000000205 .LASF23
     /tmp/ccyjZgdc.s:1391   .debug_str:00000000000002ec .LASF24
     /tmp/ccyjZgdc.s:1337   .debug_str:000000000000009d .LASF25
     /tmp/ccyjZgdc.s:76     .text:000000000000004c .LFB2
     /tmp/ccyjZgdc.s:122    .text:0000000000000090 .LFE2
     /tmp/ccyjZgdc.s:1275   .debug_loc:000000000000011d .LLST1
     /tmp/ccyjZgdc.s:105    .text:0000000000000078 .LVL5
     /tmp/ccyjZgdc.s:1331   .debug_str:0000000000000071 .LASF26
     /tmp/ccyjZgdc.s:1353   .debug_str:00000000000001d3 .LASF27
     /tmp/ccyjZgdc.s:44     .text:0000000000000024 .LFB1
     /tmp/ccyjZgdc.s:70     .text:000000000000004c .LFE1
     /tmp/ccyjZgdc.s:1286   .debug_loc:0000000000000153 .LLST0
     /tmp/ccyjZgdc.s:59     .text:000000000000003c .LVL1
     /tmp/ccyjZgdc.s:1321   .debug_str:0000000000000028 .LASF38
     /tmp/ccyjZgdc.s:1387   .debug_str:00000000000002cf .LASF39
     /tmp/ccyjZgdc.s:10     .text:0000000000000000 .LFB0
     /tmp/ccyjZgdc.s:38     .text:0000000000000024 .LFE0
     /tmp/ccyjZgdc.s:1381   .debug_str:000000000000029d .LASF28
     /tmp/ccyjZgdc.s:1335   .debug_str:000000000000008a .LASF30
     /tmp/ccyjZgdc.s:1355   .debug_str:00000000000001e1 .LASF29
     /tmp/ccyjZgdc.s:1385   .debug_str:00000000000002c5 .LASF31
     /tmp/ccyjZgdc.s:1315   .debug_str:0000000000000000 .LASF32
     /tmp/ccyjZgdc.s:1377   .debug_str:0000000000000288 .LASF33
     /tmp/ccyjZgdc.s:1365   .debug_str:000000000000021a .LASF34
     /tmp/ccyjZgdc.s:314    .text:00000000000001a4 .LVL28
     /tmp/ccyjZgdc.s:380    .text:0000000000000258 .LVL42
     /tmp/ccyjZgdc.s:222    .text:0000000000000118 .LVL20
     /tmp/ccyjZgdc.s:131    .text:0000000000000090 .LVL7
     /tmp/ccyjZgdc.s:165    .text:00000000000000cc .LVL10
     /tmp/ccyjZgdc.s:175    .text:00000000000000d8 .LVL12
     /tmp/ccyjZgdc.s:180    .text:00000000000000e4 .LVL14
     /tmp/ccyjZgdc.s:147    .text:00000000000000ac .LVL8
     /tmp/ccyjZgdc.s:155    .text:00000000000000b8 .LVL9
     /tmp/ccyjZgdc.s:168    .text:00000000000000d0 .LVL11
     /tmp/ccyjZgdc.s:185    .text:00000000000000e8 .LVL15
     /tmp/ccyjZgdc.s:193    .text:00000000000000fc .LVL17
     /tmp/ccyjZgdc.s:197    .text:0000000000000100 .LVL18
     /tmp/ccyjZgdc.s:199    .text:0000000000000104 .LVL19
     /tmp/ccyjZgdc.s:79     .text:000000000000004c .LVL2
     /tmp/ccyjZgdc.s:91     .text:0000000000000064 .LVL3
     /tmp/ccyjZgdc.s:117    .text:0000000000000088 .LVL6
     /tmp/ccyjZgdc.s:47     .text:0000000000000024 .LVL0
     /tmp/ccyjZgdc.s:392    .debug_info:0000000000000000 .Ldebug_info0

UNDEFINED SYMBOLS
__putc
_Z18mem_get_free_spacev
_Z9mem_allocm
GAS LISTING /tmp/ccyjZgdc.s 			page 16


_Z8mem_freePv
